Archive member included because of file (symbol)

d:/program files (x86)/atmel/studio/7.0/toolchain/avr32/avr32-gnu-toolchain/bin/../lib/gcc/avr32/4.4.7/../../../../avr32/lib/ucr2\libc.a(lib_a-malloc.o)
                              Srouce/ASF/thirdparty/freertos/freertos-7.0.0/source/portable/memmang/heap_3.o (free)
d:/program files (x86)/atmel/studio/7.0/toolchain/avr32/avr32-gnu-toolchain/bin/../lib/gcc/avr32/4.4.7/../../../../avr32/lib/ucr2\libc.a(lib_a-mallocr.o)
                              d:/program files (x86)/atmel/studio/7.0/toolchain/avr32/avr32-gnu-toolchain/bin/../lib/gcc/avr32/4.4.7/../../../../avr32/lib/ucr2\libc.a(lib_a-malloc.o) (_malloc_r)
d:/program files (x86)/atmel/studio/7.0/toolchain/avr32/avr32-gnu-toolchain/bin/../lib/gcc/avr32/4.4.7/../../../../avr32/lib/ucr2\libc.a(lib_a-memcmp.o)
                              Srouce/Application/fs/fs.o (memcmp)
d:/program files (x86)/atmel/studio/7.0/toolchain/avr32/avr32-gnu-toolchain/bin/../lib/gcc/avr32/4.4.7/../../../../avr32/lib/ucr2\libc.a(lib_a-memcpy.o)
                              Srouce/Application/fs/mal_sd.o (memcpy)
d:/program files (x86)/atmel/studio/7.0/toolchain/avr32/avr32-gnu-toolchain/bin/../lib/gcc/avr32/4.4.7/../../../../avr32/lib/ucr2\libc.a(lib_a-memset.o)
                              Srouce/Application/fs/mal_sd.o (memset)
d:/program files (x86)/atmel/studio/7.0/toolchain/avr32/avr32-gnu-toolchain/bin/../lib/gcc/avr32/4.4.7/../../../../avr32/lib/ucr2\libc.a(lib_a-realloc.o)
                              Srouce/ASF/thirdparty/freertos/freertos-7.0.0/source/portable/gcc/avr32_uc3/port.o (realloc)
d:/program files (x86)/atmel/studio/7.0/toolchain/avr32/avr32-gnu-toolchain/bin/../lib/gcc/avr32/4.4.7/../../../../avr32/lib/ucr2\libc.a(lib_a-reallocr.o)
                              d:/program files (x86)/atmel/studio/7.0/toolchain/avr32/avr32-gnu-toolchain/bin/../lib/gcc/avr32/4.4.7/../../../../avr32/lib/ucr2\libc.a(lib_a-realloc.o) (_realloc_r)
d:/program files (x86)/atmel/studio/7.0/toolchain/avr32/avr32-gnu-toolchain/bin/../lib/gcc/avr32/4.4.7/../../../../avr32/lib/ucr2\libc.a(lib_a-sbrkr.o)
                              d:/program files (x86)/atmel/studio/7.0/toolchain/avr32/avr32-gnu-toolchain/bin/../lib/gcc/avr32/4.4.7/../../../../avr32/lib/ucr2\libc.a(lib_a-mallocr.o) (_sbrk_r)
d:/program files (x86)/atmel/studio/7.0/toolchain/avr32/avr32-gnu-toolchain/bin/../lib/gcc/avr32/4.4.7/../../../../avr32/lib/ucr2\libc.a(lib_a-sprintf.o)
                              Srouce/Application/fs/avr_spi_sd.o (sprintf)
d:/program files (x86)/atmel/studio/7.0/toolchain/avr32/avr32-gnu-toolchain/bin/../lib/gcc/avr32/4.4.7/../../../../avr32/lib/ucr2\libc.a(lib_a-strcpy.o)
                              Srouce/Application/fs/fs.o (strcpy)
d:/program files (x86)/atmel/studio/7.0/toolchain/avr32/avr32-gnu-toolchain/bin/../lib/gcc/avr32/4.4.7/../../../../avr32/lib/ucr2\libc.a(lib_a-strlen.o)
                              Srouce/Application/fs/fs.o (strlen)
d:/program files (x86)/atmel/studio/7.0/toolchain/avr32/avr32-gnu-toolchain/bin/../lib/gcc/avr32/4.4.7/../../../../avr32/lib/ucr2\libc.a(lib_a-strncpy.o)
                              Srouce/ASF/thirdparty/freertos/freertos-7.0.0/source/tasks.o (strncpy)
d:/program files (x86)/atmel/studio/7.0/toolchain/avr32/avr32-gnu-toolchain/bin/../lib/gcc/avr32/4.4.7/../../../../avr32/lib/ucr2\libc.a(lib_a-strtok.o)
                              Srouce/Application/fs/fs.o (strtok)
d:/program files (x86)/atmel/studio/7.0/toolchain/avr32/avr32-gnu-toolchain/bin/../lib/gcc/avr32/4.4.7/../../../../avr32/lib/ucr2\libc.a(lib_a-strtok_r.o)
                              d:/program files (x86)/atmel/studio/7.0/toolchain/avr32/avr32-gnu-toolchain/bin/../lib/gcc/avr32/4.4.7/../../../../avr32/lib/ucr2\libc.a(lib_a-strtok.o) (__strtok_r)
d:/program files (x86)/atmel/studio/7.0/toolchain/avr32/avr32-gnu-toolchain/bin/../lib/gcc/avr32/4.4.7/../../../../avr32/lib/ucr2\libc.a(lib_a-syscalls.o)
                              d:/program files (x86)/atmel/studio/7.0/toolchain/avr32/avr32-gnu-toolchain/bin/../lib/gcc/avr32/4.4.7/../../../../avr32/lib/ucr2\libc.a(lib_a-sbrkr.o) (_sbrk)
d:/program files (x86)/atmel/studio/7.0/toolchain/avr32/avr32-gnu-toolchain/bin/../lib/gcc/avr32/4.4.7/../../../../avr32/lib/ucr2\libc.a(lib_a-vfprintf.o)
                              d:/program files (x86)/atmel/studio/7.0/toolchain/avr32/avr32-gnu-toolchain/bin/../lib/gcc/avr32/4.4.7/../../../../avr32/lib/ucr2\libc.a(lib_a-sprintf.o) (_vfprintf_r)
d:/program files (x86)/atmel/studio/7.0/toolchain/avr32/avr32-gnu-toolchain/bin/../lib/gcc/avr32/4.4.7/../../../../avr32/lib/ucr2\libc.a(lib_a-wsetup.o)
                              d:/program files (x86)/atmel/studio/7.0/toolchain/avr32/avr32-gnu-toolchain/bin/../lib/gcc/avr32/4.4.7/../../../../avr32/lib/ucr2\libc.a(lib_a-vfprintf.o) (__swsetup_r)
d:/program files (x86)/atmel/studio/7.0/toolchain/avr32/avr32-gnu-toolchain/bin/../lib/gcc/avr32/4.4.7/../../../../avr32/lib/ucr2\libc.a(lib_a-dtoa.o)
                              d:/program files (x86)/atmel/studio/7.0/toolchain/avr32/avr32-gnu-toolchain/bin/../lib/gcc/avr32/4.4.7/../../../../avr32/lib/ucr2\libc.a(lib_a-vfprintf.o) (_dtoa_r)
d:/program files (x86)/atmel/studio/7.0/toolchain/avr32/avr32-gnu-toolchain/bin/../lib/gcc/avr32/4.4.7/../../../../avr32/lib/ucr2\libc.a(lib_a-errno.o)
                              d:/program files (x86)/atmel/studio/7.0/toolchain/avr32/avr32-gnu-toolchain/bin/../lib/gcc/avr32/4.4.7/../../../../avr32/lib/ucr2\libc.a(lib_a-syscalls.o) (__errno)
d:/program files (x86)/atmel/studio/7.0/toolchain/avr32/avr32-gnu-toolchain/bin/../lib/gcc/avr32/4.4.7/../../../../avr32/lib/ucr2\libc.a(lib_a-fflush.o)
                              d:/program files (x86)/atmel/studio/7.0/toolchain/avr32/avr32-gnu-toolchain/bin/../lib/gcc/avr32/4.4.7/../../../../avr32/lib/ucr2\libc.a(lib_a-vfprintf.o) (_fflush_r)
d:/program files (x86)/atmel/studio/7.0/toolchain/avr32/avr32-gnu-toolchain/bin/../lib/gcc/avr32/4.4.7/../../../../avr32/lib/ucr2\libc.a(lib_a-findfp.o)
                              d:/program files (x86)/atmel/studio/7.0/toolchain/avr32/avr32-gnu-toolchain/bin/../lib/gcc/avr32/4.4.7/../../../../avr32/lib/ucr2\libc.a(lib_a-vfprintf.o) (__sinit)
d:/program files (x86)/atmel/studio/7.0/toolchain/avr32/avr32-gnu-toolchain/bin/../lib/gcc/avr32/4.4.7/../../../../avr32/lib/ucr2\libc.a(lib_a-freer.o)
                              d:/program files (x86)/atmel/studio/7.0/toolchain/avr32/avr32-gnu-toolchain/bin/../lib/gcc/avr32/4.4.7/../../../../avr32/lib/ucr2\libc.a(lib_a-malloc.o) (_free_r)
d:/program files (x86)/atmel/studio/7.0/toolchain/avr32/avr32-gnu-toolchain/bin/../lib/gcc/avr32/4.4.7/../../../../avr32/lib/ucr2\libc.a(lib_a-fvwrite.o)
                              d:/program files (x86)/atmel/studio/7.0/toolchain/avr32/avr32-gnu-toolchain/bin/../lib/gcc/avr32/4.4.7/../../../../avr32/lib/ucr2\libc.a(lib_a-vfprintf.o) (__sfvwrite_r)
d:/program files (x86)/atmel/studio/7.0/toolchain/avr32/avr32-gnu-toolchain/bin/../lib/gcc/avr32/4.4.7/../../../../avr32/lib/ucr2\libc.a(lib_a-fwalk.o)
                              d:/program files (x86)/atmel/studio/7.0/toolchain/avr32/avr32-gnu-toolchain/bin/../lib/gcc/avr32/4.4.7/../../../../avr32/lib/ucr2\libc.a(lib_a-fflush.o) (_fwalk_reent)
d:/program files (x86)/atmel/studio/7.0/toolchain/avr32/avr32-gnu-toolchain/bin/../lib/gcc/avr32/4.4.7/../../../../avr32/lib/ucr2\libc.a(lib_a-impure.o)
                              d:/program files (x86)/atmel/studio/7.0/toolchain/avr32/avr32-gnu-toolchain/bin/../lib/gcc/avr32/4.4.7/../../../../avr32/lib/ucr2\libc.a(lib_a-malloc.o) (_impure_ptr)
d:/program files (x86)/atmel/studio/7.0/toolchain/avr32/avr32-gnu-toolchain/bin/../lib/gcc/avr32/4.4.7/../../../../avr32/lib/ucr2\libc.a(lib_a-locale.o)
                              d:/program files (x86)/atmel/studio/7.0/toolchain/avr32/avr32-gnu-toolchain/bin/../lib/gcc/avr32/4.4.7/../../../../avr32/lib/ucr2\libc.a(lib_a-vfprintf.o) (_localeconv_r)
d:/program files (x86)/atmel/studio/7.0/toolchain/avr32/avr32-gnu-toolchain/bin/../lib/gcc/avr32/4.4.7/../../../../avr32/lib/ucr2\libc.a(lib_a-makebuf.o)
                              d:/program files (x86)/atmel/studio/7.0/toolchain/avr32/avr32-gnu-toolchain/bin/../lib/gcc/avr32/4.4.7/../../../../avr32/lib/ucr2\libc.a(lib_a-wsetup.o) (__smakebuf_r)
d:/program files (x86)/atmel/studio/7.0/toolchain/avr32/avr32-gnu-toolchain/bin/../lib/gcc/avr32/4.4.7/../../../../avr32/lib/ucr2\libc.a(lib_a-memchr.o)
                              d:/program files (x86)/atmel/studio/7.0/toolchain/avr32/avr32-gnu-toolchain/bin/../lib/gcc/avr32/4.4.7/../../../../avr32/lib/ucr2\libc.a(lib_a-vfprintf.o) (memchr)
d:/program files (x86)/atmel/studio/7.0/toolchain/avr32/avr32-gnu-toolchain/bin/../lib/gcc/avr32/4.4.7/../../../../avr32/lib/ucr2\libc.a(lib_a-memmove.o)
                              d:/program files (x86)/atmel/studio/7.0/toolchain/avr32/avr32-gnu-toolchain/bin/../lib/gcc/avr32/4.4.7/../../../../avr32/lib/ucr2\libc.a(lib_a-reallocr.o) (memmove)
d:/program files (x86)/atmel/studio/7.0/toolchain/avr32/avr32-gnu-toolchain/bin/../lib/gcc/avr32/4.4.7/../../../../avr32/lib/ucr2\libc.a(lib_a-mprec.o)
                              d:/program files (x86)/atmel/studio/7.0/toolchain/avr32/avr32-gnu-toolchain/bin/../lib/gcc/avr32/4.4.7/../../../../avr32/lib/ucr2\libc.a(lib_a-dtoa.o) (__hi0bits)
d:/program files (x86)/atmel/studio/7.0/toolchain/avr32/avr32-gnu-toolchain/bin/../lib/gcc/avr32/4.4.7/../../../../avr32/lib/ucr2\libc.a(lib_a-reent.o)
                              d:/program files (x86)/atmel/studio/7.0/toolchain/avr32/avr32-gnu-toolchain/bin/../lib/gcc/avr32/4.4.7/../../../../avr32/lib/ucr2\libc.a(lib_a-sbrkr.o) (errno)
d:/program files (x86)/atmel/studio/7.0/toolchain/avr32/avr32-gnu-toolchain/bin/../lib/gcc/avr32/4.4.7/../../../../avr32/lib/ucr2\libc.a(lib_a-s_isinfd.o)
                              d:/program files (x86)/atmel/studio/7.0/toolchain/avr32/avr32-gnu-toolchain/bin/../lib/gcc/avr32/4.4.7/../../../../avr32/lib/ucr2\libc.a(lib_a-vfprintf.o) (__isinfd)
d:/program files (x86)/atmel/studio/7.0/toolchain/avr32/avr32-gnu-toolchain/bin/../lib/gcc/avr32/4.4.7/../../../../avr32/lib/ucr2\libc.a(lib_a-s_isnand.o)
                              d:/program files (x86)/atmel/studio/7.0/toolchain/avr32/avr32-gnu-toolchain/bin/../lib/gcc/avr32/4.4.7/../../../../avr32/lib/ucr2\libc.a(lib_a-vfprintf.o) (__isnand)
d:/program files (x86)/atmel/studio/7.0/toolchain/avr32/avr32-gnu-toolchain/bin/../lib/gcc/avr32/4.4.7/../../../../avr32/lib/ucr2\libc.a(lib_a-stdio.o)
                              d:/program files (x86)/atmel/studio/7.0/toolchain/avr32/avr32-gnu-toolchain/bin/../lib/gcc/avr32/4.4.7/../../../../avr32/lib/ucr2\libc.a(lib_a-findfp.o) (__sclose)
d:/program files (x86)/atmel/studio/7.0/toolchain/avr32/avr32-gnu-toolchain/bin/../lib/gcc/avr32/4.4.7/../../../../avr32/lib/ucr2\libc.a(lib_a-strcmp.o)
                              d:/program files (x86)/atmel/studio/7.0/toolchain/avr32/avr32-gnu-toolchain/bin/../lib/gcc/avr32/4.4.7/../../../../avr32/lib/ucr2\libc.a(lib_a-locale.o) (strcmp)
d:/program files (x86)/atmel/studio/7.0/toolchain/avr32/avr32-gnu-toolchain/bin/../lib/gcc/avr32/4.4.7/../../../../avr32/lib/ucr2\libc.a(lib_a-writer.o)
                              d:/program files (x86)/atmel/studio/7.0/toolchain/avr32/avr32-gnu-toolchain/bin/../lib/gcc/avr32/4.4.7/../../../../avr32/lib/ucr2\libc.a(lib_a-stdio.o) (_write_r)
d:/program files (x86)/atmel/studio/7.0/toolchain/avr32/avr32-gnu-toolchain/bin/../lib/gcc/avr32/4.4.7/../../../../avr32/lib/ucr2\libc.a(lib_a-callocr.o)
                              d:/program files (x86)/atmel/studio/7.0/toolchain/avr32/avr32-gnu-toolchain/bin/../lib/gcc/avr32/4.4.7/../../../../avr32/lib/ucr2\libc.a(lib_a-mprec.o) (_calloc_r)
d:/program files (x86)/atmel/studio/7.0/toolchain/avr32/avr32-gnu-toolchain/bin/../lib/gcc/avr32/4.4.7/../../../../avr32/lib/ucr2\libc.a(lib_a-closer.o)
                              d:/program files (x86)/atmel/studio/7.0/toolchain/avr32/avr32-gnu-toolchain/bin/../lib/gcc/avr32/4.4.7/../../../../avr32/lib/ucr2\libc.a(lib_a-stdio.o) (_close_r)
d:/program files (x86)/atmel/studio/7.0/toolchain/avr32/avr32-gnu-toolchain/bin/../lib/gcc/avr32/4.4.7/../../../../avr32/lib/ucr2\libc.a(lib_a-fclose.o)
                              d:/program files (x86)/atmel/studio/7.0/toolchain/avr32/avr32-gnu-toolchain/bin/../lib/gcc/avr32/4.4.7/../../../../avr32/lib/ucr2\libc.a(lib_a-findfp.o) (fclose)
d:/program files (x86)/atmel/studio/7.0/toolchain/avr32/avr32-gnu-toolchain/bin/../lib/gcc/avr32/4.4.7/../../../../avr32/lib/ucr2\libc.a(lib_a-fstatr.o)
                              d:/program files (x86)/atmel/studio/7.0/toolchain/avr32/avr32-gnu-toolchain/bin/../lib/gcc/avr32/4.4.7/../../../../avr32/lib/ucr2\libc.a(lib_a-makebuf.o) (_fstat_r)
d:/program files (x86)/atmel/studio/7.0/toolchain/avr32/avr32-gnu-toolchain/bin/../lib/gcc/avr32/4.4.7/../../../../avr32/lib/ucr2\libc.a(lib_a-lseekr.o)
                              d:/program files (x86)/atmel/studio/7.0/toolchain/avr32/avr32-gnu-toolchain/bin/../lib/gcc/avr32/4.4.7/../../../../avr32/lib/ucr2\libc.a(lib_a-stdio.o) (_lseek_r)
d:/program files (x86)/atmel/studio/7.0/toolchain/avr32/avr32-gnu-toolchain/bin/../lib/gcc/avr32/4.4.7/../../../../avr32/lib/ucr2\libc.a(lib_a-readr.o)
                              d:/program files (x86)/atmel/studio/7.0/toolchain/avr32/avr32-gnu-toolchain/bin/../lib/gcc/avr32/4.4.7/../../../../avr32/lib/ucr2\libc.a(lib_a-stdio.o) (_read_r)
d:/program files (x86)/atmel/studio/7.0/toolchain/avr32/avr32-gnu-toolchain/bin/../lib/gcc/avr32/4.4.7/ucr2\libgcc.a(_avr32_f64_mul.o)
                              d:/program files (x86)/atmel/studio/7.0/toolchain/avr32/avr32-gnu-toolchain/bin/../lib/gcc/avr32/4.4.7/../../../../avr32/lib/ucr2\libc.a(lib_a-dtoa.o) (__avr32_f64_mul)
d:/program files (x86)/atmel/studio/7.0/toolchain/avr32/avr32-gnu-toolchain/bin/../lib/gcc/avr32/4.4.7/ucr2\libgcc.a(_avr32_f64_addsub.o)
                              d:/program files (x86)/atmel/studio/7.0/toolchain/avr32/avr32-gnu-toolchain/bin/../lib/gcc/avr32/4.4.7/../../../../avr32/lib/ucr2\libc.a(lib_a-dtoa.o) (__avr32_f64_sub)
d:/program files (x86)/atmel/studio/7.0/toolchain/avr32/avr32-gnu-toolchain/bin/../lib/gcc/avr32/4.4.7/ucr2\libgcc.a(_avr32_f64_to_s32.o)
                              d:/program files (x86)/atmel/studio/7.0/toolchain/avr32/avr32-gnu-toolchain/bin/../lib/gcc/avr32/4.4.7/../../../../avr32/lib/ucr2\libc.a(lib_a-dtoa.o) (__avr32_f64_to_s32)
d:/program files (x86)/atmel/studio/7.0/toolchain/avr32/avr32-gnu-toolchain/bin/../lib/gcc/avr32/4.4.7/ucr2\libgcc.a(_avr32_s32_to_f64.o)
                              d:/program files (x86)/atmel/studio/7.0/toolchain/avr32/avr32-gnu-toolchain/bin/../lib/gcc/avr32/4.4.7/../../../../avr32/lib/ucr2\libc.a(lib_a-dtoa.o) (__avr32_u32_to_f64)
d:/program files (x86)/atmel/studio/7.0/toolchain/avr32/avr32-gnu-toolchain/bin/../lib/gcc/avr32/4.4.7/ucr2\libgcc.a(_avr32_f64_cmp_eq.o)
                              d:/program files (x86)/atmel/studio/7.0/toolchain/avr32/avr32-gnu-toolchain/bin/../lib/gcc/avr32/4.4.7/../../../../avr32/lib/ucr2\libc.a(lib_a-vfprintf.o) (__avr32_f64_cmp_eq)
d:/program files (x86)/atmel/studio/7.0/toolchain/avr32/avr32-gnu-toolchain/bin/../lib/gcc/avr32/4.4.7/ucr2\libgcc.a(_avr32_f64_cmp_ge.o)
                              d:/program files (x86)/atmel/studio/7.0/toolchain/avr32/avr32-gnu-toolchain/bin/../lib/gcc/avr32/4.4.7/../../../../avr32/lib/ucr2\libc.a(lib_a-dtoa.o) (__avr32_f64_cmp_ge)
d:/program files (x86)/atmel/studio/7.0/toolchain/avr32/avr32-gnu-toolchain/bin/../lib/gcc/avr32/4.4.7/ucr2\libgcc.a(_avr32_f64_cmp_lt.o)
                              d:/program files (x86)/atmel/studio/7.0/toolchain/avr32/avr32-gnu-toolchain/bin/../lib/gcc/avr32/4.4.7/../../../../avr32/lib/ucr2\libc.a(lib_a-vfprintf.o) (__avr32_f64_cmp_lt)
d:/program files (x86)/atmel/studio/7.0/toolchain/avr32/avr32-gnu-toolchain/bin/../lib/gcc/avr32/4.4.7/ucr2\libgcc.a(_avr32_f64_div.o)
                              d:/program files (x86)/atmel/studio/7.0/toolchain/avr32/avr32-gnu-toolchain/bin/../lib/gcc/avr32/4.4.7/../../../../avr32/lib/ucr2\libc.a(lib_a-dtoa.o) (__avr32_f64_div)
d:/program files (x86)/atmel/studio/7.0/toolchain/avr32/avr32-gnu-toolchain/bin/../lib/gcc/avr32/4.4.7/ucr2\libgcc.a(_udivdi3.o)
                              d:/program files (x86)/atmel/studio/7.0/toolchain/avr32/avr32-gnu-toolchain/bin/../lib/gcc/avr32/4.4.7/../../../../avr32/lib/ucr2\libc.a(lib_a-vfprintf.o) (__avr32_udiv64)
d:/program files (x86)/atmel/studio/7.0/toolchain/avr32/avr32-gnu-toolchain/bin/../lib/gcc/avr32/4.4.7/ucr2\libgcc.a(_umoddi3.o)
                              d:/program files (x86)/atmel/studio/7.0/toolchain/avr32/avr32-gnu-toolchain/bin/../lib/gcc/avr32/4.4.7/../../../../avr32/lib/ucr2\libc.a(lib_a-vfprintf.o) (__avr32_umod64)

Allocating common symbols
Common symbol       size              file

intDuration         0x4               Srouce/Application/radio/ssc.o
BufferIndex         0x1               Srouce/Application/radio/ssc.o
payload_store       0x1400            Srouce/Application/radio/physical.o
Soft_Decision_Value
                    0x8               Srouce/Application/radio/ambe.o
errno               0x4               d:/program files (x86)/atmel/studio/7.0/toolchain/avr32/avr32-gnu-toolchain/bin/../lib/gcc/avr32/4.4.7/../../../../avr32/lib/ucr2\libc.a(lib_a-reent.o)
bunchofrandomstatusflags
                    0x4               Srouce/Application/app/app.o
AMBEBurst_rawdata   0x8               Srouce/Application/radio/ambe.o
intStartCount       0x4               Srouce/Application/radio/ssc.o
Radio_Internal_Data
                    0x4               Srouce/Application/radio/ambe.o
AMBE_DecryptionKey  0x8               Srouce/Application/radio/ambe.o
app_list            0x4               Srouce/Application/radio/xcmp.o
logQueue            0x4               Srouce/Log/log.o
xnl_store           0x1e00            Srouce/Application/radio/physical.o
SendAMBEBurst_EncryptionPackage
                    0xf0              Srouce/Application/radio/ambe.o
RxBuffer            0x20              Srouce/Application/radio/ssc.o
TxBuffer            0x20              Srouce/Application/radio/ssc.o
VBSP_data           0x4               Srouce/Application/radio/ambe.o
stdio_usart_base    0x4               Srouce/ASF/thirdparty/freertos/freertos-7.0.0/source/portable/gcc/avr32_uc3/write.o
spi                 0x4               Srouce/Application/fs/avr_spi_sd.o

Discarded input sections

 .text          0x00000000        0x0 Srouce/Application/app/app.o
 .data          0x00000000        0x0 Srouce/Application/app/app.o
 .bss           0x00000000        0x0 Srouce/Application/app/app.o
 .bss.Terminator_Flag
                0x00000000        0x1 Srouce/Application/app/app.o
 .text          0x00000000        0x0 Srouce/Application/fs/avr_spi_sd.o
 .data          0x00000000        0x0 Srouce/Application/fs/avr_spi_sd.o
 .bss           0x00000000        0x0 Srouce/Application/fs/avr_spi_sd.o
 .debug_abbrev  0x00000000      0x29b Srouce/Application/fs/avr_spi_sd.o
 .debug_info    0x00000000     0x1675 Srouce/Application/fs/avr_spi_sd.o
 .debug_line    0x00000000      0x4dd Srouce/Application/fs/avr_spi_sd.o
 .text.SD_SPI_SetSpeed
                0x00000000       0x24 Srouce/Application/fs/avr_spi_sd.o
 .text.SD_SPI_SetSpeedHi
                0x00000000       0x10 Srouce/Application/fs/avr_spi_sd.o
 .text.SD_SPI_SetSpeedLow
                0x00000000       0x10 Srouce/Application/fs/avr_spi_sd.o
 .text.SD_LowLevel_Init
                0x00000000       0x78 Srouce/Application/fs/avr_spi_sd.o
 .text.SD_LowLevel_DeInit
                0x00000000       0x84 Srouce/Application/fs/avr_spi_sd.o
 .text.SD_DeInit
                0x00000000        0xc Srouce/Application/fs/avr_spi_sd.o
 .text.SD_ReadByte
                0x00000000       0x44 Srouce/Application/fs/avr_spi_sd.o
 .text.SD_GetResponse
                0x00000000       0x34 Srouce/Application/fs/avr_spi_sd.o
 .text.SD_GetDataResponse
                0x00000000       0x40 Srouce/Application/fs/avr_spi_sd.o
 .text.SD_WriteByte
                0x00000000       0x4c Srouce/Application/fs/avr_spi_sd.o
 .text.SD_WaitReady
                0x00000000       0x38 Srouce/Application/fs/avr_spi_sd.o
 .text.SD_SendCmd
                0x00000000       0x3c Srouce/Application/fs/avr_spi_sd.o
 .text.SD_GoIdleState
                0x00000000      0x1c8 Srouce/Application/fs/avr_spi_sd.o
 .text.SD_GetStatus
                0x00000000       0x50 Srouce/Application/fs/avr_spi_sd.o
 .text.SD_GetCIDRegister
                0x00000000      0x130 Srouce/Application/fs/avr_spi_sd.o
 .text.SD_WriteMultiBlocks
                0x00000000       0xc8 Srouce/Application/fs/avr_spi_sd.o
 .text.SD_WriteBlock
                0x00000000       0xa8 Srouce/Application/fs/avr_spi_sd.o
 .text.SD_ReadMultiBlocks
                0x00000000       0xc4 Srouce/Application/fs/avr_spi_sd.o
 .text.SD_ReadBlock
                0x00000000       0x90 Srouce/Application/fs/avr_spi_sd.o
 .text.SD_Init  0x00000000       0x60 Srouce/Application/fs/avr_spi_sd.o
 .text.SD_GetCSDRegister
                0x00000000      0x2c8 Srouce/Application/fs/avr_spi_sd.o
 .text.SD_GetCardInfo
                0x00000000       0x60 Srouce/Application/fs/avr_spi_sd.o
 .text.SD_GetSectorCount
                0x00000000       0x20 Srouce/Application/fs/avr_spi_sd.o
 .bss.temp.11320
                0x00000000        0x4 Srouce/Application/fs/avr_spi_sd.o
 .bss.i.10739   0x00000000        0x4 Srouce/Application/fs/avr_spi_sd.o
 .bss.SD_flash_failure
                0x00000000        0x1 Srouce/Application/fs/avr_spi_sd.o
 .rodata.C.71.11277
                0x00000000       0x10 Srouce/Application/fs/avr_spi_sd.o
 .rodata.str1.4
                0x00000000       0x14 Srouce/Application/fs/avr_spi_sd.o
 .bss.times.10890
                0x00000000        0x4 Srouce/Application/fs/avr_spi_sd.o
 .bss.flag_SDHC
                0x00000000        0x1 Srouce/Application/fs/avr_spi_sd.o
 .rodata.C.72.11287
                0x00000000       0x10 Srouce/Application/fs/avr_spi_sd.o
 .rodata.SD_SPI_GPIO_MAP.11285
                0x00000000       0x20 Srouce/Application/fs/avr_spi_sd.o
 .rodata.SD_SPI_GPIO_MAP.11274
                0x00000000       0x20 Srouce/Application/fs/avr_spi_sd.o
 .debug_frame   0x00000000      0x314 Srouce/Application/fs/avr_spi_sd.o
 .debug_loc     0x00000000      0x981 Srouce/Application/fs/avr_spi_sd.o
 .debug_pubnames
                0x00000000      0x1ec Srouce/Application/fs/avr_spi_sd.o
 .debug_aranges
                0x00000000       0xd0 Srouce/Application/fs/avr_spi_sd.o
 .debug_ranges  0x00000000       0xc8 Srouce/Application/fs/avr_spi_sd.o
 .debug_str     0x00000000      0x9a3 Srouce/Application/fs/avr_spi_sd.o
 .comment       0x00000000       0x31 Srouce/Application/fs/avr_spi_sd.o
 COMMON         0x00000000        0x4 Srouce/Application/fs/avr_spi_sd.o
 .text          0x00000000        0x0 Srouce/Application/fs/mal_sd.o
 .data          0x00000000        0x0 Srouce/Application/fs/mal_sd.o
 .bss           0x00000000        0x0 Srouce/Application/fs/mal_sd.o
 .debug_abbrev  0x00000000      0x13e Srouce/Application/fs/mal_sd.o
 .debug_info    0x00000000      0x694 Srouce/Application/fs/mal_sd.o
 .debug_line    0x00000000      0x16a Srouce/Application/fs/mal_sd.o
 .text.MAL_WriteDisk
                0x00000000       0x30 Srouce/Application/fs/mal_sd.o
 .text.MAL_WriteData
                0x00000000       0x6c Srouce/Application/fs/mal_sd.o
 .text.MAL_ReadDisk
                0x00000000       0x30 Srouce/Application/fs/mal_sd.o
 .text.MAL_ReadData
                0x00000000       0xa4 Srouce/Application/fs/mal_sd.o
 .text.MAL_InitConfig
                0x00000000       0x24 Srouce/Application/fs/mal_sd.o
 .debug_frame   0x00000000       0x98 Srouce/Application/fs/mal_sd.o
 .debug_loc     0x00000000      0x37e Srouce/Application/fs/mal_sd.o
 .debug_pubnames
                0x00000000       0x6b Srouce/Application/fs/mal_sd.o
 .debug_aranges
                0x00000000       0x40 Srouce/Application/fs/mal_sd.o
 .debug_ranges  0x00000000       0x38 Srouce/Application/fs/mal_sd.o
 .debug_str     0x00000000      0x63a Srouce/Application/fs/mal_sd.o
 .comment       0x00000000       0x31 Srouce/Application/fs/mal_sd.o
 .text          0x00000000        0x0 Srouce/Application/fs/fs.o
 .data          0x00000000        0x0 Srouce/Application/fs/fs.o
 .bss           0x00000000        0x0 Srouce/Application/fs/fs.o
 .debug_abbrev  0x00000000      0x249 Srouce/Application/fs/fs.o
 .debug_info    0x00000000      0xb2d Srouce/Application/fs/fs.o
 .debug_line    0x00000000      0x32b Srouce/Application/fs/fs.o
 .text.delDir   0x00000000        0x2 Srouce/Application/fs/fs.o
 .text.fs_format
                0x00000000        0x2 Srouce/Application/fs/fs.o
 .text.fs_getVoiceFileLength
                0x00000000       0x14 Srouce/Application/fs/fs.o
 .text.fs_WriteVoiceFile
                0x00000000        0x2 Srouce/Application/fs/fs.o
 .text.fs_openReadVoiceFile
                0x00000000        0x2 Srouce/Application/fs/fs.o
 .text.fs_readVoiceDat
                0x00000000        0x2 Srouce/Application/fs/fs.o
 .text.fs_closeVoiceFile
                0x00000000       0x30 Srouce/Application/fs/fs.o
 .text.fs_saveVoiceInfo
                0x00000000       0x84 Srouce/Application/fs/fs.o
 .text.fl_read  0x00000000       0x88 Srouce/Application/fs/fs.o
 .text.fl_write
                0x00000000       0x88 Srouce/Application/fs/fs.o
 .text.fl_write_func
                0x00000000      0x174 Srouce/Application/fs/fs.o
 .text.fl_read_func
                0x00000000      0x174 Srouce/Application/fs/fs.o
 .text.fl_oper_process
                0x00000000       0xa8 Srouce/Application/fs/fs.o
 .text.disk_init
                0x00000000      0x164 Srouce/Application/fs/fs.o
 .text.fs_init  0x00000000       0x50 Srouce/Application/fs/fs.o
 .bss.path_bk.11438
                0x00000000       0x40 Srouce/Application/fs/fs.o
 .bss.clust     0x00000000        0x4 Srouce/Application/fs/fs.o
 .bss.fs        0x00000000      0x230 Srouce/Application/fs/fs.o
 .data.DiskLabel
                0x00000000        0x8 Srouce/Application/fs/fs.o
 .bss.dirs      0x00000000       0x20 Srouce/Application/fs/fs.o
 .bss.filename.11437
                0x00000000       0x40 Srouce/Application/fs/fs.o
 .rodata.str1.4
                0x00000000       0x74 Srouce/Application/fs/fs.o
 .bss.fl_oper_queue
                0x00000000        0x4 Srouce/Application/fs/fs.o
 .bss.path_bk.11388
                0x00000000       0x40 Srouce/Application/fs/fs.o
 .bss.pfs       0x00000000        0x4 Srouce/Application/fs/fs.o
 .bss.filename.11387
                0x00000000       0x40 Srouce/Application/fs/fs.o
 .bss.isFlOpen  0x00000000        0x1 Srouce/Application/fs/fs.o
 .bss.fl        0x00000000      0x228 Srouce/Application/fs/fs.o
 .bss.res.11593
                0x00000000        0x4 Srouce/Application/fs/fs.o
 .debug_frame   0x00000000      0x208 Srouce/Application/fs/fs.o
 .debug_loc     0x00000000      0x6a9 Srouce/Application/fs/fs.o
 .debug_pubnames
                0x00000000      0x124 Srouce/Application/fs/fs.o
 .debug_aranges
                0x00000000       0x90 Srouce/Application/fs/fs.o
 .debug_ranges  0x00000000       0x88 Srouce/Application/fs/fs.o
 .debug_str     0x00000000      0x5de Srouce/Application/fs/fs.o
 .comment       0x00000000       0x31 Srouce/Application/fs/fs.o
 .text          0x00000000        0x0 Srouce/Application/radio/ambe.o
 .data          0x00000000        0x0 Srouce/Application/radio/ambe.o
 .bss           0x00000000        0x0 Srouce/Application/radio/ambe.o
 .rodata.Public_AMBEkey
                0x00000000        0x8 Srouce/Application/radio/ambe.o
 .text          0x00000000        0x0 Srouce/Application/radio/AMBE_audio.o
 .data          0x00000000        0x0 Srouce/Application/radio/AMBE_audio.o
 .bss           0x00000000        0x0 Srouce/Application/radio/AMBE_audio.o
 .debug_abbrev  0x00000000       0x52 Srouce/Application/radio/AMBE_audio.o
 .debug_info    0x00000000       0x58 Srouce/Application/radio/AMBE_audio.o
 .debug_line    0x00000000       0x49 Srouce/Application/radio/AMBE_audio.o
 .rodata.AMBE_AudioData_1
                0x00000000      0x478 Srouce/Application/radio/AMBE_audio.o
 .debug_pubnames
                0x00000000       0x27 Srouce/Application/radio/AMBE_audio.o
 .debug_str     0x00000000       0xb7 Srouce/Application/radio/AMBE_audio.o
 .comment       0x00000000       0x31 Srouce/Application/radio/AMBE_audio.o
 .text          0x00000000        0x0 Srouce/Application/radio/AMBE_audio_2.o
 .data          0x00000000        0x0 Srouce/Application/radio/AMBE_audio_2.o
 .bss           0x00000000        0x0 Srouce/Application/radio/AMBE_audio_2.o
 .text          0x00000000        0x0 Srouce/Application/radio/payload.o
 .data          0x00000000        0x0 Srouce/Application/radio/payload.o
 .bss           0x00000000        0x0 Srouce/Application/radio/payload.o
 .text          0x00000000        0x0 Srouce/Application/radio/audio.o
 .data          0x00000000        0x0 Srouce/Application/radio/audio.o
 .bss           0x00000000        0x0 Srouce/Application/radio/audio.o
 .debug_abbrev  0x00000000       0x52 Srouce/Application/radio/audio.o
 .debug_info    0x00000000       0x58 Srouce/Application/radio/audio.o
 .debug_line    0x00000000       0x44 Srouce/Application/radio/audio.o
 .rodata.AudioData
                0x00000000     0x83b0 Srouce/Application/radio/audio.o
 .debug_pubnames
                0x00000000       0x20 Srouce/Application/radio/audio.o
 .debug_str     0x00000000       0xab Srouce/Application/radio/audio.o
 .comment       0x00000000       0x31 Srouce/Application/radio/audio.o
 .text          0x00000000        0x0 Srouce/Application/radio/physical.o
 .data          0x00000000        0x0 Srouce/Application/radio/physical.o
 .bss           0x00000000        0x0 Srouce/Application/radio/physical.o
 .bss.test_tx   0x00000000        0x4 Srouce/Application/radio/physical.o
 .text          0x00000000        0x0 Srouce/Application/radio/ssc.o
 .data          0x00000000        0x0 Srouce/Application/radio/ssc.o
 .bss           0x00000000        0x0 Srouce/Application/radio/ssc.o
 .text          0x00000000        0x0 Srouce/Application/radio/xcmp.o
 .data          0x00000000        0x0 Srouce/Application/radio/xcmp.o
 .bss           0x00000000        0x0 Srouce/Application/radio/xcmp.o
 .text.xcmp_mute_speaker
                0x00000000       0x30 Srouce/Application/radio/xcmp.o
 .text.xcmp_unmute_speaker
                0x00000000       0x30 Srouce/Application/radio/xcmp.o
 .text.xcmp_function_mic
                0x00000000       0x30 Srouce/Application/radio/xcmp.o
 .text.xcmp_transmit_dekeycontrol
                0x00000000       0x2c Srouce/Application/radio/xcmp.o
 .text.xcmp_transmit_control
                0x00000000       0x2c Srouce/Application/radio/xcmp.o
 .text.xcmp_audio_route_revert
                0x00000000       0x2c Srouce/Application/radio/xcmp.o
 .text.xcmp_audio_route_speaker
                0x00000000       0x3c Srouce/Application/radio/xcmp.o
 .text.xcmp_volume_control
                0x00000000       0x30 Srouce/Application/radio/xcmp.o
 .text.xcmp_exit_enhanced_OB_mode
                0x00000000       0x24 Srouce/Application/radio/xcmp.o
 .text.xcmp_button_config
                0x00000000       0x4c Srouce/Application/radio/xcmp.o
 .text.xcmp_data_session
                0x00000000       0x64 Srouce/Application/radio/xcmp.o
 .text.xcmp_audio_route_mic
                0x00000000       0x3c Srouce/Application/radio/xcmp.o
 .data.DataPayload
                0x00000000       0x14 Srouce/Application/radio/xcmp.o
 .text          0x00000000        0x0 Srouce/Application/radio/xnl.o
 .data          0x00000000        0x0 Srouce/Application/radio/xnl.o
 .bss           0x00000000        0x0 Srouce/Application/radio/xnl.o
 .rodata.authKey
                0x00000000       0x10 Srouce/Application/radio/xnl.o
 .rodata.authDelta
                0x00000000        0x4 Srouce/Application/radio/xnl.o
 .text          0x00000000        0x0 Srouce/Application/rtc/rtc.o
 .data          0x00000000        0x0 Srouce/Application/rtc/rtc.o
 .bss           0x00000000        0x0 Srouce/Application/rtc/rtc.o
 .text.write_a_byte
                0x00000000       0x2c Srouce/Application/rtc/rtc.o
 .text.read_a_byte
                0x00000000       0x3e Srouce/Application/rtc/rtc.o
 .text.rtc_read_time
                0x00000000      0x120 Srouce/Application/rtc/rtc.o
 .text.getTime  0x00000000       0x1c Srouce/Application/rtc/rtc.o
 .text.rtc_set_time
                0x00000000      0x174 Srouce/Application/rtc/rtc.o
 .bss.date_time
                0x00000000        0x8 Srouce/Application/rtc/rtc.o
 .text          0x00000000        0x0 Srouce/Application/timers/timer.o
 .data          0x00000000        0x0 Srouce/Application/timers/timer.o
 .bss           0x00000000        0x0 Srouce/Application/timers/timer.o
 .text          0x00000000        0x0 Srouce/ASF/avr32/drivers/intc/intc.o
 .data          0x00000000        0x0 Srouce/ASF/avr32/drivers/intc/intc.o
 .bss           0x00000000        0x0 Srouce/ASF/avr32/drivers/intc/intc.o
 .text          0x00000000        0x0 Srouce/ASF/avr32/drivers/pm/pm.o
 .data          0x00000000        0x0 Srouce/ASF/avr32/drivers/pm/pm.o
 .bss           0x00000000        0x0 Srouce/ASF/avr32/drivers/pm/pm.o
 .debug_abbrev  0x00000000      0x2cf Srouce/ASF/avr32/drivers/pm/pm.o
 .debug_info    0x00000000     0x1a55 Srouce/ASF/avr32/drivers/pm/pm.o
 .debug_line    0x00000000      0x4fc Srouce/ASF/avr32/drivers/pm/pm.o
 .text.pm_set_osc0_mode
                0x00000000        0xa Srouce/ASF/avr32/drivers/pm/pm.o
 .text.pm_enable_osc0_ext_clock
                0x00000000       0x10 Srouce/ASF/avr32/drivers/pm/pm.o
 .text.pm_enable_osc0_crystal
                0x00000000       0x3c Srouce/ASF/avr32/drivers/pm/pm.o
 .text.pm_disable_clk0
                0x00000000        0x8 Srouce/ASF/avr32/drivers/pm/pm.o
 .text.pm_enable_clk0_no_wait
                0x00000000       0x10 Srouce/ASF/avr32/drivers/pm/pm.o
 .text.pm_wait_for_clk0_ready
                0x00000000        0xa Srouce/ASF/avr32/drivers/pm/pm.o
 .text.pm_enable_clk0
                0x00000000       0x1c Srouce/ASF/avr32/drivers/pm/pm.o
 .text.pm_set_osc1_mode
                0x00000000        0xa Srouce/ASF/avr32/drivers/pm/pm.o
 .text.pm_enable_osc1_ext_clock
                0x00000000       0x10 Srouce/ASF/avr32/drivers/pm/pm.o
 .text.pm_enable_osc1_crystal
                0x00000000       0x3c Srouce/ASF/avr32/drivers/pm/pm.o
 .text.pm_disable_clk1
                0x00000000        0x8 Srouce/ASF/avr32/drivers/pm/pm.o
 .text.pm_enable_clk1_no_wait
                0x00000000       0x10 Srouce/ASF/avr32/drivers/pm/pm.o
 .text.pm_wait_for_clk1_ready
                0x00000000        0xa Srouce/ASF/avr32/drivers/pm/pm.o
 .text.pm_enable_clk1
                0x00000000       0x1c Srouce/ASF/avr32/drivers/pm/pm.o
 .text.pm_set_osc32_mode
                0x00000000        0xa Srouce/ASF/avr32/drivers/pm/pm.o
 .text.pm_enable_osc32_ext_clock
                0x00000000       0x10 Srouce/ASF/avr32/drivers/pm/pm.o
 .text.pm_enable_osc32_crystal
                0x00000000       0x10 Srouce/ASF/avr32/drivers/pm/pm.o
 .text.pm_disable_clk32
                0x00000000        0x8 Srouce/ASF/avr32/drivers/pm/pm.o
 .text.pm_enable_clk32_no_wait
                0x00000000       0x10 Srouce/ASF/avr32/drivers/pm/pm.o
 .text.pm_wait_for_clk32_ready
                0x00000000        0xa Srouce/ASF/avr32/drivers/pm/pm.o
 .text.pm_enable_clk32
                0x00000000       0x1c Srouce/ASF/avr32/drivers/pm/pm.o
 .text.pm_cksel_get
                0x00000000        0x6 Srouce/ASF/avr32/drivers/pm/pm.o
 .text.pm_cksel_set
                0x00000000        0xc Srouce/ASF/avr32/drivers/pm/pm.o
 .text.pm_cksel
                0x00000000       0x46 Srouce/ASF/avr32/drivers/pm/pm.o
 .text.pm_gc_setup
                0x00000000       0x22 Srouce/ASF/avr32/drivers/pm/pm.o
 .text.pm_gc_enable
                0x00000000        0xe Srouce/ASF/avr32/drivers/pm/pm.o
 .text.pm_gc_disable
                0x00000000        0xe Srouce/ASF/avr32/drivers/pm/pm.o
 .text.pm_pll_setup
                0x00000000       0x22 Srouce/ASF/avr32/drivers/pm/pm.o
 .text.pm_pll_set_option
                0x00000000       0x1a Srouce/ASF/avr32/drivers/pm/pm.o
 .text.pm_pll_get_option
                0x00000000        0xc Srouce/ASF/avr32/drivers/pm/pm.o
 .text.pm_pll_enable
                0x00000000        0xe Srouce/ASF/avr32/drivers/pm/pm.o
 .text.pm_pll_disable
                0x00000000        0xe Srouce/ASF/avr32/drivers/pm/pm.o
 .text.pm_wait_for_pll0_locked
                0x00000000        0xa Srouce/ASF/avr32/drivers/pm/pm.o
 .text.pm_wait_for_pll1_locked
                0x00000000        0xa Srouce/ASF/avr32/drivers/pm/pm.o
 .text.pm_get_clock
                0x00000000        0x8 Srouce/ASF/avr32/drivers/pm/pm.o
 .text.pm_switch_to_clock
                0x00000000        0xa Srouce/ASF/avr32/drivers/pm/pm.o
 .text.pm_switch_to_osc0
                0x00000000       0x2c Srouce/ASF/avr32/drivers/pm/pm.o
 .text.pm_bod_enable_irq
                0x00000000        0xa Srouce/ASF/avr32/drivers/pm/pm.o
 .text.pm_bod_clear_irq
                0x00000000        0xa Srouce/ASF/avr32/drivers/pm/pm.o
 .text.pm_bod_get_irq_status
                0x00000000        0x8 Srouce/ASF/avr32/drivers/pm/pm.o
 .text.pm_bod_get_irq_enable_bit
                0x00000000        0x8 Srouce/ASF/avr32/drivers/pm/pm.o
 .text.pm_bod_get_level
                0x00000000        0xa Srouce/ASF/avr32/drivers/pm/pm.o
 .text.pm_read_gplp
                0x00000000        0x8 Srouce/ASF/avr32/drivers/pm/pm.o
 .text.pm_write_gplp
                0x00000000        0x8 Srouce/ASF/avr32/drivers/pm/pm.o
 .text.pm_enable_module
                0x00000000       0x1a Srouce/ASF/avr32/drivers/pm/pm.o
 .text.pm_disable_module
                0x00000000       0x1c Srouce/ASF/avr32/drivers/pm/pm.o
 .text.pm_bod_disable_irq
                0x00000000       0x26 Srouce/ASF/avr32/drivers/pm/pm.o
 .debug_frame   0x00000000      0x390 Srouce/ASF/avr32/drivers/pm/pm.o
 .debug_loc     0x00000000      0x559 Srouce/ASF/avr32/drivers/pm/pm.o
 .debug_pubnames
                0x00000000      0x3ee Srouce/ASF/avr32/drivers/pm/pm.o
 .debug_aranges
                0x00000000      0x190 Srouce/ASF/avr32/drivers/pm/pm.o
 .debug_ranges  0x00000000      0x188 Srouce/ASF/avr32/drivers/pm/pm.o
 .debug_str     0x00000000      0x9c9 Srouce/ASF/avr32/drivers/pm/pm.o
 .comment       0x00000000       0x31 Srouce/ASF/avr32/drivers/pm/pm.o
 .text          0x00000000        0x0 Srouce/ASF/avr32/drivers/pm/pm_conf_clocks.o
 .data          0x00000000        0x0 Srouce/ASF/avr32/drivers/pm/pm_conf_clocks.o
 .bss           0x00000000        0x0 Srouce/ASF/avr32/drivers/pm/pm_conf_clocks.o
 .debug_abbrev  0x00000000      0x183 Srouce/ASF/avr32/drivers/pm/pm_conf_clocks.o
 .debug_info    0x00000000      0xf4c Srouce/ASF/avr32/drivers/pm/pm_conf_clocks.o
 .debug_line    0x00000000      0x12d Srouce/ASF/avr32/drivers/pm/pm_conf_clocks.o
 .text.pm_configure_usb_clock
                0x00000000       0x70 Srouce/ASF/avr32/drivers/pm/pm_conf_clocks.o
 .text.pm_configure_clocks
                0x00000000      0x1d4 Srouce/ASF/avr32/drivers/pm/pm_conf_clocks.o
 .debug_frame   0x00000000       0x7c Srouce/ASF/avr32/drivers/pm/pm_conf_clocks.o
 .debug_loc     0x00000000      0x232 Srouce/ASF/avr32/drivers/pm/pm_conf_clocks.o
 .debug_pubnames
                0x00000000       0x45 Srouce/ASF/avr32/drivers/pm/pm_conf_clocks.o
 .debug_aranges
                0x00000000       0x28 Srouce/ASF/avr32/drivers/pm/pm_conf_clocks.o
 .debug_ranges  0x00000000       0x20 Srouce/ASF/avr32/drivers/pm/pm_conf_clocks.o
 .debug_str     0x00000000      0x558 Srouce/ASF/avr32/drivers/pm/pm_conf_clocks.o
 .comment       0x00000000       0x31 Srouce/ASF/avr32/drivers/pm/pm_conf_clocks.o
 .text          0x00000000        0x0 Srouce/ASF/avr32/drivers/pm/power_clocks_lib.o
 .data          0x00000000        0x0 Srouce/ASF/avr32/drivers/pm/power_clocks_lib.o
 .bss           0x00000000        0x0 Srouce/ASF/avr32/drivers/pm/power_clocks_lib.o
 .debug_abbrev  0x00000000      0x1cb Srouce/ASF/avr32/drivers/pm/power_clocks_lib.o
 .debug_info    0x00000000      0xf85 Srouce/ASF/avr32/drivers/pm/power_clocks_lib.o
 .debug_line    0x00000000      0x139 Srouce/ASF/avr32/drivers/pm/power_clocks_lib.o
 .text.pcl_read_gplp
                0x00000000       0x14 Srouce/ASF/avr32/drivers/pm/power_clocks_lib.o
 .text.pcl_write_gplp
                0x00000000       0x14 Srouce/ASF/avr32/drivers/pm/power_clocks_lib.o
 .text.pcl_configure_usb_clock
                0x00000000        0xc Srouce/ASF/avr32/drivers/pm/power_clocks_lib.o
 .text.pcl_switch_to_osc
                0x00000000       0x1c Srouce/ASF/avr32/drivers/pm/power_clocks_lib.o
 .text.pcl_configure_clocks
                0x00000000        0xc Srouce/ASF/avr32/drivers/pm/power_clocks_lib.o
 .debug_frame   0x00000000       0x88 Srouce/ASF/avr32/drivers/pm/power_clocks_lib.o
 .debug_loc     0x00000000      0x12b Srouce/ASF/avr32/drivers/pm/power_clocks_lib.o
 .debug_pubnames
                0x00000000       0x82 Srouce/ASF/avr32/drivers/pm/power_clocks_lib.o
 .debug_aranges
                0x00000000       0x40 Srouce/ASF/avr32/drivers/pm/power_clocks_lib.o
 .debug_ranges  0x00000000       0x38 Srouce/ASF/avr32/drivers/pm/power_clocks_lib.o
 .debug_str     0x00000000      0x565 Srouce/ASF/avr32/drivers/pm/power_clocks_lib.o
 .comment       0x00000000       0x31 Srouce/ASF/avr32/drivers/pm/power_clocks_lib.o
 .text          0x00000000        0x0 Srouce/ASF/avr32/drivers/spi/spi.o
 .data          0x00000000        0x0 Srouce/ASF/avr32/drivers/spi/spi.o
 .bss           0x00000000        0x0 Srouce/ASF/avr32/drivers/spi/spi.o
 .debug_abbrev  0x00000000      0x2f8 Srouce/ASF/avr32/drivers/spi/spi.o
 .debug_info    0x00000000     0x1059 Srouce/ASF/avr32/drivers/spi/spi.o
 .debug_line    0x00000000      0x24d Srouce/ASF/avr32/drivers/spi/spi.o
 .text.spi_reset
                0x00000000        0x8 Srouce/ASF/avr32/drivers/spi/spi.o
 .text.spi_initSlave
                0x00000000       0x46 Srouce/ASF/avr32/drivers/spi/spi.o
 .text.spi_initTest
                0x00000000       0x10 Srouce/ASF/avr32/drivers/spi/spi.o
 .text.spi_initMaster
                0x00000000       0x38 Srouce/ASF/avr32/drivers/spi/spi.o
 .text.spi_selectionMode
                0x00000000       0x2c Srouce/ASF/avr32/drivers/spi/spi.o
 .text.spi_selectChip
                0x00000000       0x4c Srouce/ASF/avr32/drivers/spi/spi.o
 .text.spi_unselectChip
                0x00000000       0x26 Srouce/ASF/avr32/drivers/spi/spi.o
 .text.spi_setupChipReg
                0x00000000       0xc2 Srouce/ASF/avr32/drivers/spi/spi.o
 .text.spi_enable
                0x00000000        0x6 Srouce/ASF/avr32/drivers/spi/spi.o
 .text.spi_disable
                0x00000000        0x6 Srouce/ASF/avr32/drivers/spi/spi.o
 .text.spi_is_enabled
                0x00000000        0x8 Srouce/ASF/avr32/drivers/spi/spi.o
 .text.spi_writeRegisterEmptyCheck
                0x00000000        0x8 Srouce/ASF/avr32/drivers/spi/spi.o
 .text.spi_write
                0x00000000       0x1c Srouce/ASF/avr32/drivers/spi/spi.o
 .text.spi_variableSlaveWrite
                0x00000000       0x40 Srouce/ASF/avr32/drivers/spi/spi.o
 .text.spi_writeEndCheck
                0x00000000        0x8 Srouce/ASF/avr32/drivers/spi/spi.o
 .text.spi_readRegisterFullCheck
                0x00000000        0x8 Srouce/ASF/avr32/drivers/spi/spi.o
 .text.spi_read
                0x00000000       0x20 Srouce/ASF/avr32/drivers/spi/spi.o
 .text.spi_getStatus
                0x00000000       0x2c Srouce/ASF/avr32/drivers/spi/spi.o
 .debug_frame   0x00000000      0x14c Srouce/ASF/avr32/drivers/spi/spi.o
 .debug_loc     0x00000000      0x366 Srouce/ASF/avr32/drivers/spi/spi.o
 .debug_pubnames
                0x00000000      0x177 Srouce/ASF/avr32/drivers/spi/spi.o
 .debug_aranges
                0x00000000       0xa8 Srouce/ASF/avr32/drivers/spi/spi.o
 .debug_ranges  0x00000000       0xa0 Srouce/ASF/avr32/drivers/spi/spi.o
 .debug_str     0x00000000      0x523 Srouce/ASF/avr32/drivers/spi/spi.o
 .comment       0x00000000       0x31 Srouce/ASF/avr32/drivers/spi/spi.o
 .text          0x00000000        0x0 Srouce/ASF/avr32/drivers/tc/tc.o
 .data          0x00000000        0x0 Srouce/ASF/avr32/drivers/tc/tc.o
 .bss           0x00000000        0x0 Srouce/ASF/avr32/drivers/tc/tc.o
 .text.tc_get_interrupt_settings
                0x00000000       0x12 Srouce/ASF/avr32/drivers/tc/tc.o
 .text.tc_select_external_clock
                0x00000000       0x2e Srouce/ASF/avr32/drivers/tc/tc.o
 .text.tc_init_capture
                0x00000000       0x58 Srouce/ASF/avr32/drivers/tc/tc.o
 .text.tc_stop  0x00000000       0x12 Srouce/ASF/avr32/drivers/tc/tc.o
 .text.tc_software_trigger
                0x00000000       0x12 Srouce/ASF/avr32/drivers/tc/tc.o
 .text.tc_sync_trigger
                0x00000000        0x8 Srouce/ASF/avr32/drivers/tc/tc.o
 .text.tc_sync_start
                0x00000000       0x12 Srouce/ASF/avr32/drivers/tc/tc.o
 .text.tc_read_tc
                0x00000000       0x16 Srouce/ASF/avr32/drivers/tc/tc.o
 .text.tc_read_ra
                0x00000000       0x16 Srouce/ASF/avr32/drivers/tc/tc.o
 .text.tc_read_rb
                0x00000000       0x16 Srouce/ASF/avr32/drivers/tc/tc.o
 .text.tc_read_rc
                0x00000000       0x16 Srouce/ASF/avr32/drivers/tc/tc.o
 .text.tc_write_ra
                0x00000000       0x34 Srouce/ASF/avr32/drivers/tc/tc.o
 .text.tc_write_rb
                0x00000000       0x34 Srouce/ASF/avr32/drivers/tc/tc.o
 .text          0x00000000        0x0 Srouce/ASF/avr32/drivers/twi/twi.o
 .data          0x00000000        0x0 Srouce/ASF/avr32/drivers/twi/twi.o
 .bss           0x00000000        0x0 Srouce/ASF/avr32/drivers/twi/twi.o
 .text.twi_slave_interrupt_handler
                0x00000000       0xd4 Srouce/ASF/avr32/drivers/twi/twi.o
 .text.twi_mk_addr
                0x00000000       0x22 Srouce/ASF/avr32/drivers/twi/twi.o
 .text.twi_master_write_ex
                0x00000000       0x94 Srouce/ASF/avr32/drivers/twi/twi.o
 .text.twi_is_busy
                0x00000000        0xc Srouce/ASF/avr32/drivers/twi/twi.o
 .text.twi_master_write
                0x00000000       0xb0 Srouce/ASF/avr32/drivers/twi/twi.o
 .text.twi_probe
                0x00000000       0x28 Srouce/ASF/avr32/drivers/twi/twi.o
 .text.twi_master_read
                0x00000000       0xb8 Srouce/ASF/avr32/drivers/twi/twi.o
 .text.twi_disable_interrupt
                0x00000000       0x16 Srouce/ASF/avr32/drivers/twi/twi.o
 .text.twi_slave_init
                0x00000000       0x80 Srouce/ASF/avr32/drivers/twi/twi.o
 .bss.twi_slave_fct
                0x00000000        0xc Srouce/ASF/avr32/drivers/twi/twi.o
 .text          0x00000000        0x0 Srouce/ASF/avr32/drivers/usart/usart.o
 .data          0x00000000        0x0 Srouce/ASF/avr32/drivers/usart/usart.o
 .bss           0x00000000        0x0 Srouce/ASF/avr32/drivers/usart/usart.o
 .text.usart_set_sync_master_baudrate
                0x00000000       0x28 Srouce/ASF/avr32/drivers/usart/usart.o
 .text.usart_spi_selectChip
                0x00000000        0x8 Srouce/ASF/avr32/drivers/usart/usart.o
 .text.usart_spi_unselectChip
                0x00000000       0x1e Srouce/ASF/avr32/drivers/usart/usart.o
 .text.usart_send_address
                0x00000000       0x34 Srouce/ASF/avr32/drivers/usart/usart.o
 .text.usart_get_echo_line
                0x00000000       0x50 Srouce/ASF/avr32/drivers/usart/usart.o
 .text.usart_init_spi_slave
                0x00000000       0x94 Srouce/ASF/avr32/drivers/usart/usart.o
 .text.usart_init_spi_master
                0x00000000       0xb0 Srouce/ASF/avr32/drivers/usart/usart.o
 .text.usart_init_lin_slave
                0x00000000       0x38 Srouce/ASF/avr32/drivers/usart/usart.o
 .text.usart_init_lin_master
                0x00000000       0x38 Srouce/ASF/avr32/drivers/usart/usart.o
 .text.usart_init_iso7816
                0x00000000       0xa4 Srouce/ASF/avr32/drivers/usart/usart.o
 .text.usart_init_sync_slave
                0x00000000       0xc8 Srouce/ASF/avr32/drivers/usart/usart.o
 .text.usart_init_sync_master
                0x00000000       0xdc Srouce/ASF/avr32/drivers/usart/usart.o
 .text.usart_init_rs232_tx_only
                0x00000000       0xd4 Srouce/ASF/avr32/drivers/usart/usart.o
 .text.usart_init_IrDA
                0x00000000       0x34 Srouce/ASF/avr32/drivers/usart/usart.o
 .text.usart_init_rs485
                0x00000000       0x24 Srouce/ASF/avr32/drivers/usart/usart.o
 .text.usart_init_modem
                0x00000000       0x24 Srouce/ASF/avr32/drivers/usart/usart.o
 .text.usart_init_hw_handshaking
                0x00000000       0x24 Srouce/ASF/avr32/drivers/usart/usart.o
 .rodata.str1.4
                0x00000000        0xc Srouce/ASF/avr32/drivers/usart/usart.o
 .text          0x00000000        0x0 Srouce/ASF/thirdparty/ff11a/diskio.o
 .data          0x00000000        0x0 Srouce/ASF/thirdparty/ff11a/diskio.o
 .bss           0x00000000        0x0 Srouce/ASF/thirdparty/ff11a/diskio.o
 .debug_abbrev  0x00000000      0x13d Srouce/ASF/thirdparty/ff11a/diskio.o
 .debug_info    0x00000000      0x36d Srouce/ASF/thirdparty/ff11a/diskio.o
 .debug_line    0x00000000      0x129 Srouce/ASF/thirdparty/ff11a/diskio.o
 .text.disk_status
                0x00000000        0x2 Srouce/ASF/thirdparty/ff11a/diskio.o
 .text.disk_initialize
                0x00000000        0x2 Srouce/ASF/thirdparty/ff11a/diskio.o
 .text.get_fattime
                0x00000000       0x3c Srouce/ASF/thirdparty/ff11a/diskio.o
 .text.disk_ioctl
                0x00000000       0x50 Srouce/ASF/thirdparty/ff11a/diskio.o
 .text.disk_write
                0x00000000       0x1c Srouce/ASF/thirdparty/ff11a/diskio.o
 .text.disk_read
                0x00000000       0x1c Srouce/ASF/thirdparty/ff11a/diskio.o
 .debug_frame   0x00000000       0x94 Srouce/ASF/thirdparty/ff11a/diskio.o
 .debug_loc     0x00000000      0x267 Srouce/ASF/thirdparty/ff11a/diskio.o
 .debug_pubnames
                0x00000000       0x72 Srouce/ASF/thirdparty/ff11a/diskio.o
 .debug_aranges
                0x00000000       0x48 Srouce/ASF/thirdparty/ff11a/diskio.o
 .debug_ranges  0x00000000       0x40 Srouce/ASF/thirdparty/ff11a/diskio.o
 .debug_str     0x00000000      0x2c4 Srouce/ASF/thirdparty/ff11a/diskio.o
 .comment       0x00000000       0x31 Srouce/ASF/thirdparty/ff11a/diskio.o
 .text          0x00000000        0x0 Srouce/ASF/thirdparty/ff11a/ff.o
 .data          0x00000000        0x0 Srouce/ASF/thirdparty/ff11a/ff.o
 .bss           0x00000000        0x0 Srouce/ASF/thirdparty/ff11a/ff.o
 .debug_abbrev  0x00000000      0x2a4 Srouce/ASF/thirdparty/ff11a/ff.o
 .debug_info    0x00000000     0x22df Srouce/ASF/thirdparty/ff11a/ff.o
 .debug_line    0x00000000      0xaeb Srouce/ASF/thirdparty/ff11a/ff.o
 .text.mem_cpy  0x00000000       0x16 Srouce/ASF/thirdparty/ff11a/ff.o
 .text.mem_set  0x00000000        0xc Srouce/ASF/thirdparty/ff11a/ff.o
 .text.chk_chr  0x00000000       0x1a Srouce/ASF/thirdparty/ff11a/ff.o
 .text.clust2sect
                0x00000000       0x18 Srouce/ASF/thirdparty/ff11a/ff.o
 .text.clmt_clust
                0x00000000       0x3e Srouce/ASF/thirdparty/ff11a/ff.o
 .text.ld_clust
                0x00000000       0x28 Srouce/ASF/thirdparty/ff11a/ff.o
 .text.st_clust
                0x00000000       0x1a Srouce/ASF/thirdparty/ff11a/ff.o
 .text.get_fileinfo
                0x00000000       0x86 Srouce/ASF/thirdparty/ff11a/ff.o
 .text.get_achar
                0x00000000       0x5c Srouce/ASF/thirdparty/ff11a/ff.o
 .text.pattern_matching
                0x00000000       0xf4 Srouce/ASF/thirdparty/ff11a/ff.o
 .text.get_ldnumber
                0x00000000       0xbc Srouce/ASF/thirdparty/ff11a/ff.o
 .text.sync_window
                0x00000000       0x64 Srouce/ASF/thirdparty/ff11a/ff.o
 .text.sync_fs  0x00000000       0xd8 Srouce/ASF/thirdparty/ff11a/ff.o
 .text.f_mkfs   0x00000000      0x688 Srouce/ASF/thirdparty/ff11a/ff.o
 .text.validate
                0x00000000       0x34 Srouce/ASF/thirdparty/ff11a/ff.o
 .text.f_closedir
                0x00000000       0x1c Srouce/ASF/thirdparty/ff11a/ff.o
 .text.move_window
                0x00000000       0x40 Srouce/ASF/thirdparty/ff11a/ff.o
 .text.check_fs
                0x00000000       0x9c Srouce/ASF/thirdparty/ff11a/ff.o
 .text.find_volume
                0x00000000      0x3a4 Srouce/ASF/thirdparty/ff11a/ff.o
 .text.f_mount  0x00000000       0x84 Srouce/ASF/thirdparty/ff11a/ff.o
 .text.f_sync   0x00000000       0xc8 Srouce/ASF/thirdparty/ff11a/ff.o
 .text.f_close  0x00000000       0x28 Srouce/ASF/thirdparty/ff11a/ff.o
 .text.put_fat  0x00000000      0x134 Srouce/ASF/thirdparty/ff11a/ff.o
 .text.get_fat  0x00000000       0xe4 Srouce/ASF/thirdparty/ff11a/ff.o
 .text.dir_sdi  0x00000000       0xb4 Srouce/ASF/thirdparty/ff11a/ff.o
 .text.create_chain
                0x00000000       0xd0 Srouce/ASF/thirdparty/ff11a/ff.o
 .text.dir_next
                0x00000000      0x110 Srouce/ASF/thirdparty/ff11a/ff.o
 .text.remove_chain
                0x00000000       0x60 Srouce/ASF/thirdparty/ff11a/ff.o
 .text.f_truncate
                0x00000000       0xd8 Srouce/ASF/thirdparty/ff11a/ff.o
 .text.dir_remove
                0x00000000       0x44 Srouce/ASF/thirdparty/ff11a/ff.o
 .text.dir_read
                0x00000000       0x7c Srouce/ASF/thirdparty/ff11a/ff.o
 .text.f_readdir
                0x00000000       0x70 Srouce/ASF/thirdparty/ff11a/ff.o
 .text.f_findnext
                0x00000000       0x50 Srouce/ASF/thirdparty/ff11a/ff.o
 .text.f_getlabel
                0x00000000       0xe4 Srouce/ASF/thirdparty/ff11a/ff.o
 .text.dir_alloc
                0x00000000       0x68 Srouce/ASF/thirdparty/ff11a/ff.o
 .text.f_setlabel
                0x00000000      0x260 Srouce/ASF/thirdparty/ff11a/ff.o
 .text.dir_register
                0x00000000       0x4c Srouce/ASF/thirdparty/ff11a/ff.o
 .text.follow_path
                0x00000000      0x29c Srouce/ASF/thirdparty/ff11a/ff.o
 .text.f_utime  0x00000000       0x6c Srouce/ASF/thirdparty/ff11a/ff.o
 .text.f_chmod  0x00000000       0x6c Srouce/ASF/thirdparty/ff11a/ff.o
 .text.f_stat   0x00000000       0x5c Srouce/ASF/thirdparty/ff11a/ff.o
 .text.f_opendir
                0x00000000       0x84 Srouce/ASF/thirdparty/ff11a/ff.o
 .text.f_findfirst
                0x00000000       0x28 Srouce/ASF/thirdparty/ff11a/ff.o
 .text.f_mkdir  0x00000000      0x1b8 Srouce/ASF/thirdparty/ff11a/ff.o
 .text.f_unlink
                0x00000000       0xd4 Srouce/ASF/thirdparty/ff11a/ff.o
 .text.f_rename
                0x00000000      0x130 Srouce/ASF/thirdparty/ff11a/ff.o
 .text.f_open   0x00000000      0x1b4 Srouce/ASF/thirdparty/ff11a/ff.o
 .text.f_getfree
                0x00000000       0xec Srouce/ASF/thirdparty/ff11a/ff.o
 .text.f_lseek  0x00000000      0x2b4 Srouce/ASF/thirdparty/ff11a/ff.o
 .text.f_write  0x00000000      0x1e0 Srouce/ASF/thirdparty/ff11a/ff.o
 .text.putc_bfd
                0x00000000       0x4c Srouce/ASF/thirdparty/ff11a/ff.o
 .text.f_printf
                0x00000000      0x2e4 Srouce/ASF/thirdparty/ff11a/ff.o
 .rodata.f_printf
                0x00000000       0x5c Srouce/ASF/thirdparty/ff11a/ff.o
 .text.f_puts   0x00000000       0x58 Srouce/ASF/thirdparty/ff11a/ff.o
 .text.f_putc   0x00000000       0x44 Srouce/ASF/thirdparty/ff11a/ff.o
 .text.f_read   0x00000000      0x1a4 Srouce/ASF/thirdparty/ff11a/ff.o
 .text.f_gets   0x00000000       0x58 Srouce/ASF/thirdparty/ff11a/ff.o
 .rodata.cst.4331
                0x00000000       0x16 Srouce/ASF/thirdparty/ff11a/ff.o
 .rodata.vst.4330
                0x00000000       0x16 Srouce/ASF/thirdparty/ff11a/ff.o
 .bss.Fsid      0x00000000        0x2 Srouce/ASF/thirdparty/ff11a/ff.o
 .rodata.str1.4
                0x00000000       0x58 Srouce/ASF/thirdparty/ff11a/ff.o
 .bss.FatFs     0x00000000        0x4 Srouce/ASF/thirdparty/ff11a/ff.o
 .debug_frame   0x00000000      0x7b8 Srouce/ASF/thirdparty/ff11a/ff.o
 .debug_loc     0x00000000     0x3dbc Srouce/ASF/thirdparty/ff11a/ff.o
 .debug_pubnames
                0x00000000      0x191 Srouce/ASF/thirdparty/ff11a/ff.o
 .debug_aranges
                0x00000000      0x1d8 Srouce/ASF/thirdparty/ff11a/ff.o
 .debug_ranges  0x00000000      0x200 Srouce/ASF/thirdparty/ff11a/ff.o
 .debug_str     0x00000000      0x6ef Srouce/ASF/thirdparty/ff11a/ff.o
 .comment       0x00000000       0x31 Srouce/ASF/thirdparty/ff11a/ff.o
 .text          0x00000000        0x0 Srouce/ASF/thirdparty/freertos/freertos-7.0.0/source/croutine.o
 .data          0x00000000        0x0 Srouce/ASF/thirdparty/freertos/freertos-7.0.0/source/croutine.o
 .bss           0x00000000        0x0 Srouce/ASF/thirdparty/freertos/freertos-7.0.0/source/croutine.o
 .debug_abbrev  0x00000000      0x1ef Srouce/ASF/thirdparty/freertos/freertos-7.0.0/source/croutine.o
 .debug_info    0x00000000      0x526 Srouce/ASF/thirdparty/freertos/freertos-7.0.0/source/croutine.o
 .debug_line    0x00000000      0x1cc Srouce/ASF/thirdparty/freertos/freertos-7.0.0/source/croutine.o
 .text.xCoRoutineRemoveFromEventList
                0x00000000       0x3c Srouce/ASF/thirdparty/freertos/freertos-7.0.0/source/croutine.o
 .text.vCoRoutineSchedule
                0x00000000      0x180 Srouce/ASF/thirdparty/freertos/freertos-7.0.0/source/croutine.o
 .text.vCoRoutineAddToDelayedList
                0x00000000       0x68 Srouce/ASF/thirdparty/freertos/freertos-7.0.0/source/croutine.o
 .text.xCoRoutineCreate
                0x00000000       0xc4 Srouce/ASF/thirdparty/freertos/freertos-7.0.0/source/croutine.o
 .bss.xDelayedCoRoutineList1
                0x00000000       0x14 Srouce/ASF/thirdparty/freertos/freertos-7.0.0/source/croutine.o
 .bss.xPassedTicks
                0x00000000        0x4 Srouce/ASF/thirdparty/freertos/freertos-7.0.0/source/croutine.o
 .bss.xPendingReadyCoRoutineList
                0x00000000       0x14 Srouce/ASF/thirdparty/freertos/freertos-7.0.0/source/croutine.o
 .bss.pxCurrentCoRoutine
                0x00000000        0x4 Srouce/ASF/thirdparty/freertos/freertos-7.0.0/source/croutine.o
 .bss.xDelayedCoRoutineList2
                0x00000000       0x14 Srouce/ASF/thirdparty/freertos/freertos-7.0.0/source/croutine.o
 .bss.xCoRoutineTickCount
                0x00000000        0x4 Srouce/ASF/thirdparty/freertos/freertos-7.0.0/source/croutine.o
 .bss.xLastTickCount
                0x00000000        0x4 Srouce/ASF/thirdparty/freertos/freertos-7.0.0/source/croutine.o
 .bss.pxDelayedCoRoutineList
                0x00000000        0x4 Srouce/ASF/thirdparty/freertos/freertos-7.0.0/source/croutine.o
 .bss.pxReadyCoRoutineLists
                0x00000000       0x14 Srouce/ASF/thirdparty/freertos/freertos-7.0.0/source/croutine.o
 .bss.uxTopCoRoutineReadyPriority
                0x00000000        0x4 Srouce/ASF/thirdparty/freertos/freertos-7.0.0/source/croutine.o
 .bss.pxOverflowDelayedCoRoutineList
                0x00000000        0x4 Srouce/ASF/thirdparty/freertos/freertos-7.0.0/source/croutine.o
 .debug_frame   0x00000000       0xa4 Srouce/ASF/thirdparty/freertos/freertos-7.0.0/source/croutine.o
 .debug_loc     0x00000000      0x1a5 Srouce/ASF/thirdparty/freertos/freertos-7.0.0/source/croutine.o
 .debug_pubnames
                0x00000000       0x96 Srouce/ASF/thirdparty/freertos/freertos-7.0.0/source/croutine.o
 .debug_aranges
                0x00000000       0x38 Srouce/ASF/thirdparty/freertos/freertos-7.0.0/source/croutine.o
 .debug_ranges  0x00000000       0x48 Srouce/ASF/thirdparty/freertos/freertos-7.0.0/source/croutine.o
 .debug_str     0x00000000      0x495 Srouce/ASF/thirdparty/freertos/freertos-7.0.0/source/croutine.o
 .comment       0x00000000       0x31 Srouce/ASF/thirdparty/freertos/freertos-7.0.0/source/croutine.o
 .text          0x00000000        0x0 Srouce/ASF/thirdparty/freertos/freertos-7.0.0/source/list.o
 .data          0x00000000        0x0 Srouce/ASF/thirdparty/freertos/freertos-7.0.0/source/list.o
 .bss           0x00000000        0x0 Srouce/ASF/thirdparty/freertos/freertos-7.0.0/source/list.o
 .text          0x00000000        0x0 Srouce/ASF/thirdparty/freertos/freertos-7.0.0/source/portable/gcc/avr32_uc3/exception.o
 .data          0x00000000        0x0 Srouce/ASF/thirdparty/freertos/freertos-7.0.0/source/portable/gcc/avr32_uc3/exception.o
 .bss           0x00000000        0x0 Srouce/ASF/thirdparty/freertos/freertos-7.0.0/source/portable/gcc/avr32_uc3/exception.o
 .text          0x00000000        0x0 Srouce/ASF/thirdparty/freertos/freertos-7.0.0/source/portable/gcc/avr32_uc3/port.o
 .data          0x00000000        0x0 Srouce/ASF/thirdparty/freertos/freertos-7.0.0/source/portable/gcc/avr32_uc3/port.o
 .bss           0x00000000        0x0 Srouce/ASF/thirdparty/freertos/freertos-7.0.0/source/portable/gcc/avr32_uc3/port.o
 .text.vPortEndScheduler
                0x00000000        0x2 Srouce/ASF/thirdparty/freertos/freertos-7.0.0/source/portable/gcc/avr32_uc3/port.o
 .text.pvPortRealloc
                0x00000000       0x2c Srouce/ASF/thirdparty/freertos/freertos-7.0.0/source/portable/gcc/avr32_uc3/port.o
 .text._init_startup
                0x00000000       0x18 Srouce/ASF/thirdparty/freertos/freertos-7.0.0/source/portable/gcc/avr32_uc3/port.o
 .text          0x00000000        0x0 Srouce/ASF/thirdparty/freertos/freertos-7.0.0/source/portable/gcc/avr32_uc3/read.o
 .data          0x00000000        0x0 Srouce/ASF/thirdparty/freertos/freertos-7.0.0/source/portable/gcc/avr32_uc3/read.o
 .bss           0x00000000        0x0 Srouce/ASF/thirdparty/freertos/freertos-7.0.0/source/portable/gcc/avr32_uc3/read.o
 .text          0x00000000        0x0 Srouce/ASF/thirdparty/freertos/freertos-7.0.0/source/portable/gcc/avr32_uc3/write.o
 .data          0x00000000        0x0 Srouce/ASF/thirdparty/freertos/freertos-7.0.0/source/portable/gcc/avr32_uc3/write.o
 .bss           0x00000000        0x0 Srouce/ASF/thirdparty/freertos/freertos-7.0.0/source/portable/gcc/avr32_uc3/write.o
 .text          0x00000000        0x0 Srouce/ASF/thirdparty/freertos/freertos-7.0.0/source/portable/memmang/heap_3.o
 .data          0x00000000        0x0 Srouce/ASF/thirdparty/freertos/freertos-7.0.0/source/portable/memmang/heap_3.o
 .bss           0x00000000        0x0 Srouce/ASF/thirdparty/freertos/freertos-7.0.0/source/portable/memmang/heap_3.o
 .text          0x00000000        0x0 Srouce/ASF/thirdparty/freertos/freertos-7.0.0/source/queue.o
 .data          0x00000000        0x0 Srouce/ASF/thirdparty/freertos/freertos-7.0.0/source/queue.o
 .bss           0x00000000        0x0 Srouce/ASF/thirdparty/freertos/freertos-7.0.0/source/queue.o
 .text.uxQueueMessagesWaitingFromISR
                0x00000000        0x4 Srouce/ASF/thirdparty/freertos/freertos-7.0.0/source/queue.o
 .text.xQueueIsQueueEmptyFromISR
                0x00000000        0x8 Srouce/ASF/thirdparty/freertos/freertos-7.0.0/source/queue.o
 .text.xQueueIsQueueFullFromISR
                0x00000000        0xa Srouce/ASF/thirdparty/freertos/freertos-7.0.0/source/queue.o
 .text.vQueueDelete
                0x00000000       0x1c Srouce/ASF/thirdparty/freertos/freertos-7.0.0/source/queue.o
 .text.uxQueueMessagesWaiting
                0x00000000       0x20 Srouce/ASF/thirdparty/freertos/freertos-7.0.0/source/queue.o
 .text          0x00000000        0x0 Srouce/ASF/thirdparty/freertos/freertos-7.0.0/source/tasks.o
 .data          0x00000000        0x0 Srouce/ASF/thirdparty/freertos/freertos-7.0.0/source/tasks.o
 .bss           0x00000000        0x0 Srouce/ASF/thirdparty/freertos/freertos-7.0.0/source/tasks.o
 .text.xTaskIsTaskSuspended
                0x00000000       0x20 Srouce/ASF/thirdparty/freertos/freertos-7.0.0/source/tasks.o
 .text.xTaskGetTickCountFromISR
                0x00000000        0xc Srouce/ASF/thirdparty/freertos/freertos-7.0.0/source/tasks.o
 .text.uxTaskGetNumberOfTasks
                0x00000000        0xc Srouce/ASF/thirdparty/freertos/freertos-7.0.0/source/tasks.o
 .text.xTaskGetSchedulerState
                0x00000000       0x24 Srouce/ASF/thirdparty/freertos/freertos-7.0.0/source/tasks.o
 .text.xTaskResumeFromISR
                0x00000000       0x80 Srouce/ASF/thirdparty/freertos/freertos-7.0.0/source/tasks.o
 .text.vTaskResume
                0x00000000       0x80 Srouce/ASF/thirdparty/freertos/freertos-7.0.0/source/tasks.o
 .text.vTaskSuspend
                0x00000000       0x98 Srouce/ASF/thirdparty/freertos/freertos-7.0.0/source/tasks.o
 .text.vTaskPrioritySet
                0x00000000       0xb4 Srouce/ASF/thirdparty/freertos/freertos-7.0.0/source/tasks.o
 .text.uxTaskPriorityGet
                0x00000000       0x2c Srouce/ASF/thirdparty/freertos/freertos-7.0.0/source/tasks.o
 .text.vTaskDelete
                0x00000000       0x8c Srouce/ASF/thirdparty/freertos/freertos-7.0.0/source/tasks.o
 .text.vTaskDelay
                0x00000000       0x48 Srouce/ASF/thirdparty/freertos/freertos-7.0.0/source/tasks.o
 .text.vTaskEndScheduler
                0x00000000       0x18 Srouce/ASF/thirdparty/freertos/freertos-7.0.0/source/tasks.o
 .text          0x00000000        0x0 Srouce/Log/log.o
 .data          0x00000000        0x0 Srouce/Log/log.o
 .bss           0x00000000        0x0 Srouce/Log/log.o
 .text          0x00000000        0x0 Srouce/main.o
 .data          0x00000000        0x0 Srouce/main.o
 .bss           0x00000000        0x0 Srouce/main.o
 .text          0x00000000        0x0 Srouce/ASF/avr32/drivers/gpio/gpio.o
 .data          0x00000000        0x0 Srouce/ASF/avr32/drivers/gpio/gpio.o
 .bss           0x00000000        0x0 Srouce/ASF/avr32/drivers/gpio/gpio.o
 .text.gpio_enable_gpio_pin
                0x00000000       0x18 Srouce/ASF/avr32/drivers/gpio/gpio.o
 .text.gpio_enable_gpio
                0x00000000       0x28 Srouce/ASF/avr32/drivers/gpio/gpio.o
 .text.gpio_enable_pin_pull_up
                0x00000000       0x16 Srouce/ASF/avr32/drivers/gpio/gpio.o
 .text.gpio_disable_pin_pull_up
                0x00000000       0x16 Srouce/ASF/avr32/drivers/gpio/gpio.o
 .text.gpio_configure_pin
                0x00000000       0xb8 Srouce/ASF/avr32/drivers/gpio/gpio.o
 .text.gpio_configure_group
                0x00000000       0x6e Srouce/ASF/avr32/drivers/gpio/gpio.o
 .text.gpio_get_pin_value
                0x00000000       0x16 Srouce/ASF/avr32/drivers/gpio/gpio.o
 .text.gpio_get_gpio_pin_output_value
                0x00000000       0x16 Srouce/ASF/avr32/drivers/gpio/gpio.o
 .text.gpio_get_gpio_open_drain_pin_output_value
                0x00000000       0x1a Srouce/ASF/avr32/drivers/gpio/gpio.o
 .text.gpio_set_gpio_pin
                0x00000000       0x1c Srouce/ASF/avr32/drivers/gpio/gpio.o
 .text.gpio_set_pin_high
                0x00000000       0x16 Srouce/ASF/avr32/drivers/gpio/gpio.o
 .text.gpio_set_group_high
                0x00000000        0xc Srouce/ASF/avr32/drivers/gpio/gpio.o
 .text.gpio_set_pin_low
                0x00000000       0x16 Srouce/ASF/avr32/drivers/gpio/gpio.o
 .text.gpio_clr_gpio_pin
                0x00000000       0x1c Srouce/ASF/avr32/drivers/gpio/gpio.o
 .text.gpio_set_group_low
                0x00000000        0xc Srouce/ASF/avr32/drivers/gpio/gpio.o
 .text.gpio_tgl_gpio_pin
                0x00000000       0x1c Srouce/ASF/avr32/drivers/gpio/gpio.o
 .text.gpio_toggle_pin
                0x00000000       0x16 Srouce/ASF/avr32/drivers/gpio/gpio.o
 .text.gpio_toggle_group
                0x00000000        0xc Srouce/ASF/avr32/drivers/gpio/gpio.o
 .text.gpio_set_gpio_open_drain_pin
                0x00000000       0x18 Srouce/ASF/avr32/drivers/gpio/gpio.o
 .text.gpio_clr_gpio_open_drain_pin
                0x00000000       0x1c Srouce/ASF/avr32/drivers/gpio/gpio.o
 .text.gpio_tgl_gpio_open_drain_pin
                0x00000000       0x1c Srouce/ASF/avr32/drivers/gpio/gpio.o
 .text.gpio_enable_pin_glitch_filter
                0x00000000       0x16 Srouce/ASF/avr32/drivers/gpio/gpio.o
 .text.gpio_disable_pin_glitch_filter
                0x00000000       0x16 Srouce/ASF/avr32/drivers/gpio/gpio.o
 .text.gpio_enable_pin_interrupt
                0x00000000       0x46 Srouce/ASF/avr32/drivers/gpio/gpio.o
 .text.gpio_disable_pin_interrupt
                0x00000000       0x16 Srouce/ASF/avr32/drivers/gpio/gpio.o
 .text.gpio_get_pin_interrupt_flag
                0x00000000       0x18 Srouce/ASF/avr32/drivers/gpio/gpio.o
 .text.gpio_clear_pin_interrupt_flag
                0x00000000       0x16 Srouce/ASF/avr32/drivers/gpio/gpio.o
 .text          0x00000000        0x0 Srouce/ASF/avr32/utils/startup/startup_uc3.o
 .data          0x00000000        0x0 Srouce/ASF/avr32/utils/startup/startup_uc3.o
 .bss           0x00000000        0x0 Srouce/ASF/avr32/utils/startup/startup_uc3.o
 .text          0x00000000        0x0 Srouce/ASF/avr32/utils/startup/trampoline_uc3.o
 .data          0x00000000        0x0 Srouce/ASF/avr32/utils/startup/trampoline_uc3.o
 .bss           0x00000000        0x0 Srouce/ASF/avr32/utils/startup/trampoline_uc3.o
 .text          0x00000000        0x0 Srouce/ASF/common/boards/user_board/init.o
 .data          0x00000000        0x0 Srouce/ASF/common/boards/user_board/init.o
 .bss           0x00000000        0x0 Srouce/ASF/common/boards/user_board/init.o
 .debug_abbrev  0x00000000       0x4a Srouce/ASF/common/boards/user_board/init.o
 .debug_info    0x00000000       0xa2 Srouce/ASF/common/boards/user_board/init.o
 .debug_line    0x00000000       0x5e Srouce/ASF/common/boards/user_board/init.o
 .text.board_init
                0x00000000        0x2 Srouce/ASF/common/boards/user_board/init.o
 .debug_frame   0x00000000       0x20 Srouce/ASF/common/boards/user_board/init.o
 .debug_pubnames
                0x00000000       0x21 Srouce/ASF/common/boards/user_board/init.o
 .debug_aranges
                0x00000000       0x20 Srouce/ASF/common/boards/user_board/init.o
 .debug_ranges  0x00000000       0x18 Srouce/ASF/common/boards/user_board/init.o
 .debug_str     0x00000000      0x14d Srouce/ASF/common/boards/user_board/init.o
 .comment       0x00000000       0x31 Srouce/ASF/common/boards/user_board/init.o
 .text          0x00000000        0x0 d:/program files (x86)/atmel/studio/7.0/toolchain/avr32/avr32-gnu-toolchain/bin/../lib/gcc/avr32/4.4.7/../../../../avr32/lib/ucr2\libc.a(lib_a-malloc.o)
 .data          0x00000000        0x0 d:/program files (x86)/atmel/studio/7.0/toolchain/avr32/avr32-gnu-toolchain/bin/../lib/gcc/avr32/4.4.7/../../../../avr32/lib/ucr2\libc.a(lib_a-malloc.o)
 .bss           0x00000000        0x0 d:/program files (x86)/atmel/studio/7.0/toolchain/avr32/avr32-gnu-toolchain/bin/../lib/gcc/avr32/4.4.7/../../../../avr32/lib/ucr2\libc.a(lib_a-malloc.o)
 .text          0x00000000        0x0 d:/program files (x86)/atmel/studio/7.0/toolchain/avr32/avr32-gnu-toolchain/bin/../lib/gcc/avr32/4.4.7/../../../../avr32/lib/ucr2\libc.a(lib_a-mallocr.o)
 .data          0x00000000        0x0 d:/program files (x86)/atmel/studio/7.0/toolchain/avr32/avr32-gnu-toolchain/bin/../lib/gcc/avr32/4.4.7/../../../../avr32/lib/ucr2\libc.a(lib_a-mallocr.o)
 .bss           0x00000000        0x0 d:/program files (x86)/atmel/studio/7.0/toolchain/avr32/avr32-gnu-toolchain/bin/../lib/gcc/avr32/4.4.7/../../../../avr32/lib/ucr2\libc.a(lib_a-mallocr.o)
 .text          0x00000000        0x0 d:/program files (x86)/atmel/studio/7.0/toolchain/avr32/avr32-gnu-toolchain/bin/../lib/gcc/avr32/4.4.7/../../../../avr32/lib/ucr2\libc.a(lib_a-memcmp.o)
 .data          0x00000000        0x0 d:/program files (x86)/atmel/studio/7.0/toolchain/avr32/avr32-gnu-toolchain/bin/../lib/gcc/avr32/4.4.7/../../../../avr32/lib/ucr2\libc.a(lib_a-memcmp.o)
 .bss           0x00000000        0x0 d:/program files (x86)/atmel/studio/7.0/toolchain/avr32/avr32-gnu-toolchain/bin/../lib/gcc/avr32/4.4.7/../../../../avr32/lib/ucr2\libc.a(lib_a-memcmp.o)
 .debug_abbrev  0x00000000       0x92 d:/program files (x86)/atmel/studio/7.0/toolchain/avr32/avr32-gnu-toolchain/bin/../lib/gcc/avr32/4.4.7/../../../../avr32/lib/ucr2\libc.a(lib_a-memcmp.o)
 .debug_info    0x00000000       0xe5 d:/program files (x86)/atmel/studio/7.0/toolchain/avr32/avr32-gnu-toolchain/bin/../lib/gcc/avr32/4.4.7/../../../../avr32/lib/ucr2\libc.a(lib_a-memcmp.o)
 .debug_line    0x00000000      0x1c4 d:/program files (x86)/atmel/studio/7.0/toolchain/avr32/avr32-gnu-toolchain/bin/../lib/gcc/avr32/4.4.7/../../../../avr32/lib/ucr2\libc.a(lib_a-memcmp.o)
 .text.memcmp   0x00000000       0x26 d:/program files (x86)/atmel/studio/7.0/toolchain/avr32/avr32-gnu-toolchain/bin/../lib/gcc/avr32/4.4.7/../../../../avr32/lib/ucr2\libc.a(lib_a-memcmp.o)
 .debug_frame   0x00000000       0x28 d:/program files (x86)/atmel/studio/7.0/toolchain/avr32/avr32-gnu-toolchain/bin/../lib/gcc/avr32/4.4.7/../../../../avr32/lib/ucr2\libc.a(lib_a-memcmp.o)
 .debug_loc     0x00000000       0x3d d:/program files (x86)/atmel/studio/7.0/toolchain/avr32/avr32-gnu-toolchain/bin/../lib/gcc/avr32/4.4.7/../../../../avr32/lib/ucr2\libc.a(lib_a-memcmp.o)
 .debug_pubnames
                0x00000000       0x1d d:/program files (x86)/atmel/studio/7.0/toolchain/avr32/avr32-gnu-toolchain/bin/../lib/gcc/avr32/4.4.7/../../../../avr32/lib/ucr2\libc.a(lib_a-memcmp.o)
 .debug_aranges
                0x00000000       0x20 d:/program files (x86)/atmel/studio/7.0/toolchain/avr32/avr32-gnu-toolchain/bin/../lib/gcc/avr32/4.4.7/../../../../avr32/lib/ucr2\libc.a(lib_a-memcmp.o)
 .debug_ranges  0x00000000       0x18 d:/program files (x86)/atmel/studio/7.0/toolchain/avr32/avr32-gnu-toolchain/bin/../lib/gcc/avr32/4.4.7/../../../../avr32/lib/ucr2\libc.a(lib_a-memcmp.o)
 .debug_str     0x00000000      0x111 d:/program files (x86)/atmel/studio/7.0/toolchain/avr32/avr32-gnu-toolchain/bin/../lib/gcc/avr32/4.4.7/../../../../avr32/lib/ucr2\libc.a(lib_a-memcmp.o)
 .comment       0x00000000       0x31 d:/program files (x86)/atmel/studio/7.0/toolchain/avr32/avr32-gnu-toolchain/bin/../lib/gcc/avr32/4.4.7/../../../../avr32/lib/ucr2\libc.a(lib_a-memcmp.o)
 .data          0x00000000        0x0 d:/program files (x86)/atmel/studio/7.0/toolchain/avr32/avr32-gnu-toolchain/bin/../lib/gcc/avr32/4.4.7/../../../../avr32/lib/ucr2\libc.a(lib_a-memcpy.o)
 .bss           0x00000000        0x0 d:/program files (x86)/atmel/studio/7.0/toolchain/avr32/avr32-gnu-toolchain/bin/../lib/gcc/avr32/4.4.7/../../../../avr32/lib/ucr2\libc.a(lib_a-memcpy.o)
 .text          0x00000000        0x0 d:/program files (x86)/atmel/studio/7.0/toolchain/avr32/avr32-gnu-toolchain/bin/../lib/gcc/avr32/4.4.7/../../../../avr32/lib/ucr2\libc.a(lib_a-memset.o)
 .data          0x00000000        0x0 d:/program files (x86)/atmel/studio/7.0/toolchain/avr32/avr32-gnu-toolchain/bin/../lib/gcc/avr32/4.4.7/../../../../avr32/lib/ucr2\libc.a(lib_a-memset.o)
 .bss           0x00000000        0x0 d:/program files (x86)/atmel/studio/7.0/toolchain/avr32/avr32-gnu-toolchain/bin/../lib/gcc/avr32/4.4.7/../../../../avr32/lib/ucr2\libc.a(lib_a-memset.o)
 .text          0x00000000        0x0 d:/program files (x86)/atmel/studio/7.0/toolchain/avr32/avr32-gnu-toolchain/bin/../lib/gcc/avr32/4.4.7/../../../../avr32/lib/ucr2\libc.a(lib_a-realloc.o)
 .data          0x00000000        0x0 d:/program files (x86)/atmel/studio/7.0/toolchain/avr32/avr32-gnu-toolchain/bin/../lib/gcc/avr32/4.4.7/../../../../avr32/lib/ucr2\libc.a(lib_a-realloc.o)
 .bss           0x00000000        0x0 d:/program files (x86)/atmel/studio/7.0/toolchain/avr32/avr32-gnu-toolchain/bin/../lib/gcc/avr32/4.4.7/../../../../avr32/lib/ucr2\libc.a(lib_a-realloc.o)
 .debug_abbrev  0x00000000      0x170 d:/program files (x86)/atmel/studio/7.0/toolchain/avr32/avr32-gnu-toolchain/bin/../lib/gcc/avr32/4.4.7/../../../../avr32/lib/ucr2\libc.a(lib_a-realloc.o)
 .debug_info    0x00000000      0x8cf d:/program files (x86)/atmel/studio/7.0/toolchain/avr32/avr32-gnu-toolchain/bin/../lib/gcc/avr32/4.4.7/../../../../avr32/lib/ucr2\libc.a(lib_a-realloc.o)
 .debug_line    0x00000000      0x238 d:/program files (x86)/atmel/studio/7.0/toolchain/avr32/avr32-gnu-toolchain/bin/../lib/gcc/avr32/4.4.7/../../../../avr32/lib/ucr2\libc.a(lib_a-realloc.o)
 .text.realloc  0x00000000       0x18 d:/program files (x86)/atmel/studio/7.0/toolchain/avr32/avr32-gnu-toolchain/bin/../lib/gcc/avr32/4.4.7/../../../../avr32/lib/ucr2\libc.a(lib_a-realloc.o)
 .debug_frame   0x00000000       0x28 d:/program files (x86)/atmel/studio/7.0/toolchain/avr32/avr32-gnu-toolchain/bin/../lib/gcc/avr32/4.4.7/../../../../avr32/lib/ucr2\libc.a(lib_a-realloc.o)
 .debug_loc     0x00000000       0x45 d:/program files (x86)/atmel/studio/7.0/toolchain/avr32/avr32-gnu-toolchain/bin/../lib/gcc/avr32/4.4.7/../../../../avr32/lib/ucr2\libc.a(lib_a-realloc.o)
 .debug_pubnames
                0x00000000       0x1e d:/program files (x86)/atmel/studio/7.0/toolchain/avr32/avr32-gnu-toolchain/bin/../lib/gcc/avr32/4.4.7/../../../../avr32/lib/ucr2\libc.a(lib_a-realloc.o)
 .debug_aranges
                0x00000000       0x20 d:/program files (x86)/atmel/studio/7.0/toolchain/avr32/avr32-gnu-toolchain/bin/../lib/gcc/avr32/4.4.7/../../../../avr32/lib/ucr2\libc.a(lib_a-realloc.o)
 .debug_ranges  0x00000000       0x18 d:/program files (x86)/atmel/studio/7.0/toolchain/avr32/avr32-gnu-toolchain/bin/../lib/gcc/avr32/4.4.7/../../../../avr32/lib/ucr2\libc.a(lib_a-realloc.o)
 .debug_str     0x00000000      0x4bc d:/program files (x86)/atmel/studio/7.0/toolchain/avr32/avr32-gnu-toolchain/bin/../lib/gcc/avr32/4.4.7/../../../../avr32/lib/ucr2\libc.a(lib_a-realloc.o)
 .comment       0x00000000       0x31 d:/program files (x86)/atmel/studio/7.0/toolchain/avr32/avr32-gnu-toolchain/bin/../lib/gcc/avr32/4.4.7/../../../../avr32/lib/ucr2\libc.a(lib_a-realloc.o)
 .text          0x00000000        0x0 d:/program files (x86)/atmel/studio/7.0/toolchain/avr32/avr32-gnu-toolchain/bin/../lib/gcc/avr32/4.4.7/../../../../avr32/lib/ucr2\libc.a(lib_a-reallocr.o)
 .data          0x00000000        0x0 d:/program files (x86)/atmel/studio/7.0/toolchain/avr32/avr32-gnu-toolchain/bin/../lib/gcc/avr32/4.4.7/../../../../avr32/lib/ucr2\libc.a(lib_a-reallocr.o)
 .bss           0x00000000        0x0 d:/program files (x86)/atmel/studio/7.0/toolchain/avr32/avr32-gnu-toolchain/bin/../lib/gcc/avr32/4.4.7/../../../../avr32/lib/ucr2\libc.a(lib_a-reallocr.o)
 .text          0x00000000        0x0 d:/program files (x86)/atmel/studio/7.0/toolchain/avr32/avr32-gnu-toolchain/bin/../lib/gcc/avr32/4.4.7/../../../../avr32/lib/ucr2\libc.a(lib_a-sbrkr.o)
 .data          0x00000000        0x0 d:/program files (x86)/atmel/studio/7.0/toolchain/avr32/avr32-gnu-toolchain/bin/../lib/gcc/avr32/4.4.7/../../../../avr32/lib/ucr2\libc.a(lib_a-sbrkr.o)
 .bss           0x00000000        0x0 d:/program files (x86)/atmel/studio/7.0/toolchain/avr32/avr32-gnu-toolchain/bin/../lib/gcc/avr32/4.4.7/../../../../avr32/lib/ucr2\libc.a(lib_a-sbrkr.o)
 .text          0x00000000        0x0 d:/program files (x86)/atmel/studio/7.0/toolchain/avr32/avr32-gnu-toolchain/bin/../lib/gcc/avr32/4.4.7/../../../../avr32/lib/ucr2\libc.a(lib_a-sprintf.o)
 .data          0x00000000        0x0 d:/program files (x86)/atmel/studio/7.0/toolchain/avr32/avr32-gnu-toolchain/bin/../lib/gcc/avr32/4.4.7/../../../../avr32/lib/ucr2\libc.a(lib_a-sprintf.o)
 .bss           0x00000000        0x0 d:/program files (x86)/atmel/studio/7.0/toolchain/avr32/avr32-gnu-toolchain/bin/../lib/gcc/avr32/4.4.7/../../../../avr32/lib/ucr2\libc.a(lib_a-sprintf.o)
 .text._sprintf_r
                0x00000000       0x38 d:/program files (x86)/atmel/studio/7.0/toolchain/avr32/avr32-gnu-toolchain/bin/../lib/gcc/avr32/4.4.7/../../../../avr32/lib/ucr2\libc.a(lib_a-sprintf.o)
 .text          0x00000000        0x0 d:/program files (x86)/atmel/studio/7.0/toolchain/avr32/avr32-gnu-toolchain/bin/../lib/gcc/avr32/4.4.7/../../../../avr32/lib/ucr2\libc.a(lib_a-strcpy.o)
 .data          0x00000000        0x0 d:/program files (x86)/atmel/studio/7.0/toolchain/avr32/avr32-gnu-toolchain/bin/../lib/gcc/avr32/4.4.7/../../../../avr32/lib/ucr2\libc.a(lib_a-strcpy.o)
 .bss           0x00000000        0x0 d:/program files (x86)/atmel/studio/7.0/toolchain/avr32/avr32-gnu-toolchain/bin/../lib/gcc/avr32/4.4.7/../../../../avr32/lib/ucr2\libc.a(lib_a-strcpy.o)
 .debug_abbrev  0x00000000       0x76 d:/program files (x86)/atmel/studio/7.0/toolchain/avr32/avr32-gnu-toolchain/bin/../lib/gcc/avr32/4.4.7/../../../../avr32/lib/ucr2\libc.a(lib_a-strcpy.o)
 .debug_info    0x00000000       0xc2 d:/program files (x86)/atmel/studio/7.0/toolchain/avr32/avr32-gnu-toolchain/bin/../lib/gcc/avr32/4.4.7/../../../../avr32/lib/ucr2\libc.a(lib_a-strcpy.o)
 .debug_line    0x00000000      0x122 d:/program files (x86)/atmel/studio/7.0/toolchain/avr32/avr32-gnu-toolchain/bin/../lib/gcc/avr32/4.4.7/../../../../avr32/lib/ucr2\libc.a(lib_a-strcpy.o)
 .text.strcpy   0x00000000       0x12 d:/program files (x86)/atmel/studio/7.0/toolchain/avr32/avr32-gnu-toolchain/bin/../lib/gcc/avr32/4.4.7/../../../../avr32/lib/ucr2\libc.a(lib_a-strcpy.o)
 .debug_frame   0x00000000       0x20 d:/program files (x86)/atmel/studio/7.0/toolchain/avr32/avr32-gnu-toolchain/bin/../lib/gcc/avr32/4.4.7/../../../../avr32/lib/ucr2\libc.a(lib_a-strcpy.o)
 .debug_pubnames
                0x00000000       0x1d d:/program files (x86)/atmel/studio/7.0/toolchain/avr32/avr32-gnu-toolchain/bin/../lib/gcc/avr32/4.4.7/../../../../avr32/lib/ucr2\libc.a(lib_a-strcpy.o)
 .debug_aranges
                0x00000000       0x20 d:/program files (x86)/atmel/studio/7.0/toolchain/avr32/avr32-gnu-toolchain/bin/../lib/gcc/avr32/4.4.7/../../../../avr32/lib/ucr2\libc.a(lib_a-strcpy.o)
 .debug_ranges  0x00000000       0x18 d:/program files (x86)/atmel/studio/7.0/toolchain/avr32/avr32-gnu-toolchain/bin/../lib/gcc/avr32/4.4.7/../../../../avr32/lib/ucr2\libc.a(lib_a-strcpy.o)
 .debug_str     0x00000000      0x114 d:/program files (x86)/atmel/studio/7.0/toolchain/avr32/avr32-gnu-toolchain/bin/../lib/gcc/avr32/4.4.7/../../../../avr32/lib/ucr2\libc.a(lib_a-strcpy.o)
 .comment       0x00000000       0x31 d:/program files (x86)/atmel/studio/7.0/toolchain/avr32/avr32-gnu-toolchain/bin/../lib/gcc/avr32/4.4.7/../../../../avr32/lib/ucr2\libc.a(lib_a-strcpy.o)
 .text          0x00000000        0x0 d:/program files (x86)/atmel/studio/7.0/toolchain/avr32/avr32-gnu-toolchain/bin/../lib/gcc/avr32/4.4.7/../../../../avr32/lib/ucr2\libc.a(lib_a-strlen.o)
 .data          0x00000000        0x0 d:/program files (x86)/atmel/studio/7.0/toolchain/avr32/avr32-gnu-toolchain/bin/../lib/gcc/avr32/4.4.7/../../../../avr32/lib/ucr2\libc.a(lib_a-strlen.o)
 .bss           0x00000000        0x0 d:/program files (x86)/atmel/studio/7.0/toolchain/avr32/avr32-gnu-toolchain/bin/../lib/gcc/avr32/4.4.7/../../../../avr32/lib/ucr2\libc.a(lib_a-strlen.o)
 .data          0x00000000        0x0 d:/program files (x86)/atmel/studio/7.0/toolchain/avr32/avr32-gnu-toolchain/bin/../lib/gcc/avr32/4.4.7/../../../../avr32/lib/ucr2\libc.a(lib_a-strncpy.o)
 .bss           0x00000000        0x0 d:/program files (x86)/atmel/studio/7.0/toolchain/avr32/avr32-gnu-toolchain/bin/../lib/gcc/avr32/4.4.7/../../../../avr32/lib/ucr2\libc.a(lib_a-strncpy.o)
 .text          0x00000000        0x0 d:/program files (x86)/atmel/studio/7.0/toolchain/avr32/avr32-gnu-toolchain/bin/../lib/gcc/avr32/4.4.7/../../../../avr32/lib/ucr2\libc.a(lib_a-strtok.o)
 .data          0x00000000        0x0 d:/program files (x86)/atmel/studio/7.0/toolchain/avr32/avr32-gnu-toolchain/bin/../lib/gcc/avr32/4.4.7/../../../../avr32/lib/ucr2\libc.a(lib_a-strtok.o)
 .bss           0x00000000        0x0 d:/program files (x86)/atmel/studio/7.0/toolchain/avr32/avr32-gnu-toolchain/bin/../lib/gcc/avr32/4.4.7/../../../../avr32/lib/ucr2\libc.a(lib_a-strtok.o)
 .debug_abbrev  0x00000000      0x195 d:/program files (x86)/atmel/studio/7.0/toolchain/avr32/avr32-gnu-toolchain/bin/../lib/gcc/avr32/4.4.7/../../../../avr32/lib/ucr2\libc.a(lib_a-strtok.o)
 .debug_info    0x00000000      0x8e9 d:/program files (x86)/atmel/studio/7.0/toolchain/avr32/avr32-gnu-toolchain/bin/../lib/gcc/avr32/4.4.7/../../../../avr32/lib/ucr2\libc.a(lib_a-strtok.o)
 .debug_line    0x00000000      0x24a d:/program files (x86)/atmel/studio/7.0/toolchain/avr32/avr32-gnu-toolchain/bin/../lib/gcc/avr32/4.4.7/../../../../avr32/lib/ucr2\libc.a(lib_a-strtok.o)
 .text.strtok   0x00000000       0x9c d:/program files (x86)/atmel/studio/7.0/toolchain/avr32/avr32-gnu-toolchain/bin/../lib/gcc/avr32/4.4.7/../../../../avr32/lib/ucr2\libc.a(lib_a-strtok.o)
 .debug_frame   0x00000000       0x38 d:/program files (x86)/atmel/studio/7.0/toolchain/avr32/avr32-gnu-toolchain/bin/../lib/gcc/avr32/4.4.7/../../../../avr32/lib/ucr2\libc.a(lib_a-strtok.o)
 .debug_loc     0x00000000       0x7a d:/program files (x86)/atmel/studio/7.0/toolchain/avr32/avr32-gnu-toolchain/bin/../lib/gcc/avr32/4.4.7/../../../../avr32/lib/ucr2\libc.a(lib_a-strtok.o)
 .debug_pubnames
                0x00000000       0x1d d:/program files (x86)/atmel/studio/7.0/toolchain/avr32/avr32-gnu-toolchain/bin/../lib/gcc/avr32/4.4.7/../../../../avr32/lib/ucr2\libc.a(lib_a-strtok.o)
 .debug_aranges
                0x00000000       0x20 d:/program files (x86)/atmel/studio/7.0/toolchain/avr32/avr32-gnu-toolchain/bin/../lib/gcc/avr32/4.4.7/../../../../avr32/lib/ucr2\libc.a(lib_a-strtok.o)
 .debug_ranges  0x00000000       0x48 d:/program files (x86)/atmel/studio/7.0/toolchain/avr32/avr32-gnu-toolchain/bin/../lib/gcc/avr32/4.4.7/../../../../avr32/lib/ucr2\libc.a(lib_a-strtok.o)
 .debug_str     0x00000000      0x4b2 d:/program files (x86)/atmel/studio/7.0/toolchain/avr32/avr32-gnu-toolchain/bin/../lib/gcc/avr32/4.4.7/../../../../avr32/lib/ucr2\libc.a(lib_a-strtok.o)
 .comment       0x00000000       0x31 d:/program files (x86)/atmel/studio/7.0/toolchain/avr32/avr32-gnu-toolchain/bin/../lib/gcc/avr32/4.4.7/../../../../avr32/lib/ucr2\libc.a(lib_a-strtok.o)
 .text          0x00000000        0x0 d:/program files (x86)/atmel/studio/7.0/toolchain/avr32/avr32-gnu-toolchain/bin/../lib/gcc/avr32/4.4.7/../../../../avr32/lib/ucr2\libc.a(lib_a-strtok_r.o)
 .data          0x00000000        0x0 d:/program files (x86)/atmel/studio/7.0/toolchain/avr32/avr32-gnu-toolchain/bin/../lib/gcc/avr32/4.4.7/../../../../avr32/lib/ucr2\libc.a(lib_a-strtok_r.o)
 .bss           0x00000000        0x0 d:/program files (x86)/atmel/studio/7.0/toolchain/avr32/avr32-gnu-toolchain/bin/../lib/gcc/avr32/4.4.7/../../../../avr32/lib/ucr2\libc.a(lib_a-strtok_r.o)
 .debug_abbrev  0x00000000       0xc9 d:/program files (x86)/atmel/studio/7.0/toolchain/avr32/avr32-gnu-toolchain/bin/../lib/gcc/avr32/4.4.7/../../../../avr32/lib/ucr2\libc.a(lib_a-strtok_r.o)
 .debug_info    0x00000000      0x168 d:/program files (x86)/atmel/studio/7.0/toolchain/avr32/avr32-gnu-toolchain/bin/../lib/gcc/avr32/4.4.7/../../../../avr32/lib/ucr2\libc.a(lib_a-strtok_r.o)
 .debug_line    0x00000000      0x1a7 d:/program files (x86)/atmel/studio/7.0/toolchain/avr32/avr32-gnu-toolchain/bin/../lib/gcc/avr32/4.4.7/../../../../avr32/lib/ucr2\libc.a(lib_a-strtok_r.o)
 .text.__strtok_r
                0x00000000       0x5e d:/program files (x86)/atmel/studio/7.0/toolchain/avr32/avr32-gnu-toolchain/bin/../lib/gcc/avr32/4.4.7/../../../../avr32/lib/ucr2\libc.a(lib_a-strtok_r.o)
 .text.strtok_r
                0x00000000       0x10 d:/program files (x86)/atmel/studio/7.0/toolchain/avr32/avr32-gnu-toolchain/bin/../lib/gcc/avr32/4.4.7/../../../../avr32/lib/ucr2\libc.a(lib_a-strtok_r.o)
 .debug_frame   0x00000000       0x4c d:/program files (x86)/atmel/studio/7.0/toolchain/avr32/avr32-gnu-toolchain/bin/../lib/gcc/avr32/4.4.7/../../../../avr32/lib/ucr2\libc.a(lib_a-strtok_r.o)
 .debug_loc     0x00000000      0x154 d:/program files (x86)/atmel/studio/7.0/toolchain/avr32/avr32-gnu-toolchain/bin/../lib/gcc/avr32/4.4.7/../../../../avr32/lib/ucr2\libc.a(lib_a-strtok_r.o)
 .debug_pubnames
                0x00000000       0x2e d:/program files (x86)/atmel/studio/7.0/toolchain/avr32/avr32-gnu-toolchain/bin/../lib/gcc/avr32/4.4.7/../../../../avr32/lib/ucr2\libc.a(lib_a-strtok_r.o)
 .debug_aranges
                0x00000000       0x28 d:/program files (x86)/atmel/studio/7.0/toolchain/avr32/avr32-gnu-toolchain/bin/../lib/gcc/avr32/4.4.7/../../../../avr32/lib/ucr2\libc.a(lib_a-strtok_r.o)
 .debug_ranges  0x00000000       0x20 d:/program files (x86)/atmel/studio/7.0/toolchain/avr32/avr32-gnu-toolchain/bin/../lib/gcc/avr32/4.4.7/../../../../avr32/lib/ucr2\libc.a(lib_a-strtok_r.o)
 .debug_str     0x00000000      0x143 d:/program files (x86)/atmel/studio/7.0/toolchain/avr32/avr32-gnu-toolchain/bin/../lib/gcc/avr32/4.4.7/../../../../avr32/lib/ucr2\libc.a(lib_a-strtok_r.o)
 .comment       0x00000000       0x31 d:/program files (x86)/atmel/studio/7.0/toolchain/avr32/avr32-gnu-toolchain/bin/../lib/gcc/avr32/4.4.7/../../../../avr32/lib/ucr2\libc.a(lib_a-strtok_r.o)
 .text          0x00000000        0x0 d:/program files (x86)/atmel/studio/7.0/toolchain/avr32/avr32-gnu-toolchain/bin/../lib/gcc/avr32/4.4.7/../../../../avr32/lib/ucr2\libc.a(lib_a-syscalls.o)
 .data          0x00000000        0x0 d:/program files (x86)/atmel/studio/7.0/toolchain/avr32/avr32-gnu-toolchain/bin/../lib/gcc/avr32/4.4.7/../../../../avr32/lib/ucr2\libc.a(lib_a-syscalls.o)
 .bss           0x00000000        0x0 d:/program files (x86)/atmel/studio/7.0/toolchain/avr32/avr32-gnu-toolchain/bin/../lib/gcc/avr32/4.4.7/../../../../avr32/lib/ucr2\libc.a(lib_a-syscalls.o)
 .text._init_startup
                0x00000000        0x2 d:/program files (x86)/atmel/studio/7.0/toolchain/avr32/avr32-gnu-toolchain/bin/../lib/gcc/avr32/4.4.7/../../../../avr32/lib/ucr2\libc.a(lib_a-syscalls.o)
 .text._init_argv
                0x00000000        0xa d:/program files (x86)/atmel/studio/7.0/toolchain/avr32/avr32-gnu-toolchain/bin/../lib/gcc/avr32/4.4.7/../../../../avr32/lib/ucr2\libc.a(lib_a-syscalls.o)
 .text._exit    0x00000000        0xa d:/program files (x86)/atmel/studio/7.0/toolchain/avr32/avr32-gnu-toolchain/bin/../lib/gcc/avr32/4.4.7/../../../../avr32/lib/ucr2\libc.a(lib_a-syscalls.o)
 .text._open    0x00000000       0x18 d:/program files (x86)/atmel/studio/7.0/toolchain/avr32/avr32-gnu-toolchain/bin/../lib/gcc/avr32/4.4.7/../../../../avr32/lib/ucr2\libc.a(lib_a-syscalls.o)
 .text._read    0x00000000       0x18 d:/program files (x86)/atmel/studio/7.0/toolchain/avr32/avr32-gnu-toolchain/bin/../lib/gcc/avr32/4.4.7/../../../../avr32/lib/ucr2\libc.a(lib_a-syscalls.o)
 .text._write   0x00000000       0x18 d:/program files (x86)/atmel/studio/7.0/toolchain/avr32/avr32-gnu-toolchain/bin/../lib/gcc/avr32/4.4.7/../../../../avr32/lib/ucr2\libc.a(lib_a-syscalls.o)
 .text._stat_host
                0x00000000       0x18 d:/program files (x86)/atmel/studio/7.0/toolchain/avr32/avr32-gnu-toolchain/bin/../lib/gcc/avr32/4.4.7/../../../../avr32/lib/ucr2\libc.a(lib_a-syscalls.o)
 .text._stat    0x00000000       0x50 d:/program files (x86)/atmel/studio/7.0/toolchain/avr32/avr32-gnu-toolchain/bin/../lib/gcc/avr32/4.4.7/../../../../avr32/lib/ucr2\libc.a(lib_a-syscalls.o)
 .text._gettimeofday_host
                0x00000000       0x18 d:/program files (x86)/atmel/studio/7.0/toolchain/avr32/avr32-gnu-toolchain/bin/../lib/gcc/avr32/4.4.7/../../../../avr32/lib/ucr2\libc.a(lib_a-syscalls.o)
 .text._gettimeofday
                0x00000000       0x24 d:/program files (x86)/atmel/studio/7.0/toolchain/avr32/avr32-gnu-toolchain/bin/../lib/gcc/avr32/4.4.7/../../../../avr32/lib/ucr2\libc.a(lib_a-syscalls.o)
 .text._unlink  0x00000000       0x18 d:/program files (x86)/atmel/studio/7.0/toolchain/avr32/avr32-gnu-toolchain/bin/../lib/gcc/avr32/4.4.7/../../../../avr32/lib/ucr2\libc.a(lib_a-syscalls.o)
 .text._system  0x00000000       0x18 d:/program files (x86)/atmel/studio/7.0/toolchain/avr32/avr32-gnu-toolchain/bin/../lib/gcc/avr32/4.4.7/../../../../avr32/lib/ucr2\libc.a(lib_a-syscalls.o)
 .text._execve  0x00000000        0x2 d:/program files (x86)/atmel/studio/7.0/toolchain/avr32/avr32-gnu-toolchain/bin/../lib/gcc/avr32/4.4.7/../../../../avr32/lib/ucr2\libc.a(lib_a-syscalls.o)
 .text._fork    0x00000000        0x2 d:/program files (x86)/atmel/studio/7.0/toolchain/avr32/avr32-gnu-toolchain/bin/../lib/gcc/avr32/4.4.7/../../../../avr32/lib/ucr2\libc.a(lib_a-syscalls.o)
 .text._wait    0x00000000        0x2 d:/program files (x86)/atmel/studio/7.0/toolchain/avr32/avr32-gnu-toolchain/bin/../lib/gcc/avr32/4.4.7/../../../../avr32/lib/ucr2\libc.a(lib_a-syscalls.o)
 .text.sigfillset
                0x00000000        0x2 d:/program files (x86)/atmel/studio/7.0/toolchain/avr32/avr32-gnu-toolchain/bin/../lib/gcc/avr32/4.4.7/../../../../avr32/lib/ucr2\libc.a(lib_a-syscalls.o)
 .text.sigprocmask
                0x00000000        0x2 d:/program files (x86)/atmel/studio/7.0/toolchain/avr32/avr32-gnu-toolchain/bin/../lib/gcc/avr32/4.4.7/../../../../avr32/lib/ucr2\libc.a(lib_a-syscalls.o)
 .text._fcntl   0x00000000        0x2 d:/program files (x86)/atmel/studio/7.0/toolchain/avr32/avr32-gnu-toolchain/bin/../lib/gcc/avr32/4.4.7/../../../../avr32/lib/ucr2\libc.a(lib_a-syscalls.o)
 .text._link    0x00000000        0x2 d:/program files (x86)/atmel/studio/7.0/toolchain/avr32/avr32-gnu-toolchain/bin/../lib/gcc/avr32/4.4.7/../../../../avr32/lib/ucr2\libc.a(lib_a-syscalls.o)
 .text._kill    0x00000000        0x2 d:/program files (x86)/atmel/studio/7.0/toolchain/avr32/avr32-gnu-toolchain/bin/../lib/gcc/avr32/4.4.7/../../../../avr32/lib/ucr2\libc.a(lib_a-syscalls.o)
 .text._getpid  0x00000000        0x2 d:/program files (x86)/atmel/studio/7.0/toolchain/avr32/avr32-gnu-toolchain/bin/../lib/gcc/avr32/4.4.7/../../../../avr32/lib/ucr2\libc.a(lib_a-syscalls.o)
 .text._times   0x00000000       0x12 d:/program files (x86)/atmel/studio/7.0/toolchain/avr32/avr32-gnu-toolchain/bin/../lib/gcc/avr32/4.4.7/../../../../avr32/lib/ucr2\libc.a(lib_a-syscalls.o)
 .text          0x00000000        0x0 d:/program files (x86)/atmel/studio/7.0/toolchain/avr32/avr32-gnu-toolchain/bin/../lib/gcc/avr32/4.4.7/../../../../avr32/lib/ucr2\libc.a(lib_a-vfprintf.o)
 .data          0x00000000        0x0 d:/program files (x86)/atmel/studio/7.0/toolchain/avr32/avr32-gnu-toolchain/bin/../lib/gcc/avr32/4.4.7/../../../../avr32/lib/ucr2\libc.a(lib_a-vfprintf.o)
 .bss           0x00000000        0x0 d:/program files (x86)/atmel/studio/7.0/toolchain/avr32/avr32-gnu-toolchain/bin/../lib/gcc/avr32/4.4.7/../../../../avr32/lib/ucr2\libc.a(lib_a-vfprintf.o)
 .text.vfprintf
                0x00000000       0x1c d:/program files (x86)/atmel/studio/7.0/toolchain/avr32/avr32-gnu-toolchain/bin/../lib/gcc/avr32/4.4.7/../../../../avr32/lib/ucr2\libc.a(lib_a-vfprintf.o)
 .text          0x00000000        0x0 d:/program files (x86)/atmel/studio/7.0/toolchain/avr32/avr32-gnu-toolchain/bin/../lib/gcc/avr32/4.4.7/../../../../avr32/lib/ucr2\libc.a(lib_a-wsetup.o)
 .data          0x00000000        0x0 d:/program files (x86)/atmel/studio/7.0/toolchain/avr32/avr32-gnu-toolchain/bin/../lib/gcc/avr32/4.4.7/../../../../avr32/lib/ucr2\libc.a(lib_a-wsetup.o)
 .bss           0x00000000        0x0 d:/program files (x86)/atmel/studio/7.0/toolchain/avr32/avr32-gnu-toolchain/bin/../lib/gcc/avr32/4.4.7/../../../../avr32/lib/ucr2\libc.a(lib_a-wsetup.o)
 .text          0x00000000        0x0 d:/program files (x86)/atmel/studio/7.0/toolchain/avr32/avr32-gnu-toolchain/bin/../lib/gcc/avr32/4.4.7/../../../../avr32/lib/ucr2\libc.a(lib_a-dtoa.o)
 .data          0x00000000        0x0 d:/program files (x86)/atmel/studio/7.0/toolchain/avr32/avr32-gnu-toolchain/bin/../lib/gcc/avr32/4.4.7/../../../../avr32/lib/ucr2\libc.a(lib_a-dtoa.o)
 .bss           0x00000000        0x0 d:/program files (x86)/atmel/studio/7.0/toolchain/avr32/avr32-gnu-toolchain/bin/../lib/gcc/avr32/4.4.7/../../../../avr32/lib/ucr2\libc.a(lib_a-dtoa.o)
 .text          0x00000000        0x0 d:/program files (x86)/atmel/studio/7.0/toolchain/avr32/avr32-gnu-toolchain/bin/../lib/gcc/avr32/4.4.7/../../../../avr32/lib/ucr2\libc.a(lib_a-errno.o)
 .data          0x00000000        0x0 d:/program files (x86)/atmel/studio/7.0/toolchain/avr32/avr32-gnu-toolchain/bin/../lib/gcc/avr32/4.4.7/../../../../avr32/lib/ucr2\libc.a(lib_a-errno.o)
 .bss           0x00000000        0x0 d:/program files (x86)/atmel/studio/7.0/toolchain/avr32/avr32-gnu-toolchain/bin/../lib/gcc/avr32/4.4.7/../../../../avr32/lib/ucr2\libc.a(lib_a-errno.o)
 .text          0x00000000        0x0 d:/program files (x86)/atmel/studio/7.0/toolchain/avr32/avr32-gnu-toolchain/bin/../lib/gcc/avr32/4.4.7/../../../../avr32/lib/ucr2\libc.a(lib_a-fflush.o)
 .data          0x00000000        0x0 d:/program files (x86)/atmel/studio/7.0/toolchain/avr32/avr32-gnu-toolchain/bin/../lib/gcc/avr32/4.4.7/../../../../avr32/lib/ucr2\libc.a(lib_a-fflush.o)
 .bss           0x00000000        0x0 d:/program files (x86)/atmel/studio/7.0/toolchain/avr32/avr32-gnu-toolchain/bin/../lib/gcc/avr32/4.4.7/../../../../avr32/lib/ucr2\libc.a(lib_a-fflush.o)
 .text.fflush   0x00000000       0x30 d:/program files (x86)/atmel/studio/7.0/toolchain/avr32/avr32-gnu-toolchain/bin/../lib/gcc/avr32/4.4.7/../../../../avr32/lib/ucr2\libc.a(lib_a-fflush.o)
 .text          0x00000000        0x0 d:/program files (x86)/atmel/studio/7.0/toolchain/avr32/avr32-gnu-toolchain/bin/../lib/gcc/avr32/4.4.7/../../../../avr32/lib/ucr2\libc.a(lib_a-findfp.o)
 .data          0x00000000        0x0 d:/program files (x86)/atmel/studio/7.0/toolchain/avr32/avr32-gnu-toolchain/bin/../lib/gcc/avr32/4.4.7/../../../../avr32/lib/ucr2\libc.a(lib_a-findfp.o)
 .bss           0x00000000        0x0 d:/program files (x86)/atmel/studio/7.0/toolchain/avr32/avr32-gnu-toolchain/bin/../lib/gcc/avr32/4.4.7/../../../../avr32/lib/ucr2\libc.a(lib_a-findfp.o)
 .text.__sinit_lock_acquire
                0x00000000        0x2 d:/program files (x86)/atmel/studio/7.0/toolchain/avr32/avr32-gnu-toolchain/bin/../lib/gcc/avr32/4.4.7/../../../../avr32/lib/ucr2\libc.a(lib_a-findfp.o)
 .text.__sinit_lock_release
                0x00000000        0x2 d:/program files (x86)/atmel/studio/7.0/toolchain/avr32/avr32-gnu-toolchain/bin/../lib/gcc/avr32/4.4.7/../../../../avr32/lib/ucr2\libc.a(lib_a-findfp.o)
 .text.__fp_lock
                0x00000000        0x2 d:/program files (x86)/atmel/studio/7.0/toolchain/avr32/avr32-gnu-toolchain/bin/../lib/gcc/avr32/4.4.7/../../../../avr32/lib/ucr2\libc.a(lib_a-findfp.o)
 .text.__fp_unlock
                0x00000000        0x2 d:/program files (x86)/atmel/studio/7.0/toolchain/avr32/avr32-gnu-toolchain/bin/../lib/gcc/avr32/4.4.7/../../../../avr32/lib/ucr2\libc.a(lib_a-findfp.o)
 .text.__fp_unlock_all
                0x00000000       0x1c d:/program files (x86)/atmel/studio/7.0/toolchain/avr32/avr32-gnu-toolchain/bin/../lib/gcc/avr32/4.4.7/../../../../avr32/lib/ucr2\libc.a(lib_a-findfp.o)
 .text.__fp_lock_all
                0x00000000       0x1c d:/program files (x86)/atmel/studio/7.0/toolchain/avr32/avr32-gnu-toolchain/bin/../lib/gcc/avr32/4.4.7/../../../../avr32/lib/ucr2\libc.a(lib_a-findfp.o)
 .text._cleanup
                0x00000000       0x14 d:/program files (x86)/atmel/studio/7.0/toolchain/avr32/avr32-gnu-toolchain/bin/../lib/gcc/avr32/4.4.7/../../../../avr32/lib/ucr2\libc.a(lib_a-findfp.o)
 .text          0x00000000        0x0 d:/program files (x86)/atmel/studio/7.0/toolchain/avr32/avr32-gnu-toolchain/bin/../lib/gcc/avr32/4.4.7/../../../../avr32/lib/ucr2\libc.a(lib_a-freer.o)
 .data          0x00000000        0x0 d:/program files (x86)/atmel/studio/7.0/toolchain/avr32/avr32-gnu-toolchain/bin/../lib/gcc/avr32/4.4.7/../../../../avr32/lib/ucr2\libc.a(lib_a-freer.o)
 .bss           0x00000000        0x0 d:/program files (x86)/atmel/studio/7.0/toolchain/avr32/avr32-gnu-toolchain/bin/../lib/gcc/avr32/4.4.7/../../../../avr32/lib/ucr2\libc.a(lib_a-freer.o)
 .text          0x00000000        0x0 d:/program files (x86)/atmel/studio/7.0/toolchain/avr32/avr32-gnu-toolchain/bin/../lib/gcc/avr32/4.4.7/../../../../avr32/lib/ucr2\libc.a(lib_a-fvwrite.o)
 .data          0x00000000        0x0 d:/program files (x86)/atmel/studio/7.0/toolchain/avr32/avr32-gnu-toolchain/bin/../lib/gcc/avr32/4.4.7/../../../../avr32/lib/ucr2\libc.a(lib_a-fvwrite.o)
 .bss           0x00000000        0x0 d:/program files (x86)/atmel/studio/7.0/toolchain/avr32/avr32-gnu-toolchain/bin/../lib/gcc/avr32/4.4.7/../../../../avr32/lib/ucr2\libc.a(lib_a-fvwrite.o)
 .text          0x00000000        0x0 d:/program files (x86)/atmel/studio/7.0/toolchain/avr32/avr32-gnu-toolchain/bin/../lib/gcc/avr32/4.4.7/../../../../avr32/lib/ucr2\libc.a(lib_a-fwalk.o)
 .data          0x00000000        0x0 d:/program files (x86)/atmel/studio/7.0/toolchain/avr32/avr32-gnu-toolchain/bin/../lib/gcc/avr32/4.4.7/../../../../avr32/lib/ucr2\libc.a(lib_a-fwalk.o)
 .bss           0x00000000        0x0 d:/program files (x86)/atmel/studio/7.0/toolchain/avr32/avr32-gnu-toolchain/bin/../lib/gcc/avr32/4.4.7/../../../../avr32/lib/ucr2\libc.a(lib_a-fwalk.o)
 .text._fwalk_reent
                0x00000000       0x58 d:/program files (x86)/atmel/studio/7.0/toolchain/avr32/avr32-gnu-toolchain/bin/../lib/gcc/avr32/4.4.7/../../../../avr32/lib/ucr2\libc.a(lib_a-fwalk.o)
 .text          0x00000000        0x0 d:/program files (x86)/atmel/studio/7.0/toolchain/avr32/avr32-gnu-toolchain/bin/../lib/gcc/avr32/4.4.7/../../../../avr32/lib/ucr2\libc.a(lib_a-impure.o)
 .data          0x00000000        0x0 d:/program files (x86)/atmel/studio/7.0/toolchain/avr32/avr32-gnu-toolchain/bin/../lib/gcc/avr32/4.4.7/../../../../avr32/lib/ucr2\libc.a(lib_a-impure.o)
 .bss           0x00000000        0x0 d:/program files (x86)/atmel/studio/7.0/toolchain/avr32/avr32-gnu-toolchain/bin/../lib/gcc/avr32/4.4.7/../../../../avr32/lib/ucr2\libc.a(lib_a-impure.o)
 .text          0x00000000        0x0 d:/program files (x86)/atmel/studio/7.0/toolchain/avr32/avr32-gnu-toolchain/bin/../lib/gcc/avr32/4.4.7/../../../../avr32/lib/ucr2\libc.a(lib_a-locale.o)
 .data          0x00000000        0x0 d:/program files (x86)/atmel/studio/7.0/toolchain/avr32/avr32-gnu-toolchain/bin/../lib/gcc/avr32/4.4.7/../../../../avr32/lib/ucr2\libc.a(lib_a-locale.o)
 .bss           0x00000000        0x0 d:/program files (x86)/atmel/studio/7.0/toolchain/avr32/avr32-gnu-toolchain/bin/../lib/gcc/avr32/4.4.7/../../../../avr32/lib/ucr2\libc.a(lib_a-locale.o)
 .text.__locale_charset
                0x00000000        0xc d:/program files (x86)/atmel/studio/7.0/toolchain/avr32/avr32-gnu-toolchain/bin/../lib/gcc/avr32/4.4.7/../../../../avr32/lib/ucr2\libc.a(lib_a-locale.o)
 .text.localeconv
                0x00000000        0x8 d:/program files (x86)/atmel/studio/7.0/toolchain/avr32/avr32-gnu-toolchain/bin/../lib/gcc/avr32/4.4.7/../../../../avr32/lib/ucr2\libc.a(lib_a-locale.o)
 .text._setlocale_r
                0x00000000       0x3c d:/program files (x86)/atmel/studio/7.0/toolchain/avr32/avr32-gnu-toolchain/bin/../lib/gcc/avr32/4.4.7/../../../../avr32/lib/ucr2\libc.a(lib_a-locale.o)
 .text.setlocale
                0x00000000       0x18 d:/program files (x86)/atmel/studio/7.0/toolchain/avr32/avr32-gnu-toolchain/bin/../lib/gcc/avr32/4.4.7/../../../../avr32/lib/ucr2\libc.a(lib_a-locale.o)
 .rodata.charset
                0x00000000        0x4 d:/program files (x86)/atmel/studio/7.0/toolchain/avr32/avr32-gnu-toolchain/bin/../lib/gcc/avr32/4.4.7/../../../../avr32/lib/ucr2\libc.a(lib_a-locale.o)
 .bss.__nlocale_changed
                0x00000000        0x4 d:/program files (x86)/atmel/studio/7.0/toolchain/avr32/avr32-gnu-toolchain/bin/../lib/gcc/avr32/4.4.7/../../../../avr32/lib/ucr2\libc.a(lib_a-locale.o)
 .bss.__mlocale_changed
                0x00000000        0x4 d:/program files (x86)/atmel/studio/7.0/toolchain/avr32/avr32-gnu-toolchain/bin/../lib/gcc/avr32/4.4.7/../../../../avr32/lib/ucr2\libc.a(lib_a-locale.o)
 .bss._PathLocale
                0x00000000        0x4 d:/program files (x86)/atmel/studio/7.0/toolchain/avr32/avr32-gnu-toolchain/bin/../lib/gcc/avr32/4.4.7/../../../../avr32/lib/ucr2\libc.a(lib_a-locale.o)
 .data.__lc_ctype
                0x00000000        0xc d:/program files (x86)/atmel/studio/7.0/toolchain/avr32/avr32-gnu-toolchain/bin/../lib/gcc/avr32/4.4.7/../../../../avr32/lib/ucr2\libc.a(lib_a-locale.o)
 .data.__mb_cur_max
                0x00000000        0x4 d:/program files (x86)/atmel/studio/7.0/toolchain/avr32/avr32-gnu-toolchain/bin/../lib/gcc/avr32/4.4.7/../../../../avr32/lib/ucr2\libc.a(lib_a-locale.o)
 .text          0x00000000        0x0 d:/program files (x86)/atmel/studio/7.0/toolchain/avr32/avr32-gnu-toolchain/bin/../lib/gcc/avr32/4.4.7/../../../../avr32/lib/ucr2\libc.a(lib_a-makebuf.o)
 .data          0x00000000        0x0 d:/program files (x86)/atmel/studio/7.0/toolchain/avr32/avr32-gnu-toolchain/bin/../lib/gcc/avr32/4.4.7/../../../../avr32/lib/ucr2\libc.a(lib_a-makebuf.o)
 .bss           0x00000000        0x0 d:/program files (x86)/atmel/studio/7.0/toolchain/avr32/avr32-gnu-toolchain/bin/../lib/gcc/avr32/4.4.7/../../../../avr32/lib/ucr2\libc.a(lib_a-makebuf.o)
 .text          0x00000000        0x0 d:/program files (x86)/atmel/studio/7.0/toolchain/avr32/avr32-gnu-toolchain/bin/../lib/gcc/avr32/4.4.7/../../../../avr32/lib/ucr2\libc.a(lib_a-memchr.o)
 .data          0x00000000        0x0 d:/program files (x86)/atmel/studio/7.0/toolchain/avr32/avr32-gnu-toolchain/bin/../lib/gcc/avr32/4.4.7/../../../../avr32/lib/ucr2\libc.a(lib_a-memchr.o)
 .bss           0x00000000        0x0 d:/program files (x86)/atmel/studio/7.0/toolchain/avr32/avr32-gnu-toolchain/bin/../lib/gcc/avr32/4.4.7/../../../../avr32/lib/ucr2\libc.a(lib_a-memchr.o)
 .text          0x00000000        0x0 d:/program files (x86)/atmel/studio/7.0/toolchain/avr32/avr32-gnu-toolchain/bin/../lib/gcc/avr32/4.4.7/../../../../avr32/lib/ucr2\libc.a(lib_a-memmove.o)
 .data          0x00000000        0x0 d:/program files (x86)/atmel/studio/7.0/toolchain/avr32/avr32-gnu-toolchain/bin/../lib/gcc/avr32/4.4.7/../../../../avr32/lib/ucr2\libc.a(lib_a-memmove.o)
 .bss           0x00000000        0x0 d:/program files (x86)/atmel/studio/7.0/toolchain/avr32/avr32-gnu-toolchain/bin/../lib/gcc/avr32/4.4.7/../../../../avr32/lib/ucr2\libc.a(lib_a-memmove.o)
 .text          0x00000000        0x0 d:/program files (x86)/atmel/studio/7.0/toolchain/avr32/avr32-gnu-toolchain/bin/../lib/gcc/avr32/4.4.7/../../../../avr32/lib/ucr2\libc.a(lib_a-mprec.o)
 .data          0x00000000        0x0 d:/program files (x86)/atmel/studio/7.0/toolchain/avr32/avr32-gnu-toolchain/bin/../lib/gcc/avr32/4.4.7/../../../../avr32/lib/ucr2\libc.a(lib_a-mprec.o)
 .bss           0x00000000        0x0 d:/program files (x86)/atmel/studio/7.0/toolchain/avr32/avr32-gnu-toolchain/bin/../lib/gcc/avr32/4.4.7/../../../../avr32/lib/ucr2\libc.a(lib_a-mprec.o)
 .text.__ulp    0x00000000       0x48 d:/program files (x86)/atmel/studio/7.0/toolchain/avr32/avr32-gnu-toolchain/bin/../lib/gcc/avr32/4.4.7/../../../../avr32/lib/ucr2\libc.a(lib_a-mprec.o)
 .text.__b2d    0x00000000       0xa0 d:/program files (x86)/atmel/studio/7.0/toolchain/avr32/avr32-gnu-toolchain/bin/../lib/gcc/avr32/4.4.7/../../../../avr32/lib/ucr2\libc.a(lib_a-mprec.o)
 .text.__ratio  0x00000000       0x5c d:/program files (x86)/atmel/studio/7.0/toolchain/avr32/avr32-gnu-toolchain/bin/../lib/gcc/avr32/4.4.7/../../../../avr32/lib/ucr2\libc.a(lib_a-mprec.o)
 .text._mprec_log10
                0x00000000       0x34 d:/program files (x86)/atmel/studio/7.0/toolchain/avr32/avr32-gnu-toolchain/bin/../lib/gcc/avr32/4.4.7/../../../../avr32/lib/ucr2\libc.a(lib_a-mprec.o)
 .text.__copybits
                0x00000000       0x2e d:/program files (x86)/atmel/studio/7.0/toolchain/avr32/avr32-gnu-toolchain/bin/../lib/gcc/avr32/4.4.7/../../../../avr32/lib/ucr2\libc.a(lib_a-mprec.o)
 .text.__any_on
                0x00000000       0x4c d:/program files (x86)/atmel/studio/7.0/toolchain/avr32/avr32-gnu-toolchain/bin/../lib/gcc/avr32/4.4.7/../../../../avr32/lib/ucr2\libc.a(lib_a-mprec.o)
 .text.__s2b    0x00000000       0x84 d:/program files (x86)/atmel/studio/7.0/toolchain/avr32/avr32-gnu-toolchain/bin/../lib/gcc/avr32/4.4.7/../../../../avr32/lib/ucr2\libc.a(lib_a-mprec.o)
 .rodata.__mprec_tinytens
                0x00000000       0x28 d:/program files (x86)/atmel/studio/7.0/toolchain/avr32/avr32-gnu-toolchain/bin/../lib/gcc/avr32/4.4.7/../../../../avr32/lib/ucr2\libc.a(lib_a-mprec.o)
 .text          0x00000000        0x0 d:/program files (x86)/atmel/studio/7.0/toolchain/avr32/avr32-gnu-toolchain/bin/../lib/gcc/avr32/4.4.7/../../../../avr32/lib/ucr2\libc.a(lib_a-reent.o)
 .data          0x00000000        0x0 d:/program files (x86)/atmel/studio/7.0/toolchain/avr32/avr32-gnu-toolchain/bin/../lib/gcc/avr32/4.4.7/../../../../avr32/lib/ucr2\libc.a(lib_a-reent.o)
 .bss           0x00000000        0x0 d:/program files (x86)/atmel/studio/7.0/toolchain/avr32/avr32-gnu-toolchain/bin/../lib/gcc/avr32/4.4.7/../../../../avr32/lib/ucr2\libc.a(lib_a-reent.o)
 .text._wrapup_reent
                0x00000000       0x3c d:/program files (x86)/atmel/studio/7.0/toolchain/avr32/avr32-gnu-toolchain/bin/../lib/gcc/avr32/4.4.7/../../../../avr32/lib/ucr2\libc.a(lib_a-reent.o)
 .text.cleanup_glue
                0x00000000       0x24 d:/program files (x86)/atmel/studio/7.0/toolchain/avr32/avr32-gnu-toolchain/bin/../lib/gcc/avr32/4.4.7/../../../../avr32/lib/ucr2\libc.a(lib_a-reent.o)
 .text._reclaim_reent
                0x00000000       0xd4 d:/program files (x86)/atmel/studio/7.0/toolchain/avr32/avr32-gnu-toolchain/bin/../lib/gcc/avr32/4.4.7/../../../../avr32/lib/ucr2\libc.a(lib_a-reent.o)
 .text          0x00000000        0x0 d:/program files (x86)/atmel/studio/7.0/toolchain/avr32/avr32-gnu-toolchain/bin/../lib/gcc/avr32/4.4.7/../../../../avr32/lib/ucr2\libc.a(lib_a-s_isinfd.o)
 .data          0x00000000        0x0 d:/program files (x86)/atmel/studio/7.0/toolchain/avr32/avr32-gnu-toolchain/bin/../lib/gcc/avr32/4.4.7/../../../../avr32/lib/ucr2\libc.a(lib_a-s_isinfd.o)
 .bss           0x00000000        0x0 d:/program files (x86)/atmel/studio/7.0/toolchain/avr32/avr32-gnu-toolchain/bin/../lib/gcc/avr32/4.4.7/../../../../avr32/lib/ucr2\libc.a(lib_a-s_isinfd.o)
 .text          0x00000000        0x0 d:/program files (x86)/atmel/studio/7.0/toolchain/avr32/avr32-gnu-toolchain/bin/../lib/gcc/avr32/4.4.7/../../../../avr32/lib/ucr2\libc.a(lib_a-s_isnand.o)
 .data          0x00000000        0x0 d:/program files (x86)/atmel/studio/7.0/toolchain/avr32/avr32-gnu-toolchain/bin/../lib/gcc/avr32/4.4.7/../../../../avr32/lib/ucr2\libc.a(lib_a-s_isnand.o)
 .bss           0x00000000        0x0 d:/program files (x86)/atmel/studio/7.0/toolchain/avr32/avr32-gnu-toolchain/bin/../lib/gcc/avr32/4.4.7/../../../../avr32/lib/ucr2\libc.a(lib_a-s_isnand.o)
 .text          0x00000000        0x0 d:/program files (x86)/atmel/studio/7.0/toolchain/avr32/avr32-gnu-toolchain/bin/../lib/gcc/avr32/4.4.7/../../../../avr32/lib/ucr2\libc.a(lib_a-stdio.o)
 .data          0x00000000        0x0 d:/program files (x86)/atmel/studio/7.0/toolchain/avr32/avr32-gnu-toolchain/bin/../lib/gcc/avr32/4.4.7/../../../../avr32/lib/ucr2\libc.a(lib_a-stdio.o)
 .bss           0x00000000        0x0 d:/program files (x86)/atmel/studio/7.0/toolchain/avr32/avr32-gnu-toolchain/bin/../lib/gcc/avr32/4.4.7/../../../../avr32/lib/ucr2\libc.a(lib_a-stdio.o)
 .text          0x00000000       0xa8 d:/program files (x86)/atmel/studio/7.0/toolchain/avr32/avr32-gnu-toolchain/bin/../lib/gcc/avr32/4.4.7/../../../../avr32/lib/ucr2\libc.a(lib_a-strcmp.o)
 .data          0x00000000        0x0 d:/program files (x86)/atmel/studio/7.0/toolchain/avr32/avr32-gnu-toolchain/bin/../lib/gcc/avr32/4.4.7/../../../../avr32/lib/ucr2\libc.a(lib_a-strcmp.o)
 .bss           0x00000000        0x0 d:/program files (x86)/atmel/studio/7.0/toolchain/avr32/avr32-gnu-toolchain/bin/../lib/gcc/avr32/4.4.7/../../../../avr32/lib/ucr2\libc.a(lib_a-strcmp.o)
 .text          0x00000000        0x0 d:/program files (x86)/atmel/studio/7.0/toolchain/avr32/avr32-gnu-toolchain/bin/../lib/gcc/avr32/4.4.7/../../../../avr32/lib/ucr2\libc.a(lib_a-writer.o)
 .data          0x00000000        0x0 d:/program files (x86)/atmel/studio/7.0/toolchain/avr32/avr32-gnu-toolchain/bin/../lib/gcc/avr32/4.4.7/../../../../avr32/lib/ucr2\libc.a(lib_a-writer.o)
 .bss           0x00000000        0x0 d:/program files (x86)/atmel/studio/7.0/toolchain/avr32/avr32-gnu-toolchain/bin/../lib/gcc/avr32/4.4.7/../../../../avr32/lib/ucr2\libc.a(lib_a-writer.o)
 .text          0x00000000        0x0 d:/program files (x86)/atmel/studio/7.0/toolchain/avr32/avr32-gnu-toolchain/bin/../lib/gcc/avr32/4.4.7/../../../../avr32/lib/ucr2\libc.a(lib_a-callocr.o)
 .data          0x00000000        0x0 d:/program files (x86)/atmel/studio/7.0/toolchain/avr32/avr32-gnu-toolchain/bin/../lib/gcc/avr32/4.4.7/../../../../avr32/lib/ucr2\libc.a(lib_a-callocr.o)
 .bss           0x00000000        0x0 d:/program files (x86)/atmel/studio/7.0/toolchain/avr32/avr32-gnu-toolchain/bin/../lib/gcc/avr32/4.4.7/../../../../avr32/lib/ucr2\libc.a(lib_a-callocr.o)
 .text          0x00000000        0x0 d:/program files (x86)/atmel/studio/7.0/toolchain/avr32/avr32-gnu-toolchain/bin/../lib/gcc/avr32/4.4.7/../../../../avr32/lib/ucr2\libc.a(lib_a-closer.o)
 .data          0x00000000        0x0 d:/program files (x86)/atmel/studio/7.0/toolchain/avr32/avr32-gnu-toolchain/bin/../lib/gcc/avr32/4.4.7/../../../../avr32/lib/ucr2\libc.a(lib_a-closer.o)
 .bss           0x00000000        0x0 d:/program files (x86)/atmel/studio/7.0/toolchain/avr32/avr32-gnu-toolchain/bin/../lib/gcc/avr32/4.4.7/../../../../avr32/lib/ucr2\libc.a(lib_a-closer.o)
 .text          0x00000000        0x0 d:/program files (x86)/atmel/studio/7.0/toolchain/avr32/avr32-gnu-toolchain/bin/../lib/gcc/avr32/4.4.7/../../../../avr32/lib/ucr2\libc.a(lib_a-fclose.o)
 .data          0x00000000        0x0 d:/program files (x86)/atmel/studio/7.0/toolchain/avr32/avr32-gnu-toolchain/bin/../lib/gcc/avr32/4.4.7/../../../../avr32/lib/ucr2\libc.a(lib_a-fclose.o)
 .bss           0x00000000        0x0 d:/program files (x86)/atmel/studio/7.0/toolchain/avr32/avr32-gnu-toolchain/bin/../lib/gcc/avr32/4.4.7/../../../../avr32/lib/ucr2\libc.a(lib_a-fclose.o)
 .text          0x00000000        0x0 d:/program files (x86)/atmel/studio/7.0/toolchain/avr32/avr32-gnu-toolchain/bin/../lib/gcc/avr32/4.4.7/../../../../avr32/lib/ucr2\libc.a(lib_a-fstatr.o)
 .data          0x00000000        0x0 d:/program files (x86)/atmel/studio/7.0/toolchain/avr32/avr32-gnu-toolchain/bin/../lib/gcc/avr32/4.4.7/../../../../avr32/lib/ucr2\libc.a(lib_a-fstatr.o)
 .bss           0x00000000        0x0 d:/program files (x86)/atmel/studio/7.0/toolchain/avr32/avr32-gnu-toolchain/bin/../lib/gcc/avr32/4.4.7/../../../../avr32/lib/ucr2\libc.a(lib_a-fstatr.o)
 .text          0x00000000        0x0 d:/program files (x86)/atmel/studio/7.0/toolchain/avr32/avr32-gnu-toolchain/bin/../lib/gcc/avr32/4.4.7/../../../../avr32/lib/ucr2\libc.a(lib_a-lseekr.o)
 .data          0x00000000        0x0 d:/program files (x86)/atmel/studio/7.0/toolchain/avr32/avr32-gnu-toolchain/bin/../lib/gcc/avr32/4.4.7/../../../../avr32/lib/ucr2\libc.a(lib_a-lseekr.o)
 .bss           0x00000000        0x0 d:/program files (x86)/atmel/studio/7.0/toolchain/avr32/avr32-gnu-toolchain/bin/../lib/gcc/avr32/4.4.7/../../../../avr32/lib/ucr2\libc.a(lib_a-lseekr.o)
 .text          0x00000000        0x0 d:/program files (x86)/atmel/studio/7.0/toolchain/avr32/avr32-gnu-toolchain/bin/../lib/gcc/avr32/4.4.7/../../../../avr32/lib/ucr2\libc.a(lib_a-readr.o)
 .data          0x00000000        0x0 d:/program files (x86)/atmel/studio/7.0/toolchain/avr32/avr32-gnu-toolchain/bin/../lib/gcc/avr32/4.4.7/../../../../avr32/lib/ucr2\libc.a(lib_a-readr.o)
 .bss           0x00000000        0x0 d:/program files (x86)/atmel/studio/7.0/toolchain/avr32/avr32-gnu-toolchain/bin/../lib/gcc/avr32/4.4.7/../../../../avr32/lib/ucr2\libc.a(lib_a-readr.o)
 .data          0x00000000        0x0 d:/program files (x86)/atmel/studio/7.0/toolchain/avr32/avr32-gnu-toolchain/bin/../lib/gcc/avr32/4.4.7/ucr2\libgcc.a(_avr32_f64_mul.o)
 .bss           0x00000000        0x0 d:/program files (x86)/atmel/studio/7.0/toolchain/avr32/avr32-gnu-toolchain/bin/../lib/gcc/avr32/4.4.7/ucr2\libgcc.a(_avr32_f64_mul.o)
 .data          0x00000000        0x0 d:/program files (x86)/atmel/studio/7.0/toolchain/avr32/avr32-gnu-toolchain/bin/../lib/gcc/avr32/4.4.7/ucr2\libgcc.a(_avr32_f64_addsub.o)
 .bss           0x00000000        0x0 d:/program files (x86)/atmel/studio/7.0/toolchain/avr32/avr32-gnu-toolchain/bin/../lib/gcc/avr32/4.4.7/ucr2\libgcc.a(_avr32_f64_addsub.o)
 .data          0x00000000        0x0 d:/program files (x86)/atmel/studio/7.0/toolchain/avr32/avr32-gnu-toolchain/bin/../lib/gcc/avr32/4.4.7/ucr2\libgcc.a(_avr32_f64_to_s32.o)
 .bss           0x00000000        0x0 d:/program files (x86)/atmel/studio/7.0/toolchain/avr32/avr32-gnu-toolchain/bin/../lib/gcc/avr32/4.4.7/ucr2\libgcc.a(_avr32_f64_to_s32.o)
 .data          0x00000000        0x0 d:/program files (x86)/atmel/studio/7.0/toolchain/avr32/avr32-gnu-toolchain/bin/../lib/gcc/avr32/4.4.7/ucr2\libgcc.a(_avr32_s32_to_f64.o)
 .bss           0x00000000        0x0 d:/program files (x86)/atmel/studio/7.0/toolchain/avr32/avr32-gnu-toolchain/bin/../lib/gcc/avr32/4.4.7/ucr2\libgcc.a(_avr32_s32_to_f64.o)
 .data          0x00000000        0x0 d:/program files (x86)/atmel/studio/7.0/toolchain/avr32/avr32-gnu-toolchain/bin/../lib/gcc/avr32/4.4.7/ucr2\libgcc.a(_avr32_f64_cmp_eq.o)
 .bss           0x00000000        0x0 d:/program files (x86)/atmel/studio/7.0/toolchain/avr32/avr32-gnu-toolchain/bin/../lib/gcc/avr32/4.4.7/ucr2\libgcc.a(_avr32_f64_cmp_eq.o)
 .data          0x00000000        0x0 d:/program files (x86)/atmel/studio/7.0/toolchain/avr32/avr32-gnu-toolchain/bin/../lib/gcc/avr32/4.4.7/ucr2\libgcc.a(_avr32_f64_cmp_ge.o)
 .bss           0x00000000        0x0 d:/program files (x86)/atmel/studio/7.0/toolchain/avr32/avr32-gnu-toolchain/bin/../lib/gcc/avr32/4.4.7/ucr2\libgcc.a(_avr32_f64_cmp_ge.o)
 .data          0x00000000        0x0 d:/program files (x86)/atmel/studio/7.0/toolchain/avr32/avr32-gnu-toolchain/bin/../lib/gcc/avr32/4.4.7/ucr2\libgcc.a(_avr32_f64_cmp_lt.o)
 .bss           0x00000000        0x0 d:/program files (x86)/atmel/studio/7.0/toolchain/avr32/avr32-gnu-toolchain/bin/../lib/gcc/avr32/4.4.7/ucr2\libgcc.a(_avr32_f64_cmp_lt.o)
 .data          0x00000000        0x0 d:/program files (x86)/atmel/studio/7.0/toolchain/avr32/avr32-gnu-toolchain/bin/../lib/gcc/avr32/4.4.7/ucr2\libgcc.a(_avr32_f64_div.o)
 .bss           0x00000000        0x0 d:/program files (x86)/atmel/studio/7.0/toolchain/avr32/avr32-gnu-toolchain/bin/../lib/gcc/avr32/4.4.7/ucr2\libgcc.a(_avr32_f64_div.o)
 .data          0x00000000        0x0 d:/program files (x86)/atmel/studio/7.0/toolchain/avr32/avr32-gnu-toolchain/bin/../lib/gcc/avr32/4.4.7/ucr2\libgcc.a(_udivdi3.o)
 .bss           0x00000000        0x0 d:/program files (x86)/atmel/studio/7.0/toolchain/avr32/avr32-gnu-toolchain/bin/../lib/gcc/avr32/4.4.7/ucr2\libgcc.a(_udivdi3.o)
 .data          0x00000000        0x0 d:/program files (x86)/atmel/studio/7.0/toolchain/avr32/avr32-gnu-toolchain/bin/../lib/gcc/avr32/4.4.7/ucr2\libgcc.a(_umoddi3.o)
 .bss           0x00000000        0x0 d:/program files (x86)/atmel/studio/7.0/toolchain/avr32/avr32-gnu-toolchain/bin/../lib/gcc/avr32/4.4.7/ucr2\libgcc.a(_umoddi3.o)

Memory Configuration

Name             Origin             Length             Attributes
FLASH            0x80000000         0x00080000         axrl !w
INTRAM           0x00000004         0x00017ffc         axw !rl
USERPAGE         0x80800000         0x00000200
*default*        0x00000000         0xffffffff

Linker script and memory map

                0x00001000                _stack_size = 0x1000
LOAD Srouce/Application/app/app.o
LOAD Srouce/Application/fs/avr_spi_sd.o
LOAD Srouce/Application/fs/mal_sd.o
LOAD Srouce/Application/fs/fs.o
LOAD Srouce/Application/radio/ambe.o
LOAD Srouce/Application/radio/AMBE_audio.o
LOAD Srouce/Application/radio/AMBE_audio_2.o
LOAD Srouce/Application/radio/payload.o
LOAD Srouce/Application/radio/audio.o
LOAD Srouce/Application/radio/physical.o
LOAD Srouce/Application/radio/ssc.o
LOAD Srouce/Application/radio/xcmp.o
LOAD Srouce/Application/radio/xnl.o
LOAD Srouce/Application/rtc/rtc.o
LOAD Srouce/Application/timers/timer.o
LOAD Srouce/ASF/avr32/drivers/intc/intc.o
LOAD Srouce/ASF/avr32/drivers/pm/pm.o
LOAD Srouce/ASF/avr32/drivers/pm/pm_conf_clocks.o
LOAD Srouce/ASF/avr32/drivers/pm/power_clocks_lib.o
LOAD Srouce/ASF/avr32/drivers/spi/spi.o
LOAD Srouce/ASF/avr32/drivers/tc/tc.o
LOAD Srouce/ASF/avr32/drivers/twi/twi.o
LOAD Srouce/ASF/avr32/drivers/usart/usart.o
LOAD Srouce/ASF/thirdparty/ff11a/diskio.o
LOAD Srouce/ASF/thirdparty/ff11a/ff.o
LOAD Srouce/ASF/thirdparty/freertos/freertos-7.0.0/source/croutine.o
LOAD Srouce/ASF/thirdparty/freertos/freertos-7.0.0/source/list.o
LOAD Srouce/ASF/thirdparty/freertos/freertos-7.0.0/source/portable/gcc/avr32_uc3/exception.o
LOAD Srouce/ASF/thirdparty/freertos/freertos-7.0.0/source/portable/gcc/avr32_uc3/port.o
LOAD Srouce/ASF/thirdparty/freertos/freertos-7.0.0/source/portable/gcc/avr32_uc3/read.o
LOAD Srouce/ASF/thirdparty/freertos/freertos-7.0.0/source/portable/gcc/avr32_uc3/write.o
LOAD Srouce/ASF/thirdparty/freertos/freertos-7.0.0/source/portable/memmang/heap_3.o
LOAD Srouce/ASF/thirdparty/freertos/freertos-7.0.0/source/queue.o
LOAD Srouce/ASF/thirdparty/freertos/freertos-7.0.0/source/tasks.o
LOAD Srouce/Log/log.o
LOAD Srouce/main.o
LOAD Srouce/ASF/avr32/drivers/gpio/gpio.o
LOAD Srouce/ASF/avr32/utils/startup/startup_uc3.o
LOAD Srouce/ASF/avr32/utils/startup/trampoline_uc3.o
LOAD Srouce/ASF/common/boards/user_board/init.o
START GROUP
LOAD d:/program files (x86)/atmel/studio/7.0/toolchain/avr32/avr32-gnu-toolchain/bin/../lib/gcc/avr32/4.4.7/../../../../avr32/lib/ucr2\libm.a
END GROUP
LOAD d:/program files (x86)/atmel/studio/7.0/toolchain/avr32/avr32-gnu-toolchain/bin/../lib/gcc/avr32/4.4.7/ucr2\libgcc.a
LOAD d:/program files (x86)/atmel/studio/7.0/toolchain/avr32/avr32-gnu-toolchain/bin/../lib/gcc/avr32/4.4.7/../../../../avr32/lib/ucr2\libc.a
LOAD d:/program files (x86)/atmel/studio/7.0/toolchain/avr32/avr32-gnu-toolchain/bin/../lib/gcc/avr32/4.4.7/ucr2\libgcc.a
                0xffffffff                __max_heap_size__ = 0xffffffff
                [0xffffffff]                __heap_size__ = DEFINED (__heap_size__)?__heap_size__:__max_heap_size__
                [0x00001000]                __stack_size__ = DEFINED (__stack_size__)?__stack_size__:0x1000
                0x80000000                PROVIDE (__executable_start, 0x80000000)
                0x80000000                . = 0x80000000

.interp
 *(.interp)

.reset          0x80000000     0x2008
 *(.reset)
 .reset         0x80000000        0x4 Srouce/ASF/avr32/utils/startup/startup_uc3.o
                                  0x8 (size before relaxing)
                0x80000000                _start
 .reset         0x80000004     0x2004 Srouce/ASF/avr32/utils/startup/trampoline_uc3.o
                               0x2008 (size before relaxing)
                0x80000004                _trampoline

.hash
 *(.hash)

.dynsym
 *(.dynsym)

.dynstr
 *(.dynstr)

.gnu.version
 *(.gnu.version)

.gnu.version_d
 *(.gnu.version_d)

.gnu.version_r
 *(.gnu.version_r)

.rel.init
 *(.rel.init)

.rela.init
 *(.rela.init)

.rel.text
 *(.rel.text .rel.text.* .rel.gnu.linkonce.t.*)

.rela.text
 *(.rela.text .rela.text.* .rela.gnu.linkonce.t.*)

.rel.fini
 *(.rel.fini)

.rela.fini
 *(.rela.fini)

.rel.rodata
 *(.rel.rodata .rel.rodata.* .rel.gnu.linkonce.r.*)

.rela.rodata
 *(.rela.rodata .rela.rodata.* .rela.gnu.linkonce.r.*)

.rel.data.rel.ro
 *(.rel.data.rel.ro*)

.rela.data.rel.ro
 *(.rel.data.rel.ro*)

.rel.data
 *(.rel.data .rel.data.* .rel.gnu.linkonce.d.*)

.rela.data
 *(.rela.data .rela.data.* .rela.gnu.linkonce.d.*)

.rel.tdata
 *(.rel.tdata .rel.tdata.* .rel.gnu.linkonce.td.*)

.rela.tdata
 *(.rela.tdata .rela.tdata.* .rela.gnu.linkonce.td.*)

.rel.tbss
 *(.rel.tbss .rel.tbss.* .rel.gnu.linkonce.tb.*)

.rela.tbss
 *(.rela.tbss .rela.tbss.* .rela.gnu.linkonce.tb.*)

.rel.ctors
 *(.rel.ctors)

.rela.ctors
 *(.rela.ctors)

.rel.dtors
 *(.rel.dtors)

.rela.dtors
 *(.rela.dtors)

.rel.got
 *(.rel.got)

.rela.got       0x80002008        0x0
 *(.rela.got)
 .rela.got      0x80002008        0x0 Srouce/Application/app/app.o

.rel.bss
 *(.rel.bss .rel.bss.* .rel.gnu.linkonce.b.*)

.rela.bss
 *(.rela.bss .rela.bss.* .rela.gnu.linkonce.b.*)

.rel.plt
 *(.rel.plt)

.rela.plt
 *(.rela.plt)

.init
 *(.init)

.plt
 *(.plt)

.text           0x80002008     0x9f74
 *(.text .stub .text.* .gnu.linkonce.t.*)
 .text.DeviceManagement_brdcst_func
                0x80002008       0x24 Srouce/Application/app/app.o
                0x80002008                DeviceManagement_brdcst_func
 .text.Volume_brdcst_func
                0x8000202c        0x2 Srouce/Application/app/app.o
                0x8000202c                Volume_brdcst_func
 *fill*         0x8000202e        0x2 d703d703
 .text.vApplicationIdleHook
                0x80002030       0x10 Srouce/Application/app/app.o
                0x80002030                vApplicationIdleHook
 .text.app_init
                0x80002040       0x54 Srouce/Application/app/app.o
                0x80002040                app_init
 .text.app_payload_tx_proc
                0x80002094       0x14 Srouce/Application/app/app.o
 .text.FD_brdcst_func
                0x800020a8       0x14 Srouce/Application/app/app.o
                0x800020a8                FD_brdcst_func
 .text.FD_reply_func
                0x800020bc       0x14 Srouce/Application/app/app.o
                0x800020bc                FD_reply_func
 .text.FD_request_func
                0x800020d0       0x14 Srouce/Application/app/app.o
                0x800020d0                FD_request_func
 .text.EnOB_brdcst_func
                0x800020e4       0x14 Srouce/Application/app/app.o
                0x800020e4                EnOB_brdcst_func
 .text.EnOB_reply_func
                0x800020f8       0x70 Srouce/Application/app/app.o
                0x800020f8                EnOB_reply_func
 .text.SingleDetection_brdcst_func
                0x80002168       0x40 Srouce/Application/app/app.o
                0x80002168                SingleDetection_brdcst_func
 .text.ButtonConfig_brdcst_func
                0x800021a8       0xdc Srouce/Application/app/app.o
                0x800021a8                ButtonConfig_brdcst_func
 .text.Phyuserinput_brdcst_func
                0x80002284       0x78 Srouce/Application/app/app.o
                0x80002284                Phyuserinput_brdcst_func
 .text.ButtonConfig_reply_func
                0x800022fc       0x44 Srouce/Application/app/app.o
                0x800022fc                ButtonConfig_reply_func
 .text.DataSession_brdcst_func
                0x80002340       0x84 Srouce/Application/app/app.o
                0x80002340                DataSession_brdcst_func
 .text.DataSession_reply_func
                0x800023c4       0x58 Srouce/Application/app/app.o
                0x800023c4                DataSession_reply_func
 .text.TransmitControl_brdcst_func
                0x8000241c       0x48 Srouce/Application/app/app.o
                0x8000241c                TransmitControl_brdcst_func
 .text.TransmitControl_reply_func
                0x80002464       0x7c Srouce/Application/app/app.o
                0x80002464                TransmitControl_reply_func
 .text.AudioRoutingControl_brdcst_func
                0x800024e0       0x80 Srouce/Application/app/app.o
                0x800024e0                AudioRoutingControl_brdcst_func
 .text.Volume_reply_func
                0x80002560       0x64 Srouce/Application/app/app.o
                0x80002560                Volume_reply_func
 .text.spk_brdcst_func
                0x800025c4       0x40 Srouce/Application/app/app.o
                0x800025c4                spk_brdcst_func
 .text.spk_reply_func
                0x80002604       0x40 Srouce/Application/app/app.o
                0x80002604                spk_reply_func
 .text.mic_brdcst_func
                0x80002644       0x48 Srouce/Application/app/app.o
                0x80002644                mic_brdcst_func
 .text.mic_reply_func
                0x8000268c       0x94 Srouce/Application/app/app.o
                0x8000268c                mic_reply_func
 .text.dcm_brdcst_func
                0x80002720       0x48 Srouce/Application/app/app.o
                0x80002720                dcm_brdcst_func
 .text.dcm_reply_func
                0x80002768       0x68 Srouce/Application/app/app.o
                0x80002768                dcm_reply_func
 .text.ToneControl_reply_func
                0x800027d0       0x28 Srouce/Application/app/app.o
                0x800027d0                ToneControl_reply_func
 .text.app_cfg  0x800027f8       0xb8 Srouce/Application/app/app.o
 .text.app_payload_rx_proc
                0x800028b0       0x44 Srouce/Application/app/app.o
 .text.AudioRoutingControl_reply_func
                0x800028f4       0x50 Srouce/Application/app/app.o
                0x800028f4                AudioRoutingControl_reply_func
 .text.DeviceInitializationStatus_brdcst_func
                0x80002944       0x38 Srouce/Application/app/app.o
                0x80002944                DeviceInitializationStatus_brdcst_func
 .text.CalculateBurst
                0x8000297c       0x1c Srouce/Application/radio/ambe.o
                0x8000297c                CalculateBurst
 .text.payload_init
                0x80002998       0x38 Srouce/Application/radio/payload.o
                0x80002998                payload_init
 .text.payload_rx_process
                0x800029d0       0x4c Srouce/Application/radio/payload.o
 .text.set_idle_store_isr
                0x80002a1c       0x1c Srouce/Application/radio/physical.o
                0x80002a1c                set_idle_store_isr
 .text.phy_rx   0x80002a38       0x38 Srouce/Application/radio/physical.o
                0x80002a38                phy_rx
 .text.set_idle_store
                0x80002a70       0x20 Srouce/Application/radio/physical.o
                0x80002a70                set_idle_store
 .text.phy_tx   0x80002a90       0x5c Srouce/Application/radio/physical.o
                0x80002a90                phy_tx
 .text.get_idle_store_isr
                0x80002aec       0x28 Srouce/Application/radio/physical.o
                0x80002aec                get_idle_store_isr
 .text.phy_tx_func
                0x80002b14      0x3d8 Srouce/Application/radio/physical.o
 .text.get_idle_store
                0x80002eec       0x28 Srouce/Application/radio/physical.o
                0x80002eec                get_idle_store
 .text.phy_init
                0x80002f14       0xbc Srouce/Application/radio/physical.o
                0x80002f14                phy_init
 .text.payload_rx
                0x80002fd0       0x60 Srouce/Application/radio/physical.o
 .text.phy_rx_func
                0x80003030      0xbb4 Srouce/Application/radio/physical.o
 .text.pdca_int_handler
                0x80003be4       0x74 Srouce/Application/radio/ssc.o
 .text.local_start_SSC
                0x80003c58       0x44 Srouce/Application/radio/ssc.o
                0x80003c58                local_start_SSC
 .text.local_start_PDC
                0x80003c9c       0x6c Srouce/Application/radio/ssc.o
                0x80003c9c                local_start_PDC
 .text.register_rx_tx_func
                0x80003d08       0x14 Srouce/Application/radio/ssc.o
                0x80003d08                register_rx_tx_func
 .text.ssc_init
                0x80003d1c       0x68 Srouce/Application/radio/ssc.o
                0x80003d1c                ssc_init
 .text.xcmp_register_app_list
                0x80003d84        0xc Srouce/Application/radio/xcmp.o
                0x80003d84                xcmp_register_app_list
 .text.xcmp_tx  0x80003d90       0x48 Srouce/Application/radio/xcmp.o
 .text.xcmp_exit_device_control_mode
                0x80003dd8       0x30 Srouce/Application/radio/xcmp.o
                0x80003dd8                xcmp_exit_device_control_mode
 .text.xcmp_enter_device_control_mode
                0x80003e08       0x2c Srouce/Application/radio/xcmp.o
                0x80003e08                xcmp_enter_device_control_mode
 .text.xcmp_audio_route_AMBE
                0x80003e34       0x60 Srouce/Application/radio/xcmp.o
                0x80003e34                xcmp_audio_route_AMBE
 .text.xcmp_enter_enhanced_OB_mode
                0x80003e94       0x24 Srouce/Application/radio/xcmp.o
                0x80003e94                xcmp_enter_enhanced_OB_mode
 .text.xcmp_DeviceInitializationStatus_request
                0x80003eb8       0x40 Srouce/Application/radio/xcmp.o
                0x80003eb8                xcmp_DeviceInitializationStatus_request
 .text.xcmp_opcode_not_supported
                0x80003ef8       0x24 Srouce/Application/radio/xcmp.o
                0x80003ef8                xcmp_opcode_not_supported
 .text.xcmp_exec_func
                0x80003f1c       0x48 Srouce/Application/radio/xcmp.o
 .text.xcmp_IdleTestTone
                0x80003f64       0x60 Srouce/Application/radio/xcmp.o
                0x80003f64                xcmp_IdleTestTone
 .text.xcmp_init
                0x80003fc4       0x54 Srouce/Application/radio/xcmp.o
                0x80003fc4                xcmp_init
 .text.xcmp_rx_process
                0x80004018       0xfc Srouce/Application/radio/xcmp.o
 .text.xcmp_rx  0x80004114       0x4c Srouce/Application/radio/xcmp.o
 .text.xnl_register_xcmp_func
                0x80004160        0xc Srouce/Application/radio/xnl.o
                0x80004160                xnl_register_xcmp_func
 .text.xnl_get_msg_ack_func
                0x8000416c       0x2c Srouce/Application/radio/xnl.o
                0x8000416c                xnl_get_msg_ack_func
 .text.xnl_tx_process
                0x80004198       0xc8 Srouce/Application/radio/xnl.o
 .text.xnl_rx_process
                0x80004260       0x60 Srouce/Application/radio/xnl.o
 .text.xnl_tx   0x800042c0       0xe4 Srouce/Application/radio/xnl.o
                0x800042c0                xnl_tx
 .text.xnl_init
                0x800043a4       0xd4 Srouce/Application/radio/xnl.o
                0x800043a4                xnl_init
 .text.xnl_data_msg_func
                0x80004478       0x60 Srouce/Application/radio/xnl.o
                0x80004478                xnl_data_msg_func
 .text.xnl_device_auth_reply_func
                0x800044d8      0x120 Srouce/Application/radio/xnl.o
                0x800044d8                xnl_device_auth_reply_func
 .text.xnl_master_status_brdcst_func
                0x800045f8       0x60 Srouce/Application/radio/xnl.o
                0x800045f8                xnl_master_status_brdcst_func
 .text.xnl_device_conn_reply_func
                0x80004658       0x68 Srouce/Application/radio/xnl.o
                0x80004658                xnl_device_conn_reply_func
 .text.local_start_pll0
                0x800046c0       0x50 Srouce/Application/rtc/rtc.o
                0x800046c0                local_start_pll0
 .text.rtc_init
                0x80004710       0x8c Srouce/Application/rtc/rtc.o
                0x80004710                rtc_init
 .text.local_start_timer
                0x8000479c       0x3a Srouce/Application/timers/timer.o
                0x8000479c                local_start_timer
 *fill*         0x800047d6        0x2 d703d703
 .text.tc_init  0x800047d8       0x60 Srouce/Application/timers/timer.o
                0x800047d8                tc_init
 .text._tc_interrupt
                0x80004838       0x20 Srouce/Application/timers/timer.o
 .text._unhandled_interrupt
                0x80004858        0x2 Srouce/ASF/avr32/drivers/intc/intc.o
 *fill*         0x8000485a        0x2 d703d703
 .text.INTC_register_interrupt
                0x8000485c       0x80 Srouce/ASF/avr32/drivers/intc/intc.o
                0x8000485c                INTC_register_interrupt
 .text.INTC_init_interrupts
                0x800048dc       0x54 Srouce/ASF/avr32/drivers/intc/intc.o
                0x800048dc                INTC_init_interrupts
 .text._get_interrupt_handler
                0x80004930       0x38 Srouce/ASF/avr32/drivers/intc/intc.o
                0x80004930                _get_interrupt_handler
 .text.tc_init_waveform
                0x80004968       0x9c Srouce/ASF/avr32/drivers/tc/tc.o
                0x80004968                tc_init_waveform
 .text.tc_start
                0x80004a04       0x12 Srouce/ASF/avr32/drivers/tc/tc.o
                0x80004a04                tc_start
 .text.tc_read_sr
                0x80004a16       0x12 Srouce/ASF/avr32/drivers/tc/tc.o
                0x80004a16                tc_read_sr
 .text.tc_write_rc
                0x80004a28       0x34 Srouce/ASF/avr32/drivers/tc/tc.o
                0x80004a28                tc_write_rc
 .text.tc_configure_interrupts
                0x80004a5c      0x108 Srouce/ASF/avr32/drivers/tc/tc.o
                0x80004a5c                tc_configure_interrupts
 .text.twi_master_interrupt_handler
                0x80004b64       0xbc Srouce/ASF/avr32/drivers/twi/twi.o
 .text.twi_master_init
                0x80004c20       0x94 Srouce/ASF/avr32/drivers/twi/twi.o
                0x80004c20                twi_master_init
 .text.usart_set_async_baudrate
                0x80004cb4       0x5a Srouce/ASF/avr32/drivers/usart/usart.o
 .text.usart_write_char
                0x80004d0e       0x14 Srouce/ASF/avr32/drivers/usart/usart.o
                0x80004d0e                usart_write_char
 *fill*         0x80004d22        0x2 d703d703
 .text.usart_putchar
                0x80004d24       0x2c Srouce/ASF/avr32/drivers/usart/usart.o
                0x80004d24                usart_putchar
 .text.usart_read_char
                0x80004d50       0x22 Srouce/ASF/avr32/drivers/usart/usart.o
                0x80004d50                usart_read_char
 *fill*         0x80004d72        0x2 d703d703
 .text.usart_getchar
                0x80004d74       0x2c Srouce/ASF/avr32/drivers/usart/usart.o
                0x80004d74                usart_getchar
 .text.usart_write_line
                0x80004da0       0x24 Srouce/ASF/avr32/drivers/usart/usart.o
                0x80004da0                usart_write_line
 .text.usart_reset
                0x80004dc4       0x2c Srouce/ASF/avr32/drivers/usart/usart.o
                0x80004dc4                usart_reset
 .text.usart_init_rs232
                0x80004df0       0xcc Srouce/ASF/avr32/drivers/usart/usart.o
                0x80004df0                usart_init_rs232
 .text.vListInitialise
                0x80004ebc       0x14 Srouce/ASF/thirdparty/freertos/freertos-7.0.0/source/list.o
                0x80004ebc                vListInitialise
 .text.vListInitialiseItem
                0x80004ed0        0x6 Srouce/ASF/thirdparty/freertos/freertos-7.0.0/source/list.o
                0x80004ed0                vListInitialiseItem
 .text.vListInsertEnd
                0x80004ed6       0x1c Srouce/ASF/thirdparty/freertos/freertos-7.0.0/source/list.o
                0x80004ed6                vListInsertEnd
 .text.vListInsert
                0x80004ef2       0x34 Srouce/ASF/thirdparty/freertos/freertos-7.0.0/source/list.o
                0x80004ef2                vListInsert
 .text.vListRemove
                0x80004f26       0x26 Srouce/ASF/thirdparty/freertos/freertos-7.0.0/source/list.o
                0x80004f26                vListRemove
 .text.pxPortInitialiseStack
                0x80004f4c       0x92 Srouce/ASF/thirdparty/freertos/freertos-7.0.0/source/portable/gcc/avr32_uc3/port.o
                0x80004f4c                pxPortInitialiseStack
 *fill*         0x80004fde        0x2 d703d703
 .text.vPortEnterCritical
                0x80004fe0       0x10 Srouce/ASF/thirdparty/freertos/freertos-7.0.0/source/portable/gcc/avr32_uc3/port.o
                0x80004fe0                vPortEnterCritical
 .text.xPortStartScheduler
                0x80004ff0       0x58 Srouce/ASF/thirdparty/freertos/freertos-7.0.0/source/portable/gcc/avr32_uc3/port.o
                0x80004ff0                xPortStartScheduler
 .text.SCALLYield
                0x80005048       0x98 Srouce/ASF/thirdparty/freertos/freertos-7.0.0/source/portable/gcc/avr32_uc3/port.o
                0x80005048                SCALLYield
 .text.prvClearCcInt
                0x800050e0        0xa Srouce/ASF/thirdparty/freertos/freertos-7.0.0/source/portable/gcc/avr32_uc3/port.o
 *fill*         0x800050ea        0x2 d703d703
 .text.vPortExitCritical
                0x800050ec       0x20 Srouce/ASF/thirdparty/freertos/freertos-7.0.0/source/portable/gcc/avr32_uc3/port.o
                0x800050ec                vPortExitCritical
 .text.vTick    0x8000510c       0x84 Srouce/ASF/thirdparty/freertos/freertos-7.0.0/source/portable/gcc/avr32_uc3/port.o
 .text.__malloc_lock
                0x80005190        0xc Srouce/ASF/thirdparty/freertos/freertos-7.0.0/source/portable/gcc/avr32_uc3/port.o
                0x80005190                __malloc_lock
 .text.__malloc_unlock
                0x8000519c        0xc Srouce/ASF/thirdparty/freertos/freertos-7.0.0/source/portable/gcc/avr32_uc3/port.o
                0x8000519c                __malloc_unlock
 .text._read    0x800051a8       0x40 Srouce/ASF/thirdparty/freertos/freertos-7.0.0/source/portable/gcc/avr32_uc3/read.o
                0x800051a8                _read
 .text._write   0x800051e8       0x3c Srouce/ASF/thirdparty/freertos/freertos-7.0.0/source/portable/gcc/avr32_uc3/write.o
                0x800051e8                _write
 .text.vPortFree
                0x80005224       0x28 Srouce/ASF/thirdparty/freertos/freertos-7.0.0/source/portable/memmang/heap_3.o
                0x80005224                vPortFree
 .text.pvPortMalloc
                0x8000524c       0x28 Srouce/ASF/thirdparty/freertos/freertos-7.0.0/source/portable/memmang/heap_3.o
                0x8000524c                pvPortMalloc
 .text.prvCopyDataFromQueue
                0x80005274       0x30 Srouce/ASF/thirdparty/freertos/freertos-7.0.0/source/queue.o
 .text.xQueueReceiveFromISR
                0x800052a4       0x50 Srouce/ASF/thirdparty/freertos/freertos-7.0.0/source/queue.o
                0x800052a4                xQueueReceiveFromISR
 .text.prvUnlockQueue
                0x800052f4       0xa0 Srouce/ASF/thirdparty/freertos/freertos-7.0.0/source/queue.o
 .text.xQueueGenericReceive
                0x80005394      0x144 Srouce/ASF/thirdparty/freertos/freertos-7.0.0/source/queue.o
                0x80005394                xQueueGenericReceive
 .text.prvCopyDataToQueue
                0x800054d8       0x78 Srouce/ASF/thirdparty/freertos/freertos-7.0.0/source/queue.o
 .text.xQueueGenericSendFromISR
                0x80005550       0x50 Srouce/ASF/thirdparty/freertos/freertos-7.0.0/source/queue.o
                0x80005550                xQueueGenericSendFromISR
 .text.xQueueGenericSend
                0x800055a0      0x100 Srouce/ASF/thirdparty/freertos/freertos-7.0.0/source/queue.o
                0x800055a0                xQueueGenericSend
 .text.xQueueCreateMutex
                0x800056a0       0x58 Srouce/ASF/thirdparty/freertos/freertos-7.0.0/source/queue.o
                0x800056a0                xQueueCreateMutex
 .text.xQueueCreate
                0x800056f8       0x74 Srouce/ASF/thirdparty/freertos/freertos-7.0.0/source/queue.o
                0x800056f8                xQueueCreate
 .text.vTaskSuspendAll
                0x8000576c       0x10 Srouce/ASF/thirdparty/freertos/freertos-7.0.0/source/tasks.o
                0x8000576c                vTaskSuspendAll
 .text.vTaskSwitchContext
                0x8000577c       0x7c Srouce/ASF/thirdparty/freertos/freertos-7.0.0/source/tasks.o
                0x8000577c                vTaskSwitchContext
 .text.vTaskSetTimeOutState
                0x800057f8       0x18 Srouce/ASF/thirdparty/freertos/freertos-7.0.0/source/tasks.o
                0x800057f8                vTaskSetTimeOutState
 .text.vTaskMissedYield
                0x80005810        0xc Srouce/ASF/thirdparty/freertos/freertos-7.0.0/source/tasks.o
                0x80005810                vTaskMissedYield
 .text.xTaskGetCurrentTaskHandle
                0x8000581c        0xc Srouce/ASF/thirdparty/freertos/freertos-7.0.0/source/tasks.o
                0x8000581c                xTaskGetCurrentTaskHandle
 .text.vTaskPriorityDisinherit
                0x80005828       0x58 Srouce/ASF/thirdparty/freertos/freertos-7.0.0/source/tasks.o
                0x80005828                vTaskPriorityDisinherit
 .text.vTaskPriorityInherit
                0x80005880       0x84 Srouce/ASF/thirdparty/freertos/freertos-7.0.0/source/tasks.o
                0x80005880                vTaskPriorityInherit
 .text.xTaskRemoveFromEventList
                0x80005904       0x7c Srouce/ASF/thirdparty/freertos/freertos-7.0.0/source/tasks.o
                0x80005904                xTaskRemoveFromEventList
 .text.vTaskIncrementTick
                0x80005980      0x114 Srouce/ASF/thirdparty/freertos/freertos-7.0.0/source/tasks.o
                0x80005980                vTaskIncrementTick
 .text.xTaskCheckForTimeOut
                0x80005a94       0x70 Srouce/ASF/thirdparty/freertos/freertos-7.0.0/source/tasks.o
                0x80005a94                xTaskCheckForTimeOut
 .text.xTaskGetTickCount
                0x80005b04       0x24 Srouce/ASF/thirdparty/freertos/freertos-7.0.0/source/tasks.o
                0x80005b04                xTaskGetTickCount
 .text.xTaskResumeAll
                0x80005b28       0xe8 Srouce/ASF/thirdparty/freertos/freertos-7.0.0/source/tasks.o
                0x80005b28                xTaskResumeAll
 .text.prvAddCurrentTaskToDelayedList
                0x80005c10       0x5c Srouce/ASF/thirdparty/freertos/freertos-7.0.0/source/tasks.o
 .text.vTaskDelayUntil
                0x80005c6c       0x80 Srouce/ASF/thirdparty/freertos/freertos-7.0.0/source/tasks.o
                0x80005c6c                vTaskDelayUntil
 .text.vTaskPlaceOnEventList
                0x80005cec       0x58 Srouce/ASF/thirdparty/freertos/freertos-7.0.0/source/tasks.o
                0x80005cec                vTaskPlaceOnEventList
 .text.prvIdleTask
                0x80005d44       0x88 Srouce/ASF/thirdparty/freertos/freertos-7.0.0/source/tasks.o
 .text.xTaskGenericCreate
                0x80005dcc      0x1e8 Srouce/ASF/thirdparty/freertos/freertos-7.0.0/source/tasks.o
                0x80005dcc                xTaskGenericCreate
 .text.vTaskStartScheduler
                0x80005fb4       0x4c Srouce/ASF/thirdparty/freertos/freertos-7.0.0/source/tasks.o
                0x80005fb4                vTaskStartScheduler
 .text.PrintChar
                0x80006000        0x4 Srouce/Log/log.o
                0x80006000                PrintChar
 .text.PrintHex
                0x80006004       0xb2 Srouce/Log/log.o
                0x80006004                PrintHex
 .text.PrintDec
                0x800060b6       0xda Srouce/Log/log.o
                0x800060b6                PrintDec
 .text.log      0x80006190      0x18c Srouce/Log/log.o
                0x80006190                log
 .text.logFromISR
                0x8000631c      0x180 Srouce/Log/log.o
                0x8000631c                logFromISR
 .text.log_init
                0x8000649c       0x68 Srouce/Log/log.o
                0x8000649c                log_init
 .text.task_log
                0x80006504       0x44 Srouce/Log/log.o
 .text.main     0x80006548       0x8c Srouce/main.o
                0x80006548                main
 .text.gpio_enable_module_pin
                0x800065d4       0x52 Srouce/ASF/avr32/drivers/gpio/gpio.o
                0x800065d4                gpio_enable_module_pin
 *fill*         0x80006626        0x2 d703d703
 .text.gpio_enable_module
                0x80006628       0x30 Srouce/ASF/avr32/drivers/gpio/gpio.o
                0x80006628                gpio_enable_module
 .text._stext   0x80006658       0x40 Srouce/ASF/avr32/utils/startup/startup_uc3.o
                                 0x50 (size before relaxing)
                0x80006658                _stext
 .text.free     0x80006698       0x10 d:/program files (x86)/atmel/studio/7.0/toolchain/avr32/avr32-gnu-toolchain/bin/../lib/gcc/avr32/4.4.7/../../../../avr32/lib/ucr2\libc.a(lib_a-malloc.o)
                                 0x18 (size before relaxing)
                0x80006698                free
 .text.malloc   0x800066a8       0x10 d:/program files (x86)/atmel/studio/7.0/toolchain/avr32/avr32-gnu-toolchain/bin/../lib/gcc/avr32/4.4.7/../../../../avr32/lib/ucr2\libc.a(lib_a-malloc.o)
                                 0x18 (size before relaxing)
                0x800066a8                malloc
 .text._malloc_r
                0x800066b8      0x438 d:/program files (x86)/atmel/studio/7.0/toolchain/avr32/avr32-gnu-toolchain/bin/../lib/gcc/avr32/4.4.7/../../../../avr32/lib/ucr2\libc.a(lib_a-mallocr.o)
                                0x450 (size before relaxing)
                0x800066b8                _malloc_r
 .text          0x80006af0      0x148 d:/program files (x86)/atmel/studio/7.0/toolchain/avr32/avr32-gnu-toolchain/bin/../lib/gcc/avr32/4.4.7/../../../../avr32/lib/ucr2\libc.a(lib_a-memcpy.o)
                0x80006af0                memcpy
 .text.memset   0x80006c38        0xe d:/program files (x86)/atmel/studio/7.0/toolchain/avr32/avr32-gnu-toolchain/bin/../lib/gcc/avr32/4.4.7/../../../../avr32/lib/ucr2\libc.a(lib_a-memset.o)
                0x80006c38                memset
 *fill*         0x80006c46        0x2 d703d703
 .text._realloc_r
                0x80006c48      0x2c0 d:/program files (x86)/atmel/studio/7.0/toolchain/avr32/avr32-gnu-toolchain/bin/../lib/gcc/avr32/4.4.7/../../../../avr32/lib/ucr2\libc.a(lib_a-reallocr.o)
                                0x2e0 (size before relaxing)
                0x80006c48                _realloc_r
 .text._sbrk_r  0x80006f08       0x20 d:/program files (x86)/atmel/studio/7.0/toolchain/avr32/avr32-gnu-toolchain/bin/../lib/gcc/avr32/4.4.7/../../../../avr32/lib/ucr2\libc.a(lib_a-sbrkr.o)
                                 0x28 (size before relaxing)
                0x80006f08                _sbrk_r
 .text.sprintf  0x80006f28       0x3c d:/program files (x86)/atmel/studio/7.0/toolchain/avr32/avr32-gnu-toolchain/bin/../lib/gcc/avr32/4.4.7/../../../../avr32/lib/ucr2\libc.a(lib_a-sprintf.o)
                                 0x40 (size before relaxing)
                0x80006f28                sprintf
 .text.strlen   0x80006f64       0x16 d:/program files (x86)/atmel/studio/7.0/toolchain/avr32/avr32-gnu-toolchain/bin/../lib/gcc/avr32/4.4.7/../../../../avr32/lib/ucr2\libc.a(lib_a-strlen.o)
                0x80006f64                strlen
 *fill*         0x80006f7a        0x2 d703d703
 .text          0x80006f7c       0x20 d:/program files (x86)/atmel/studio/7.0/toolchain/avr32/avr32-gnu-toolchain/bin/../lib/gcc/avr32/4.4.7/../../../../avr32/lib/ucr2\libc.a(lib_a-strncpy.o)
                0x80006f7c                strncpy
 .text._close   0x80006f9c       0x14 d:/program files (x86)/atmel/studio/7.0/toolchain/avr32/avr32-gnu-toolchain/bin/../lib/gcc/avr32/4.4.7/../../../../avr32/lib/ucr2\libc.a(lib_a-syscalls.o)
                                 0x18 (size before relaxing)
                0x80006f9c                _close
 .text._lseek   0x80006fb0       0x14 d:/program files (x86)/atmel/studio/7.0/toolchain/avr32/avr32-gnu-toolchain/bin/../lib/gcc/avr32/4.4.7/../../../../avr32/lib/ucr2\libc.a(lib_a-syscalls.o)
                                 0x18 (size before relaxing)
                0x80006fb0                _lseek
 .text.isatty   0x80006fc4       0x14 d:/program files (x86)/atmel/studio/7.0/toolchain/avr32/avr32-gnu-toolchain/bin/../lib/gcc/avr32/4.4.7/../../../../avr32/lib/ucr2\libc.a(lib_a-syscalls.o)
                                 0x18 (size before relaxing)
                0x80006fc4                isatty
 .text._fstat_host
                0x80006fd8       0x14 d:/program files (x86)/atmel/studio/7.0/toolchain/avr32/avr32-gnu-toolchain/bin/../lib/gcc/avr32/4.4.7/../../../../avr32/lib/ucr2\libc.a(lib_a-syscalls.o)
                                 0x18 (size before relaxing)
                0x80006fd8                _fstat_host
 .text._fstat   0x80006fec       0x4c d:/program files (x86)/atmel/studio/7.0/toolchain/avr32/avr32-gnu-toolchain/bin/../lib/gcc/avr32/4.4.7/../../../../avr32/lib/ucr2\libc.a(lib_a-syscalls.o)
                                 0x50 (size before relaxing)
                0x80006fec                _fstat
 .text._sbrk    0x80007038       0x38 d:/program files (x86)/atmel/studio/7.0/toolchain/avr32/avr32-gnu-toolchain/bin/../lib/gcc/avr32/4.4.7/../../../../avr32/lib/ucr2\libc.a(lib_a-syscalls.o)
                                 0x40 (size before relaxing)
                0x80007038                _sbrk
 .text.get_arg  0x80007070      0x314 d:/program files (x86)/atmel/studio/7.0/toolchain/avr32/avr32-gnu-toolchain/bin/../lib/gcc/avr32/4.4.7/../../../../avr32/lib/ucr2\libc.a(lib_a-vfprintf.o)
                                0x324 (size before relaxing)
 .text.__sprint_r
                0x80007384       0x1c d:/program files (x86)/atmel/studio/7.0/toolchain/avr32/avr32-gnu-toolchain/bin/../lib/gcc/avr32/4.4.7/../../../../avr32/lib/ucr2\libc.a(lib_a-vfprintf.o)
                                 0x20 (size before relaxing)
 .text._vfprintf_r
                0x800073a0     0x1f14 d:/program files (x86)/atmel/studio/7.0/toolchain/avr32/avr32-gnu-toolchain/bin/../lib/gcc/avr32/4.4.7/../../../../avr32/lib/ucr2\libc.a(lib_a-vfprintf.o)
                               0x1f9c (size before relaxing)
                0x800073a0                _vfprintf_r
 .text.__swsetup_r
                0x800092b4       0xdc d:/program files (x86)/atmel/studio/7.0/toolchain/avr32/avr32-gnu-toolchain/bin/../lib/gcc/avr32/4.4.7/../../../../avr32/lib/ucr2\libc.a(lib_a-wsetup.o)
                                 0xe8 (size before relaxing)
                0x800092b4                __swsetup_r
 .text.quorem   0x80009390      0x120 d:/program files (x86)/atmel/studio/7.0/toolchain/avr32/avr32-gnu-toolchain/bin/../lib/gcc/avr32/4.4.7/../../../../avr32/lib/ucr2\libc.a(lib_a-dtoa.o)
                                0x124 (size before relaxing)
 .text._dtoa_r  0x800094b0      0xbdc d:/program files (x86)/atmel/studio/7.0/toolchain/avr32/avr32-gnu-toolchain/bin/../lib/gcc/avr32/4.4.7/../../../../avr32/lib/ucr2\libc.a(lib_a-dtoa.o)
                                0xc90 (size before relaxing)
                0x800094b0                _dtoa_r
 .text.__errno  0x8000a08c        0xc d:/program files (x86)/atmel/studio/7.0/toolchain/avr32/avr32-gnu-toolchain/bin/../lib/gcc/avr32/4.4.7/../../../../avr32/lib/ucr2\libc.a(lib_a-errno.o)
                0x8000a08c                __errno
 .text._fflush_r
                0x8000a098      0x10c d:/program files (x86)/atmel/studio/7.0/toolchain/avr32/avr32-gnu-toolchain/bin/../lib/gcc/avr32/4.4.7/../../../../avr32/lib/ucr2\libc.a(lib_a-fflush.o)
                                0x118 (size before relaxing)
                0x8000a098                _fflush_r
 .text.__sfp_lock_acquire
                0x8000a1a4        0x2 d:/program files (x86)/atmel/studio/7.0/toolchain/avr32/avr32-gnu-toolchain/bin/../lib/gcc/avr32/4.4.7/../../../../avr32/lib/ucr2\libc.a(lib_a-findfp.o)
                0x8000a1a4                __sfp_lock_acquire
 .text.__sfp_lock_release
                0x8000a1a6        0x2 d:/program files (x86)/atmel/studio/7.0/toolchain/avr32/avr32-gnu-toolchain/bin/../lib/gcc/avr32/4.4.7/../../../../avr32/lib/ucr2\libc.a(lib_a-findfp.o)
                0x8000a1a6                __sfp_lock_release
 .text._cleanup_r
                0x8000a1a8        0xc d:/program files (x86)/atmel/studio/7.0/toolchain/avr32/avr32-gnu-toolchain/bin/../lib/gcc/avr32/4.4.7/../../../../avr32/lib/ucr2\libc.a(lib_a-findfp.o)
                                 0x14 (size before relaxing)
                0x8000a1a8                _cleanup_r
 .text.__sfmoreglue
                0x8000a1b4       0x28 d:/program files (x86)/atmel/studio/7.0/toolchain/avr32/avr32-gnu-toolchain/bin/../lib/gcc/avr32/4.4.7/../../../../avr32/lib/ucr2\libc.a(lib_a-findfp.o)
                                 0x30 (size before relaxing)
                0x8000a1b4                __sfmoreglue
 .text.__sfp    0x8000a1dc       0x6c d:/program files (x86)/atmel/studio/7.0/toolchain/avr32/avr32-gnu-toolchain/bin/../lib/gcc/avr32/4.4.7/../../../../avr32/lib/ucr2\libc.a(lib_a-findfp.o)
                                 0x7c (size before relaxing)
                0x8000a1dc                __sfp
 .text.__sinit  0x8000a248       0x9c d:/program files (x86)/atmel/studio/7.0/toolchain/avr32/avr32-gnu-toolchain/bin/../lib/gcc/avr32/4.4.7/../../../../avr32/lib/ucr2\libc.a(lib_a-findfp.o)
                                 0xb0 (size before relaxing)
                0x8000a248                __sinit
 .text._malloc_trim_r
                0x8000a2e4       0x98 d:/program files (x86)/atmel/studio/7.0/toolchain/avr32/avr32-gnu-toolchain/bin/../lib/gcc/avr32/4.4.7/../../../../avr32/lib/ucr2\libc.a(lib_a-freer.o)
                                 0xa8 (size before relaxing)
                0x8000a2e4                _malloc_trim_r
 .text._free_r  0x8000a37c      0x18c d:/program files (x86)/atmel/studio/7.0/toolchain/avr32/avr32-gnu-toolchain/bin/../lib/gcc/avr32/4.4.7/../../../../avr32/lib/ucr2\libc.a(lib_a-freer.o)
                                0x1a0 (size before relaxing)
                0x8000a37c                _free_r
 .text.__sfvwrite_r
                0x8000a508      0x294 d:/program files (x86)/atmel/studio/7.0/toolchain/avr32/avr32-gnu-toolchain/bin/../lib/gcc/avr32/4.4.7/../../../../avr32/lib/ucr2\libc.a(lib_a-fvwrite.o)
                                0x2c4 (size before relaxing)
                0x8000a508                __sfvwrite_r
 .text._fwalk   0x8000a79c       0x4c d:/program files (x86)/atmel/studio/7.0/toolchain/avr32/avr32-gnu-toolchain/bin/../lib/gcc/avr32/4.4.7/../../../../avr32/lib/ucr2\libc.a(lib_a-fwalk.o)
                                 0x54 (size before relaxing)
                0x8000a79c                _fwalk
 .text._localeconv_r
                0x8000a7e8        0x8 d:/program files (x86)/atmel/studio/7.0/toolchain/avr32/avr32-gnu-toolchain/bin/../lib/gcc/avr32/4.4.7/../../../../avr32/lib/ucr2\libc.a(lib_a-locale.o)
                0x8000a7e8                _localeconv_r
 .text.__smakebuf_r
                0x8000a7f0       0xbc d:/program files (x86)/atmel/studio/7.0/toolchain/avr32/avr32-gnu-toolchain/bin/../lib/gcc/avr32/4.4.7/../../../../avr32/lib/ucr2\libc.a(lib_a-makebuf.o)
                                 0xcc (size before relaxing)
                0x8000a7f0                __smakebuf_r
 .text.memchr   0x8000a8ac       0x16 d:/program files (x86)/atmel/studio/7.0/toolchain/avr32/avr32-gnu-toolchain/bin/../lib/gcc/avr32/4.4.7/../../../../avr32/lib/ucr2\libc.a(lib_a-memchr.o)
                0x8000a8ac                memchr
 .text.memmove  0x8000a8c2       0x3e d:/program files (x86)/atmel/studio/7.0/toolchain/avr32/avr32-gnu-toolchain/bin/../lib/gcc/avr32/4.4.7/../../../../avr32/lib/ucr2\libc.a(lib_a-memmove.o)
                0x8000a8c2                memmove
 .text.__hi0bits
                0x8000a900       0x60 d:/program files (x86)/atmel/studio/7.0/toolchain/avr32/avr32-gnu-toolchain/bin/../lib/gcc/avr32/4.4.7/../../../../avr32/lib/ucr2\libc.a(lib_a-mprec.o)
                0x8000a900                __hi0bits
 .text.__lo0bits
                0x8000a960       0x8e d:/program files (x86)/atmel/studio/7.0/toolchain/avr32/avr32-gnu-toolchain/bin/../lib/gcc/avr32/4.4.7/../../../../avr32/lib/ucr2\libc.a(lib_a-mprec.o)
                0x8000a960                __lo0bits
 .text.__mcmp   0x8000a9ee       0x32 d:/program files (x86)/atmel/studio/7.0/toolchain/avr32/avr32-gnu-toolchain/bin/../lib/gcc/avr32/4.4.7/../../../../avr32/lib/ucr2\libc.a(lib_a-mprec.o)
                0x8000a9ee                __mcmp
 .text._Bfree   0x8000aa20       0x34 d:/program files (x86)/atmel/studio/7.0/toolchain/avr32/avr32-gnu-toolchain/bin/../lib/gcc/avr32/4.4.7/../../../../avr32/lib/ucr2\libc.a(lib_a-mprec.o)
                                 0x38 (size before relaxing)
                0x8000aa20                _Bfree
 .text._Balloc  0x8000aa54       0x70 d:/program files (x86)/atmel/studio/7.0/toolchain/avr32/avr32-gnu-toolchain/bin/../lib/gcc/avr32/4.4.7/../../../../avr32/lib/ucr2\libc.a(lib_a-mprec.o)
                                 0x78 (size before relaxing)
                0x8000aa54                _Balloc
 .text.__d2b    0x8000aac4       0xa0 d:/program files (x86)/atmel/studio/7.0/toolchain/avr32/avr32-gnu-toolchain/bin/../lib/gcc/avr32/4.4.7/../../../../avr32/lib/ucr2\libc.a(lib_a-mprec.o)
                                 0xb4 (size before relaxing)
                0x8000aac4                __d2b
 .text.__mdiff  0x8000ab64       0xd0 d:/program files (x86)/atmel/studio/7.0/toolchain/avr32/avr32-gnu-toolchain/bin/../lib/gcc/avr32/4.4.7/../../../../avr32/lib/ucr2\libc.a(lib_a-mprec.o)
                                 0xd8 (size before relaxing)
                0x8000ab64                __mdiff
 .text.__lshift
                0x8000ac34       0x88 d:/program files (x86)/atmel/studio/7.0/toolchain/avr32/avr32-gnu-toolchain/bin/../lib/gcc/avr32/4.4.7/../../../../avr32/lib/ucr2\libc.a(lib_a-mprec.o)
                                 0x94 (size before relaxing)
                0x8000ac34                __lshift
 .text.__multiply
                0x8000acbc      0x100 d:/program files (x86)/atmel/studio/7.0/toolchain/avr32/avr32-gnu-toolchain/bin/../lib/gcc/avr32/4.4.7/../../../../avr32/lib/ucr2\libc.a(lib_a-mprec.o)
                                0x108 (size before relaxing)
                0x8000acbc                __multiply
 .text.__i2b    0x8000adbc       0x10 d:/program files (x86)/atmel/studio/7.0/toolchain/avr32/avr32-gnu-toolchain/bin/../lib/gcc/avr32/4.4.7/../../../../avr32/lib/ucr2\libc.a(lib_a-mprec.o)
                                 0x18 (size before relaxing)
                0x8000adbc                __i2b
 .text.__multadd
                0x8000adcc       0x7c d:/program files (x86)/atmel/studio/7.0/toolchain/avr32/avr32-gnu-toolchain/bin/../lib/gcc/avr32/4.4.7/../../../../avr32/lib/ucr2\libc.a(lib_a-mprec.o)
                                 0x88 (size before relaxing)
                0x8000adcc                __multadd
 .text.__pow5mult
                0x8000ae48       0x8c d:/program files (x86)/atmel/studio/7.0/toolchain/avr32/avr32-gnu-toolchain/bin/../lib/gcc/avr32/4.4.7/../../../../avr32/lib/ucr2\libc.a(lib_a-mprec.o)
                                 0xac (size before relaxing)
                0x8000ae48                __pow5mult
 .text.__isinfd
                0x8000aed4       0x2a d:/program files (x86)/atmel/studio/7.0/toolchain/avr32/avr32-gnu-toolchain/bin/../lib/gcc/avr32/4.4.7/../../../../avr32/lib/ucr2\libc.a(lib_a-s_isinfd.o)
                0x8000aed4                __isinfd
 .text.__isnand
                0x8000aefe       0x1c d:/program files (x86)/atmel/studio/7.0/toolchain/avr32/avr32-gnu-toolchain/bin/../lib/gcc/avr32/4.4.7/../../../../avr32/lib/ucr2\libc.a(lib_a-s_isnand.o)
                0x8000aefe                __isnand
 *fill*         0x8000af1a        0x2 d703d703
 .text.__sclose
                0x8000af1c        0x8 d:/program files (x86)/atmel/studio/7.0/toolchain/avr32/avr32-gnu-toolchain/bin/../lib/gcc/avr32/4.4.7/../../../../avr32/lib/ucr2\libc.a(lib_a-stdio.o)
                                 0x10 (size before relaxing)
                0x8000af1c                __sclose
 .text.__sseek  0x8000af24       0x20 d:/program files (x86)/atmel/studio/7.0/toolchain/avr32/avr32-gnu-toolchain/bin/../lib/gcc/avr32/4.4.7/../../../../avr32/lib/ucr2\libc.a(lib_a-stdio.o)
                                 0x28 (size before relaxing)
                0x8000af24                __sseek
 .text.__swrite
                0x8000af44       0x2c d:/program files (x86)/atmel/studio/7.0/toolchain/avr32/avr32-gnu-toolchain/bin/../lib/gcc/avr32/4.4.7/../../../../avr32/lib/ucr2\libc.a(lib_a-stdio.o)
                                 0x38 (size before relaxing)
                0x8000af44                __swrite
 .text.__sread  0x8000af70       0x1c d:/program files (x86)/atmel/studio/7.0/toolchain/avr32/avr32-gnu-toolchain/bin/../lib/gcc/avr32/4.4.7/../../../../avr32/lib/ucr2\libc.a(lib_a-stdio.o)
                                 0x24 (size before relaxing)
                0x8000af70                __sread
 .text._write_r
                0x8000af8c       0x28 d:/program files (x86)/atmel/studio/7.0/toolchain/avr32/avr32-gnu-toolchain/bin/../lib/gcc/avr32/4.4.7/../../../../avr32/lib/ucr2\libc.a(lib_a-writer.o)
                                 0x2c (size before relaxing)
                0x8000af8c                _write_r
 .text._calloc_r
                0x8000afb4       0x58 d:/program files (x86)/atmel/studio/7.0/toolchain/avr32/avr32-gnu-toolchain/bin/../lib/gcc/avr32/4.4.7/../../../../avr32/lib/ucr2\libc.a(lib_a-callocr.o)
                                 0x60 (size before relaxing)
                0x8000afb4                _calloc_r
 .text._close_r
                0x8000b00c       0x20 d:/program files (x86)/atmel/studio/7.0/toolchain/avr32/avr32-gnu-toolchain/bin/../lib/gcc/avr32/4.4.7/../../../../avr32/lib/ucr2\libc.a(lib_a-closer.o)
                                 0x28 (size before relaxing)
                0x8000b00c                _close_r
 .text._fclose_r
                0x8000b02c       0xb8 d:/program files (x86)/atmel/studio/7.0/toolchain/avr32/avr32-gnu-toolchain/bin/../lib/gcc/avr32/4.4.7/../../../../avr32/lib/ucr2\libc.a(lib_a-fclose.o)
                                 0xd0 (size before relaxing)
                0x8000b02c                _fclose_r
 .text.fclose   0x8000b0e4       0x10 d:/program files (x86)/atmel/studio/7.0/toolchain/avr32/avr32-gnu-toolchain/bin/../lib/gcc/avr32/4.4.7/../../../../avr32/lib/ucr2\libc.a(lib_a-fclose.o)
                                 0x18 (size before relaxing)
                0x8000b0e4                fclose
 .text._fstat_r
                0x8000b0f4       0x24 d:/program files (x86)/atmel/studio/7.0/toolchain/avr32/avr32-gnu-toolchain/bin/../lib/gcc/avr32/4.4.7/../../../../avr32/lib/ucr2\libc.a(lib_a-fstatr.o)
                                 0x2c (size before relaxing)
                0x8000b0f4                _fstat_r
 .text._lseek_r
                0x8000b118       0x28 d:/program files (x86)/atmel/studio/7.0/toolchain/avr32/avr32-gnu-toolchain/bin/../lib/gcc/avr32/4.4.7/../../../../avr32/lib/ucr2\libc.a(lib_a-lseekr.o)
                                 0x2c (size before relaxing)
                0x8000b118                _lseek_r
 .text._read_r  0x8000b140       0x28 d:/program files (x86)/atmel/studio/7.0/toolchain/avr32/avr32-gnu-toolchain/bin/../lib/gcc/avr32/4.4.7/../../../../avr32/lib/ucr2\libc.a(lib_a-readr.o)
                                 0x2c (size before relaxing)
                0x8000b140                _read_r
 .text          0x8000b168      0x1d4 d:/program files (x86)/atmel/studio/7.0/toolchain/avr32/avr32-gnu-toolchain/bin/../lib/gcc/avr32/4.4.7/ucr2\libgcc.a(_avr32_f64_mul.o)
                0x8000b168                __avr32_f64_mul
 .text          0x8000b33c      0x2b0 d:/program files (x86)/atmel/studio/7.0/toolchain/avr32/avr32-gnu-toolchain/bin/../lib/gcc/avr32/4.4.7/ucr2\libgcc.a(_avr32_f64_addsub.o)
                0x8000b340                __avr32_f64_sub
                0x8000b4dc                __avr32_f64_add
 .text          0x8000b5ec       0x2a d:/program files (x86)/atmel/studio/7.0/toolchain/avr32/avr32-gnu-toolchain/bin/../lib/gcc/avr32/4.4.7/ucr2\libgcc.a(_avr32_f64_to_s32.o)
                0x8000b5ec                __avr32_f64_to_u32
                0x8000b5f0                __avr32_f64_to_s32
 .text          0x8000b616       0xe8 d:/program files (x86)/atmel/studio/7.0/toolchain/avr32/avr32-gnu-toolchain/bin/../lib/gcc/avr32/4.4.7/ucr2\libgcc.a(_avr32_s32_to_f64.o)
                0x8000b616                __avr32_u32_to_f64
                0x8000b61e                __avr32_s32_to_f64
 .text          0x8000b6fe       0x26 d:/program files (x86)/atmel/studio/7.0/toolchain/avr32/avr32-gnu-toolchain/bin/../lib/gcc/avr32/4.4.7/ucr2\libgcc.a(_avr32_f64_cmp_eq.o)
                0x8000b6fe                __avr32_f64_cmp_eq
 .text          0x8000b724       0x68 d:/program files (x86)/atmel/studio/7.0/toolchain/avr32/avr32-gnu-toolchain/bin/../lib/gcc/avr32/4.4.7/ucr2\libgcc.a(_avr32_f64_cmp_ge.o)
                0x8000b724                __avr32_f64_cmp_ge
 .text          0x8000b78c       0x68 d:/program files (x86)/atmel/studio/7.0/toolchain/avr32/avr32-gnu-toolchain/bin/../lib/gcc/avr32/4.4.7/ucr2\libgcc.a(_avr32_f64_cmp_lt.o)
                0x8000b78c                __avr32_f64_cmp_lt
 .text          0x8000b7f4      0x318 d:/program files (x86)/atmel/studio/7.0/toolchain/avr32/avr32-gnu-toolchain/bin/../lib/gcc/avr32/4.4.7/ucr2\libgcc.a(_avr32_f64_div.o)
                0x8000b7f4                __avr32_f64_div
 .text          0x8000bb0c      0x264 d:/program files (x86)/atmel/studio/7.0/toolchain/avr32/avr32-gnu-toolchain/bin/../lib/gcc/avr32/4.4.7/ucr2\libgcc.a(_udivdi3.o)
                0x8000bb0c                __avr32_udiv64
                0x8000bb0c                __udivdi3
 .text          0x8000bd70      0x20c d:/program files (x86)/atmel/studio/7.0/toolchain/avr32/avr32-gnu-toolchain/bin/../lib/gcc/avr32/4.4.7/ucr2\libgcc.a(_umoddi3.o)
                0x8000bd70                __avr32_umod64
                0x8000bd70                __umoddi3
 *(.text.*personality*)
 *(.gnu.warning)

.exception      0x8000c000      0x200
 .exception     0x8000c000      0x200 Srouce/ASF/thirdparty/freertos/freertos-7.0.0/source/portable/gcc/avr32_uc3/exception.o
                0x8000c000                _evba
                0x8000c104                _int0
                0x8000c112                _int1
                0x8000c120                _int2
                0x8000c12e                _int3
                0x8000c13c                ipr_val

.fini
 *(.fini)
                0x8000c200                PROVIDE (__etext, .)
                0x8000c200                PROVIDE (_etext, .)
                0x8000c200                PROVIDE (etext, .)

.rodata         0x8000c200     0x179c
 *(.rodata .rodata.* .gnu.linkonce.r.*)
 .rodata.str1.4
                0x8000c200      0x7ca Srouce/Application/app/app.o
                                0x7cc (size before relaxing)
 *fill*         0x8000c9ca        0x2 
 .rodata.CSWTCH.35
                0x8000c9cc       0x48 Srouce/Application/radio/ambe.o
 .rodata.AMBE_AudioData
                0x8000ca14      0x5b0 Srouce/Application/radio/AMBE_audio_2.o
                0x8000ca14                AMBE_AudioData
 .rodata.str1.4
                0x8000cfc4        0xb Srouce/Application/radio/payload.o
                                  0xc (size before relaxing)
 *fill*         0x8000cfcf        0x1 
 .rodata.str1.4
                0x8000cfd0       0x5c Srouce/Application/radio/physical.o
 .rodata.str1.4
                0x8000d02c        0x8 Srouce/Application/radio/xcmp.o
 .rodata.str1.4
                0x8000d034       0x19 Srouce/Application/radio/xnl.o
                                 0x24 (size before relaxing)
 *fill*         0x8000d04d        0x3 
 .rodata.TWI_GPIO_MAP.10354
                0x8000d050       0x10 Srouce/Application/rtc/rtc.o
 .rodata.tc_interrupt.10158
                0x8000d060        0x4 Srouce/Application/timers/timer.o
 .rodata.waveform_opt.10157
                0x8000d064        0x8 Srouce/Application/timers/timer.o
 .rodata._int_handler_table
                0x8000d06c       0x98 Srouce/ASF/avr32/drivers/intc/intc.o
 .rodata.str1.4
                0x8000d104        0x5 Srouce/ASF/thirdparty/freertos/freertos-7.0.0/source/tasks.o
                                  0x8 (size before relaxing)
 *fill*         0x8000d109        0x3 
 .rodata.log    0x8000d10c      0x150 Srouce/Log/log.o
 .rodata.logFromISR
                0x8000d25c      0x150 Srouce/Log/log.o
 .rodata.USART_OPTIONS.11277
                0x8000d3ac        0xc Srouce/Log/log.o
 .rodata.str1.4
                0x8000d3b8       0x3c Srouce/Log/log.o
 .rodata.USART_GPIO_MAP.11276
                0x8000d3f4       0x10 Srouce/Log/log.o
 .rodata.str1.4
                0x8000d404       0x14 Srouce/main.o
 .rodata.get_arg
                0x8000d418       0x3c d:/program files (x86)/atmel/studio/7.0/toolchain/avr32/avr32-gnu-toolchain/bin/../lib/gcc/avr32/4.4.7/../../../../avr32/lib/ucr2\libc.a(lib_a-vfprintf.o)
 .rodata._vfprintf_r
                0x8000d454      0x164 d:/program files (x86)/atmel/studio/7.0/toolchain/avr32/avr32-gnu-toolchain/bin/../lib/gcc/avr32/4.4.7/../../../../avr32/lib/ucr2\libc.a(lib_a-vfprintf.o)
 .rodata.state_table
                0x8000d5b8       0x6c d:/program files (x86)/atmel/studio/7.0/toolchain/avr32/avr32-gnu-toolchain/bin/../lib/gcc/avr32/4.4.7/../../../../avr32/lib/ucr2\libc.a(lib_a-vfprintf.o)
 .rodata.action_table
                0x8000d624       0x6c d:/program files (x86)/atmel/studio/7.0/toolchain/avr32/avr32-gnu-toolchain/bin/../lib/gcc/avr32/4.4.7/../../../../avr32/lib/ucr2\libc.a(lib_a-vfprintf.o)
 .rodata.str1.4
                0x8000d690       0x3a d:/program files (x86)/atmel/studio/7.0/toolchain/avr32/avr32-gnu-toolchain/bin/../lib/gcc/avr32/4.4.7/../../../../avr32/lib/ucr2\libc.a(lib_a-vfprintf.o)
                                 0x3c (size before relaxing)
 *fill*         0x8000d6ca        0x2 
 .rodata.blanks.3430
                0x8000d6cc       0x10 d:/program files (x86)/atmel/studio/7.0/toolchain/avr32/avr32-gnu-toolchain/bin/../lib/gcc/avr32/4.4.7/../../../../avr32/lib/ucr2\libc.a(lib_a-vfprintf.o)
 .rodata.zeroes.3431
                0x8000d6dc       0x10 d:/program files (x86)/atmel/studio/7.0/toolchain/avr32/avr32-gnu-toolchain/bin/../lib/gcc/avr32/4.4.7/../../../../avr32/lib/ucr2\libc.a(lib_a-vfprintf.o)
 .rodata.chclass
                0x8000d6ec      0x100 d:/program files (x86)/atmel/studio/7.0/toolchain/avr32/avr32-gnu-toolchain/bin/../lib/gcc/avr32/4.4.7/../../../../avr32/lib/ucr2\libc.a(lib_a-vfprintf.o)
 .rodata.str1.4
                0x8000d7ec       0x10 d:/program files (x86)/atmel/studio/7.0/toolchain/avr32/avr32-gnu-toolchain/bin/../lib/gcc/avr32/4.4.7/../../../../avr32/lib/ucr2\libc.a(lib_a-dtoa.o)
                                 0x14 (size before relaxing)
 .rodata.__sf_fake_stdin
                0x8000d7fc       0x20 d:/program files (x86)/atmel/studio/7.0/toolchain/avr32/avr32-gnu-toolchain/bin/../lib/gcc/avr32/4.4.7/../../../../avr32/lib/ucr2\libc.a(lib_a-findfp.o)
                0x8000d7fc                __sf_fake_stdin
 .rodata.__sf_fake_stdout
                0x8000d81c       0x20 d:/program files (x86)/atmel/studio/7.0/toolchain/avr32/avr32-gnu-toolchain/bin/../lib/gcc/avr32/4.4.7/../../../../avr32/lib/ucr2\libc.a(lib_a-findfp.o)
                0x8000d81c                __sf_fake_stdout
 .rodata.__sf_fake_stderr
                0x8000d83c       0x20 d:/program files (x86)/atmel/studio/7.0/toolchain/avr32/avr32-gnu-toolchain/bin/../lib/gcc/avr32/4.4.7/../../../../avr32/lib/ucr2\libc.a(lib_a-findfp.o)
                0x8000d83c                __sf_fake_stderr
 .rodata.str1.4
                0x8000d85c        0x2 d:/program files (x86)/atmel/studio/7.0/toolchain/avr32/avr32-gnu-toolchain/bin/../lib/gcc/avr32/4.4.7/../../../../avr32/lib/ucr2\libc.a(lib_a-impure.o)
                                  0x4 (size before relaxing)
 *fill*         0x8000d85e        0x2 
 .rodata._global_impure_ptr
                0x8000d860        0x4 d:/program files (x86)/atmel/studio/7.0/toolchain/avr32/avr32-gnu-toolchain/bin/../lib/gcc/avr32/4.4.7/../../../../avr32/lib/ucr2\libc.a(lib_a-impure.o)
                0x8000d860                _global_impure_ptr
 .rodata.lconv  0x8000d864       0x30 d:/program files (x86)/atmel/studio/7.0/toolchain/avr32/avr32-gnu-toolchain/bin/../lib/gcc/avr32/4.4.7/../../../../avr32/lib/ucr2\libc.a(lib_a-locale.o)
 .rodata.str1.4
                0x8000d894        0xc d:/program files (x86)/atmel/studio/7.0/toolchain/avr32/avr32-gnu-toolchain/bin/../lib/gcc/avr32/4.4.7/../../../../avr32/lib/ucr2\libc.a(lib_a-locale.o)
                                 0x18 (size before relaxing)
 .rodata.p05.2471
                0x8000d8a0        0xc d:/program files (x86)/atmel/studio/7.0/toolchain/avr32/avr32-gnu-toolchain/bin/../lib/gcc/avr32/4.4.7/../../../../avr32/lib/ucr2\libc.a(lib_a-mprec.o)
 .rodata.__mprec_tens
                0x8000d8ac       0xc8 d:/program files (x86)/atmel/studio/7.0/toolchain/avr32/avr32-gnu-toolchain/bin/../lib/gcc/avr32/4.4.7/../../../../avr32/lib/ucr2\libc.a(lib_a-mprec.o)
                0x8000d8ac                __mprec_tens
 .rodata.__mprec_bigtens
                0x8000d974       0x28 d:/program files (x86)/atmel/studio/7.0/toolchain/avr32/avr32-gnu-toolchain/bin/../lib/gcc/avr32/4.4.7/../../../../avr32/lib/ucr2\libc.a(lib_a-mprec.o)
                0x8000d974                __mprec_bigtens

.rodata1
 *(.rodata1)

.eh_frame_hdr
 *(.eh_frame_hdr)

.eh_frame
 *(.eh_frame)

.gcc_except_table
 *(.gcc_except_table)
 *(.gcc_except_table.*)

.lalign         0x8000d99c        0x4
                0x8000d9a0                . = ALIGN (0x8)
 *fill*         0x8000d99c        0x4 
                0x8000d9a0                PROVIDE (_data_lma, .)
                0x00000004                . = ORIGIN (INTRAM)

.dalign         0x00000004        0x4
                0x00000008                . = ALIGN (0x8)
 *fill*         0x00000004        0x4 
                0x00000008                PROVIDE (_data, .)

.eh_frame
 *(.eh_frame)

.gcc_except_table
 *(.gcc_except_table)
 *(.gcc_except_table.*)

.tdata
 *(.tdata .tdata.* .gnu.linkonce.td.*)

.tbss
 *(.tbss .tbss.* .gnu.linkonce.tb.*)
 *(.tcommon)
                0x00000008                PROVIDE (__preinit_array_start, ALIGN (0x4))

.preinit_array
 *(.preinit_array)
                0x00000008                PROVIDE (__preinit_array_end, .)
                0x00000008                PROVIDE (__init_array_start, .)

.init_array
 *(.init_array)
                0x00000008                PROVIDE (__init_array_end, .)
                0x00000008                PROVIDE (__fini_array_start, .)

.fini_array
 *(.fini_array)
                0x00000008                PROVIDE (__fini_array_end, .)

.ctors
 *crtbegin*.o(.ctors)
 *(EXCLUDE_FILE(*crtend*.o) .ctors)
 *(SORT(.ctors.*))
 *(.ctors)

.dtors
 *crtbegin*.o(.dtors)
 *(EXCLUDE_FILE(*crtend*.o) .dtors)
 *(SORT(.dtors.*))
 *(.dtors)

.jcr
 *(.jcr)

.data.rel.ro
 *(.data.rel.ro.local)
 *(.data.rel.ro*)

.dynamic
 *(.dynamic)

.got
 *(.got.plt)
 *(.got)

.ramtext
 *(.ramtext .ramtext.*)

.ddalign        0x00000008        0x0 load address 0x8000d9a0
                0x00000008                . = ALIGN (0x8)

.data           0x00000008      0xa2c load address 0x8000d9a0
 *(.data .data.* .gnu.linkonce.d.*)
 .data.the_app_list
                0x00000008      0x4ec Srouce/Application/app/app.o
 .data.xnl_proc_list
                0x000004f4       0x34 Srouce/Application/radio/xnl.o
 .data.ulCriticalNesting
                0x00000528        0x4 Srouce/ASF/thirdparty/freertos/freertos-7.0.0/source/portable/gcc/avr32_uc3/port.o
                0x00000528                ulCriticalNesting
 .data.xNextTaskUnblockTime
                0x0000052c        0x4 Srouce/ASF/thirdparty/freertos/freertos-7.0.0/source/tasks.o
 .data.__malloc_av_
                0x00000530      0x408 d:/program files (x86)/atmel/studio/7.0/toolchain/avr32/avr32-gnu-toolchain/bin/../lib/gcc/avr32/4.4.7/../../../../avr32/lib/ucr2\libc.a(lib_a-mallocr.o)
                0x00000530                __malloc_av_
 .data.__malloc_trim_threshold
                0x00000938        0x4 d:/program files (x86)/atmel/studio/7.0/toolchain/avr32/avr32-gnu-toolchain/bin/../lib/gcc/avr32/4.4.7/../../../../avr32/lib/ucr2\libc.a(lib_a-mallocr.o)
                0x00000938                __malloc_trim_threshold
 .data.__malloc_sbrk_base
                0x0000093c        0x4 d:/program files (x86)/atmel/studio/7.0/toolchain/avr32/avr32-gnu-toolchain/bin/../lib/gcc/avr32/4.4.7/../../../../avr32/lib/ucr2\libc.a(lib_a-mallocr.o)
                0x0000093c                __malloc_sbrk_base
 .data.impure_data
                0x00000940       0xf0 d:/program files (x86)/atmel/studio/7.0/toolchain/avr32/avr32-gnu-toolchain/bin/../lib/gcc/avr32/4.4.7/../../../../avr32/lib/ucr2\libc.a(lib_a-impure.o)
 .data._impure_ptr
                0x00000a30        0x4 d:/program files (x86)/atmel/studio/7.0/toolchain/avr32/avr32-gnu-toolchain/bin/../lib/gcc/avr32/4.4.7/../../../../avr32/lib/ucr2\libc.a(lib_a-impure.o)
                0x00000a30                _impure_ptr
 *(.gnu.linkonce.d.*personality*)

.data1
 *(.data1)

.balign         0x00000a34        0x4 load address 0x8000e3cc
                0x00000a38                . = ALIGN (0x8)
 *fill*         0x00000a34        0x4 
                0x00000a38                PROVIDE (_edata, .)
                0x00000a38                PROVIDE (edata, .)
                0x00000a38                __bss_start = .

.bss            0x00000a38     0x36c8
 *(.dynbss)
 *(.bss .bss.* .gnu.linkonce.b.*)
 .bss.xLastWakeTime.11501
                0x00000a38        0x4 Srouce/Application/app/app.o
 .bss.AMBE_rx_flag
                0x00000a3c        0x1 Srouce/Application/app/app.o
                0x00000a3c                AMBE_rx_flag
 *fill*         0x00000a3d        0x3 
 .bss.res.11491
                0x00000a40        0x4 Srouce/Application/app/app.o
 .bss.AMBE_tx_flag
                0x00000a44        0x1 Srouce/Application/app/app.o
                0x00000a44                AMBE_tx_flag
 .bss.Radio_Transmit_State
                0x00000a45        0x1 Srouce/Application/app/app.o
                0x00000a45                Radio_Transmit_State
 .bss.times_counter.11533
                0x00000a46        0x1 Srouce/Application/app/app.o
 .bss.AMBE_Media
                0x00000a47        0x1 Srouce/Application/app/app.o
                0x00000a47                AMBE_Media
 .bss.VF_SN     0x00000a48        0x1 Srouce/Application/app/app.o
                0x00000a48                VF_SN
 .bss.is_unmute
                0x00000a49        0x1 Srouce/Application/app/app.o
                0x00000a49                is_unmute
 .bss.Mic_is_Enabled
                0x00000a4a        0x1 Srouce/Application/app/app.o
                0x00000a4a                Mic_is_Enabled
 .bss.Silent_flag
                0x00000a4b        0x1 Srouce/Application/app/app.o
                0x00000a4b                Silent_flag
 .bss.isAudioRouting.11500
                0x00000a4c        0x4 Srouce/Application/app/app.o
 .bss.ulIdleCycleCount
                0x00000a50        0x4 Srouce/Application/app/app.o
                0x00000a50                ulIdleCycleCount
 .bss.payload_rx_exec
                0x00000a54        0x4 Srouce/Application/radio/payload.o
                0x00000a54                payload_rx_exec
 .bss.payload_tx_exec
                0x00000a58        0x4 Srouce/Application/radio/payload.o
                0x00000a58                payload_tx_exec
 .bss.phy_rx_expexted_length.10708
                0x00000a5c        0x2 Srouce/Application/radio/physical.o
 *fill*         0x00000a5e        0x2 
 .bss.RxAMBE_IsFillingNext8.10941
                0x00000a60        0x4 Srouce/Application/radio/physical.o
 .bss.phy_rx_state.10711
                0x00000a64        0x4 Srouce/Application/radio/physical.o
 .bss.m_RxBurstType
                0x00000a68        0x4 Srouce/Application/radio/physical.o
 .bss.is_first.10946
                0x00000a6c        0x1 Srouce/Application/radio/physical.o
 *fill*         0x00000a6d        0x3 
 .bss.phy_frame_ptr.10707
                0x00000a70        0x4 Srouce/Application/radio/physical.o
 .bss.phy_payload_frame_rx
                0x00000a74        0x4 Srouce/Application/radio/physical.o
                0x00000a74                phy_payload_frame_rx
 .bss.A_index.10797
                0x00000a78        0x4 Srouce/Application/radio/physical.o
 .bss.phy_ptr.10663
                0x00000a7c        0x4 Srouce/Application/radio/physical.o
 .bss.RxData_IsFillingNext16.10942
                0x00000a80        0x4 Srouce/Application/radio/physical.o
 .bss.phy_tx_index.10666
                0x00000a84        0x1 Srouce/Application/radio/physical.o
 *fill*         0x00000a85        0x3 
 .bss.payload_store_idle
                0x00000a88        0x4 Srouce/Application/radio/physical.o
                0x00000a88                payload_store_idle
 .bss.AMBE_HT   0x00000a8c        0x8 Srouce/Application/radio/physical.o
 .bss.xnl_store_idle
                0x00000a94        0x4 Srouce/Application/radio/physical.o
                0x00000a94                xnl_store_idle
 .bss.phy_tx_expexted_length.10665
                0x00000a98        0x2 Srouce/Application/radio/physical.o
 *fill*         0x00000a9a        0x2 
 .bss.AMBE_payload_ptr.10945
                0x00000a9c        0x4 Srouce/Application/radio/physical.o
 .bss.AMBEpayload_tx_state.10791
                0x00000aa0        0x4 Srouce/Application/radio/physical.o
 .bss.phy_rx_count.10712
                0x00000aa4        0x4 Srouce/Application/radio/physical.o
 .bss.phy_payload_frame_tx
                0x00000aa8        0x4 Srouce/Application/radio/physical.o
                0x00000aa8                phy_payload_frame_tx
 .bss.phy_xnl_frame_rx
                0x00000aac        0x4 Srouce/Application/radio/physical.o
                0x00000aac                phy_xnl_frame_rx
 .bss.phy_tx_state.10664
                0x00000ab0        0x4 Srouce/Application/radio/physical.o
 .bss.RxMediaState.10939
                0x00000ab4        0x4 Srouce/Application/radio/physical.o
 .bss.phy_xnl_frame_tx
                0x00000ab8        0x4 Srouce/Application/radio/physical.o
                0x00000ab8                phy_xnl_frame_tx
 .bss.Item_Length.10948
                0x00000abc        0x4 Srouce/Application/radio/physical.o
 .bss.phy_check_sum.10710
                0x00000ac0        0x2 Srouce/Application/radio/physical.o
 .bss.Item_ID.10947
                0x00000ac2        0x1 Srouce/Application/radio/physical.o
 *fill*         0x00000ac3        0x1 
 .bss.RxBytesWaiting.10943
                0x00000ac4        0x4 Srouce/Application/radio/physical.o
 .bss.phy_rx_length.10709
                0x00000ac8        0x2 Srouce/Application/radio/physical.o
 *fill*         0x00000aca        0x2 
 .bss.phy_rx_exec
                0x00000acc        0x4 Srouce/Application/radio/ssc.o
                0x00000acc                phy_rx_exec
 .bss.phy_tx_exec
                0x00000ad0        0x4 Srouce/Application/radio/ssc.o
                0x00000ad0                phy_tx_exec
 .bss.version_information
                0x00000ad4        0xc Srouce/Application/radio/xcmp.o
                0x00000ad4                version_information
 .bss.xcmp_frame_rx
                0x00000ae0        0x4 Srouce/Application/radio/xcmp.o
 .bss.clone_write
                0x00000ae4        0xc Srouce/Application/radio/xcmp.o
                0x00000ae4                clone_write
 .bss.automatic_frequency_correction_control
                0x00000af0        0xc Srouce/Application/radio/xcmp.o
                0x00000af0                automatic_frequency_correction_control
 .bss.clone_read
                0x00000afc        0xc Srouce/Application/radio/xcmp.o
                0x00000afc                clone_read
 .bss.language_pack_information
                0x00000b08        0xc Srouce/Application/radio/xcmp.o
                0x00000b08                language_pack_information
 .bss.radio_status
                0x00000b14        0xc Srouce/Application/radio/xcmp.o
                0x00000b14                radio_status
 .bss.xnl_timeout_semphr
                0x00000b20        0x4 Srouce/Application/radio/xnl.o
 .bss.xnl_information
                0x00000b24        0xa Srouce/Application/radio/xnl.o
 *fill*         0x00000b2e        0x2 
 .bss.xnl_send_times.10714
                0x00000b30        0x4 Srouce/Application/radio/xnl.o
 .bss.xnl_frame_tx
                0x00000b34        0x4 Srouce/Application/radio/xnl.o
 .bss.ptr.10715
                0x00000b38        0x4 Srouce/Application/radio/xnl.o
 .bss.flags.10669
                0x00000b3c        0x1 Srouce/Application/radio/xnl.o
 *fill*         0x00000b3d        0x3 
 .bss.xnl_tx_state.10713
                0x00000b40        0x4 Srouce/Application/radio/xnl.o
 .bss.xcmp_exec
                0x00000b44        0x4 Srouce/Application/radio/xnl.o
                0x00000b44                xcmp_exec
 .bss.status.10356
                0x00000b48        0x4 Srouce/Application/rtc/rtc.o
 .bss.rtc_mutex
                0x00000b4c        0x4 Srouce/Application/rtc/rtc.o
 .bss.tc_tick   0x00000b50        0x4 Srouce/Application/timers/timer.o
                0x00000b50                tc_tick
 .bss._int_line_handler_table_6
                0x00000b54        0x4 Srouce/ASF/avr32/drivers/intc/intc.o
 .bss._int_line_handler_table_7
                0x00000b58        0x4 Srouce/ASF/avr32/drivers/intc/intc.o
 .bss._int_line_handler_table_8
                0x00000b5c        0x4 Srouce/ASF/avr32/drivers/intc/intc.o
 .bss._int_line_handler_table_9
                0x00000b60        0x4 Srouce/ASF/avr32/drivers/intc/intc.o
 .bss._int_line_handler_table_10
                0x00000b64        0x4 Srouce/ASF/avr32/drivers/intc/intc.o
 .bss._int_line_handler_table_11
                0x00000b68        0x4 Srouce/ASF/avr32/drivers/intc/intc.o
 .bss._int_line_handler_table_12
                0x00000b6c        0x4 Srouce/ASF/avr32/drivers/intc/intc.o
 .bss._int_line_handler_table_13
                0x00000b70        0x4 Srouce/ASF/avr32/drivers/intc/intc.o
 .bss._int_line_handler_table_14
                0x00000b74        0xc Srouce/ASF/avr32/drivers/intc/intc.o
 .bss._int_line_handler_table_15
                0x00000b80        0x4 Srouce/ASF/avr32/drivers/intc/intc.o
 .bss._int_line_handler_table_16
                0x00000b84        0x4 Srouce/ASF/avr32/drivers/intc/intc.o
 .bss._int_line_handler_table_17
                0x00000b88        0x4 Srouce/ASF/avr32/drivers/intc/intc.o
 .bss._int_line_handler_table_18
                0x00000b8c        0x4 Srouce/ASF/avr32/drivers/intc/intc.o
 .bss._int_line_handler_table_0
                0x00000b90        0x4 Srouce/ASF/avr32/drivers/intc/intc.o
 .bss._int_line_handler_table_1
                0x00000b94       0x2c Srouce/ASF/avr32/drivers/intc/intc.o
 .bss._int_line_handler_table_2
                0x00000bc0       0x18 Srouce/ASF/avr32/drivers/intc/intc.o
 .bss._int_line_handler_table_3
                0x00000bd8       0x1c Srouce/ASF/avr32/drivers/intc/intc.o
 .bss._int_line_handler_table_4
                0x00000bf4        0x4 Srouce/ASF/avr32/drivers/intc/intc.o
 .bss._int_line_handler_table_5
                0x00000bf8        0x4 Srouce/ASF/avr32/drivers/intc/intc.o
 .bss.twi_busy  0x00000bfc        0x1 Srouce/ASF/avr32/drivers/twi/twi.o
 .bss.twi_nack  0x00000bfd        0x1 Srouce/ASF/avr32/drivers/twi/twi.o
 *fill*         0x00000bfe        0x2 
 .bss.twi_tx_nb_bytes
                0x00000c00        0x4 Srouce/ASF/avr32/drivers/twi/twi.o
 .bss.twi_it_mask
                0x00000c04        0x4 Srouce/ASF/avr32/drivers/twi/twi.o
 .bss.twi_inst  0x00000c08        0x4 Srouce/ASF/avr32/drivers/twi/twi.o
 .bss.twi_tx_data
                0x00000c0c        0x4 Srouce/ASF/avr32/drivers/twi/twi.o
 .bss.twi_rx_nb_bytes
                0x00000c10        0x4 Srouce/ASF/avr32/drivers/twi/twi.o
 .bss.twi_rx_data
                0x00000c14        0x4 Srouce/ASF/avr32/drivers/twi/twi.o
 .bss.uxMissedTicks
                0x00000c18        0x4 Srouce/ASF/thirdparty/freertos/freertos-7.0.0/source/tasks.o
 .bss.uxTopUsedPriority
                0x00000c1c        0x4 Srouce/ASF/thirdparty/freertos/freertos-7.0.0/source/tasks.o
 .bss.pxDelayedTaskList
                0x00000c20        0x4 Srouce/ASF/thirdparty/freertos/freertos-7.0.0/source/tasks.o
 .bss.xSchedulerRunning
                0x00000c24        0x4 Srouce/ASF/thirdparty/freertos/freertos-7.0.0/source/tasks.o
 .bss.uxTasksDeleted
                0x00000c28        0x4 Srouce/ASF/thirdparty/freertos/freertos-7.0.0/source/tasks.o
 .bss.xNumOfOverflows
                0x00000c2c        0x4 Srouce/ASF/thirdparty/freertos/freertos-7.0.0/source/tasks.o
 .bss.pxOverflowDelayedTaskList
                0x00000c30        0x4 Srouce/ASF/thirdparty/freertos/freertos-7.0.0/source/tasks.o
 .bss.pxReadyTasksLists
                0x00000c34       0xa0 Srouce/ASF/thirdparty/freertos/freertos-7.0.0/source/tasks.o
 .bss.xTasksWaitingTermination
                0x00000cd4       0x14 Srouce/ASF/thirdparty/freertos/freertos-7.0.0/source/tasks.o
 .bss.pxCurrentTCB
                0x00000ce8        0x4 Srouce/ASF/thirdparty/freertos/freertos-7.0.0/source/tasks.o
                0x00000ce8                pxCurrentTCB
 .bss.xPendingReadyList
                0x00000cec       0x14 Srouce/ASF/thirdparty/freertos/freertos-7.0.0/source/tasks.o
 .bss.xDelayedTaskList1
                0x00000d00       0x14 Srouce/ASF/thirdparty/freertos/freertos-7.0.0/source/tasks.o
 .bss.xTickCount
                0x00000d14        0x4 Srouce/ASF/thirdparty/freertos/freertos-7.0.0/source/tasks.o
 .bss.uxSchedulerSuspended
                0x00000d18        0x4 Srouce/ASF/thirdparty/freertos/freertos-7.0.0/source/tasks.o
 .bss.xDelayedTaskList2
                0x00000d1c       0x14 Srouce/ASF/thirdparty/freertos/freertos-7.0.0/source/tasks.o
 .bss.uxTaskNumber
                0x00000d30        0x4 Srouce/ASF/thirdparty/freertos/freertos-7.0.0/source/tasks.o
 .bss.uxCurrentNumberOfTasks
                0x00000d34        0x4 Srouce/ASF/thirdparty/freertos/freertos-7.0.0/source/tasks.o
 .bss.xMissedYield
                0x00000d38        0x4 Srouce/ASF/thirdparty/freertos/freertos-7.0.0/source/tasks.o
 .bss.xSuspendedTaskList
                0x00000d3c       0x14 Srouce/ASF/thirdparty/freertos/freertos-7.0.0/source/tasks.o
 .bss.uxTopReadyPriority
                0x00000d50        0x4 Srouce/ASF/thirdparty/freertos/freertos-7.0.0/source/tasks.o
 .bss.lench.11293
                0x00000d54        0x1 Srouce/Log/log.o
 .bss.lench.11363
                0x00000d55        0x1 Srouce/Log/log.o
 *fill*         0x00000d56        0x2 
 .bss.__malloc_max_total_mem
                0x00000d58        0x4 d:/program files (x86)/atmel/studio/7.0/toolchain/avr32/avr32-gnu-toolchain/bin/../lib/gcc/avr32/4.4.7/../../../../avr32/lib/ucr2\libc.a(lib_a-mallocr.o)
                0x00000d58                __malloc_max_total_mem
 .bss.__malloc_max_sbrked_mem
                0x00000d5c        0x4 d:/program files (x86)/atmel/studio/7.0/toolchain/avr32/avr32-gnu-toolchain/bin/../lib/gcc/avr32/4.4.7/../../../../avr32/lib/ucr2\libc.a(lib_a-mallocr.o)
                0x00000d5c                __malloc_max_sbrked_mem
 .bss.__malloc_top_pad
                0x00000d60        0x4 d:/program files (x86)/atmel/studio/7.0/toolchain/avr32/avr32-gnu-toolchain/bin/../lib/gcc/avr32/4.4.7/../../../../avr32/lib/ucr2\libc.a(lib_a-mallocr.o)
                0x00000d60                __malloc_top_pad
 .bss.__malloc_current_mallinfo
                0x00000d64       0x28 d:/program files (x86)/atmel/studio/7.0/toolchain/avr32/avr32-gnu-toolchain/bin/../lib/gcc/avr32/4.4.7/../../../../avr32/lib/ucr2\libc.a(lib_a-mallocr.o)
                0x00000d64                __malloc_current_mallinfo
 .bss.cur_heap_pos.1869
                0x00000d8c        0x4 d:/program files (x86)/atmel/studio/7.0/toolchain/avr32/avr32-gnu-toolchain/bin/../lib/gcc/avr32/4.4.7/../../../../avr32/lib/ucr2\libc.a(lib_a-syscalls.o)
 *(COMMON)
 COMMON         0x00000d90        0x4 Srouce/Application/app/app.o
                0x00000d90                bunchofrandomstatusflags
 COMMON         0x00000d94      0x110 Srouce/Application/radio/ambe.o
                0x00000d94                Soft_Decision_Value
                0x00000d9c                AMBEBurst_rawdata
                0x00000da4                Radio_Internal_Data
                0x00000da8                AMBE_DecryptionKey
                0x00000db0                SendAMBEBurst_EncryptionPackage
                0x00000ea0                VBSP_data
 COMMON         0x00000ea4     0x3200 Srouce/Application/radio/physical.o
                0x00000ea4                payload_store
                0x000022a4                xnl_store
 COMMON         0x000040a4       0x4c Srouce/Application/radio/ssc.o
                0x000040a4                intDuration
                0x000040a8                BufferIndex
                0x000040ac                intStartCount
                0x000040b0                RxBuffer
                0x000040d0                TxBuffer
 COMMON         0x000040f0        0x4 Srouce/Application/radio/xcmp.o
                0x000040f0                app_list
 COMMON         0x000040f4        0x4 Srouce/ASF/thirdparty/freertos/freertos-7.0.0/source/portable/gcc/avr32_uc3/write.o
                0x000040f4                stdio_usart_base
 COMMON         0x000040f8        0x4 Srouce/Log/log.o
                0x000040f8                logQueue
 COMMON         0x000040fc        0x4 d:/program files (x86)/atmel/studio/7.0/toolchain/avr32/avr32-gnu-toolchain/bin/../lib/gcc/avr32/4.4.7/../../../../avr32/lib/ucr2\libc.a(lib_a-reent.o)
                0x000040fc                errno
                0x00004100                . = ALIGN (0x8)
                0x00004100                . = ALIGN (0x8)
                0x00004100                _end = .
                0x00004100                PROVIDE (end, .)
                0x00004100                __heap_start__ = ALIGN (0x8)

.heap           0x00004100    0x12f00
 *(.heap)
                0x00012f00                . = (__heap_size__ == __max_heap_size__)?(((ORIGIN (INTRAM) + 0x17ffc) - __stack_size__) - ABSOLUTE (.)):__heap_size__
 *fill*         0x00004100    0x12f00 
                0x00017000                __heap_end__ = .

.stab
 *(.stab)

.stabstr
 *(.stabstr)

.stab.excl
 *(.stab.excl)

.stab.exclstr
 *(.stab.exclstr)

.stab.index
 *(.stab.index)

.stab.indexstr
 *(.stab.indexstr)

.comment        0x00000000       0x30
 *(.comment)
 .comment       0x00000000       0x30 Srouce/Application/app/app.o
                                 0x31 (size before relaxing)
 .comment       0x00000000       0x31 Srouce/Application/radio/ambe.o
 .comment       0x00000000       0x31 Srouce/Application/radio/AMBE_audio_2.o
 .comment       0x00000000       0x31 Srouce/Application/radio/payload.o
 .comment       0x00000000       0x31 Srouce/Application/radio/physical.o
 .comment       0x00000000       0x31 Srouce/Application/radio/ssc.o
 .comment       0x00000000       0x31 Srouce/Application/radio/xcmp.o
 .comment       0x00000000       0x31 Srouce/Application/radio/xnl.o
 .comment       0x00000000       0x31 Srouce/Application/rtc/rtc.o
 .comment       0x00000000       0x31 Srouce/Application/timers/timer.o
 .comment       0x00000000       0x31 Srouce/ASF/avr32/drivers/intc/intc.o
 .comment       0x00000000       0x31 Srouce/ASF/avr32/drivers/tc/tc.o
 .comment       0x00000000       0x31 Srouce/ASF/avr32/drivers/twi/twi.o
 .comment       0x00000000       0x31 Srouce/ASF/avr32/drivers/usart/usart.o
 .comment       0x00000000       0x31 Srouce/ASF/thirdparty/freertos/freertos-7.0.0/source/list.o
 .comment       0x00000000       0x31 Srouce/ASF/thirdparty/freertos/freertos-7.0.0/source/portable/gcc/avr32_uc3/port.o
 .comment       0x00000000       0x31 Srouce/ASF/thirdparty/freertos/freertos-7.0.0/source/portable/gcc/avr32_uc3/read.o
 .comment       0x00000000       0x31 Srouce/ASF/thirdparty/freertos/freertos-7.0.0/source/portable/gcc/avr32_uc3/write.o
 .comment       0x00000000       0x31 Srouce/ASF/thirdparty/freertos/freertos-7.0.0/source/portable/memmang/heap_3.o
 .comment       0x00000000       0x31 Srouce/ASF/thirdparty/freertos/freertos-7.0.0/source/queue.o
 .comment       0x00000000       0x31 Srouce/ASF/thirdparty/freertos/freertos-7.0.0/source/tasks.o
 .comment       0x00000000       0x31 Srouce/Log/log.o
 .comment       0x00000000       0x31 Srouce/main.o
 .comment       0x00000000       0x31 Srouce/ASF/avr32/drivers/gpio/gpio.o
 .comment       0x00000000       0x31 d:/program files (x86)/atmel/studio/7.0/toolchain/avr32/avr32-gnu-toolchain/bin/../lib/gcc/avr32/4.4.7/../../../../avr32/lib/ucr2\libc.a(lib_a-malloc.o)
 .comment       0x00000000       0x31 d:/program files (x86)/atmel/studio/7.0/toolchain/avr32/avr32-gnu-toolchain/bin/../lib/gcc/avr32/4.4.7/../../../../avr32/lib/ucr2\libc.a(lib_a-mallocr.o)
 .comment       0x00000000       0x31 d:/program files (x86)/atmel/studio/7.0/toolchain/avr32/avr32-gnu-toolchain/bin/../lib/gcc/avr32/4.4.7/../../../../avr32/lib/ucr2\libc.a(lib_a-memset.o)
 .comment       0x00000000       0x31 d:/program files (x86)/atmel/studio/7.0/toolchain/avr32/avr32-gnu-toolchain/bin/../lib/gcc/avr32/4.4.7/../../../../avr32/lib/ucr2\libc.a(lib_a-reallocr.o)
 .comment       0x00000000       0x31 d:/program files (x86)/atmel/studio/7.0/toolchain/avr32/avr32-gnu-toolchain/bin/../lib/gcc/avr32/4.4.7/../../../../avr32/lib/ucr2\libc.a(lib_a-sbrkr.o)
 .comment       0x00000000       0x31 d:/program files (x86)/atmel/studio/7.0/toolchain/avr32/avr32-gnu-toolchain/bin/../lib/gcc/avr32/4.4.7/../../../../avr32/lib/ucr2\libc.a(lib_a-sprintf.o)
 .comment       0x00000000       0x31 d:/program files (x86)/atmel/studio/7.0/toolchain/avr32/avr32-gnu-toolchain/bin/../lib/gcc/avr32/4.4.7/../../../../avr32/lib/ucr2\libc.a(lib_a-strlen.o)
 .comment       0x00000000       0x31 d:/program files (x86)/atmel/studio/7.0/toolchain/avr32/avr32-gnu-toolchain/bin/../lib/gcc/avr32/4.4.7/../../../../avr32/lib/ucr2\libc.a(lib_a-syscalls.o)
 .comment       0x00000000       0x31 d:/program files (x86)/atmel/studio/7.0/toolchain/avr32/avr32-gnu-toolchain/bin/../lib/gcc/avr32/4.4.7/../../../../avr32/lib/ucr2\libc.a(lib_a-vfprintf.o)
 .comment       0x00000000       0x31 d:/program files (x86)/atmel/studio/7.0/toolchain/avr32/avr32-gnu-toolchain/bin/../lib/gcc/avr32/4.4.7/../../../../avr32/lib/ucr2\libc.a(lib_a-wsetup.o)
 .comment       0x00000000       0x31 d:/program files (x86)/atmel/studio/7.0/toolchain/avr32/avr32-gnu-toolchain/bin/../lib/gcc/avr32/4.4.7/../../../../avr32/lib/ucr2\libc.a(lib_a-dtoa.o)
 .comment       0x00000000       0x31 d:/program files (x86)/atmel/studio/7.0/toolchain/avr32/avr32-gnu-toolchain/bin/../lib/gcc/avr32/4.4.7/../../../../avr32/lib/ucr2\libc.a(lib_a-errno.o)
 .comment       0x00000000       0x31 d:/program files (x86)/atmel/studio/7.0/toolchain/avr32/avr32-gnu-toolchain/bin/../lib/gcc/avr32/4.4.7/../../../../avr32/lib/ucr2\libc.a(lib_a-fflush.o)
 .comment       0x00000000       0x31 d:/program files (x86)/atmel/studio/7.0/toolchain/avr32/avr32-gnu-toolchain/bin/../lib/gcc/avr32/4.4.7/../../../../avr32/lib/ucr2\libc.a(lib_a-findfp.o)
 .comment       0x00000000       0x31 d:/program files (x86)/atmel/studio/7.0/toolchain/avr32/avr32-gnu-toolchain/bin/../lib/gcc/avr32/4.4.7/../../../../avr32/lib/ucr2\libc.a(lib_a-freer.o)
 .comment       0x00000000       0x31 d:/program files (x86)/atmel/studio/7.0/toolchain/avr32/avr32-gnu-toolchain/bin/../lib/gcc/avr32/4.4.7/../../../../avr32/lib/ucr2\libc.a(lib_a-fvwrite.o)
 .comment       0x00000000       0x31 d:/program files (x86)/atmel/studio/7.0/toolchain/avr32/avr32-gnu-toolchain/bin/../lib/gcc/avr32/4.4.7/../../../../avr32/lib/ucr2\libc.a(lib_a-fwalk.o)
 .comment       0x00000000       0x31 d:/program files (x86)/atmel/studio/7.0/toolchain/avr32/avr32-gnu-toolchain/bin/../lib/gcc/avr32/4.4.7/../../../../avr32/lib/ucr2\libc.a(lib_a-impure.o)
 .comment       0x00000000       0x31 d:/program files (x86)/atmel/studio/7.0/toolchain/avr32/avr32-gnu-toolchain/bin/../lib/gcc/avr32/4.4.7/../../../../avr32/lib/ucr2\libc.a(lib_a-locale.o)
 .comment       0x00000000       0x31 d:/program files (x86)/atmel/studio/7.0/toolchain/avr32/avr32-gnu-toolchain/bin/../lib/gcc/avr32/4.4.7/../../../../avr32/lib/ucr2\libc.a(lib_a-makebuf.o)
 .comment       0x00000000       0x31 d:/program files (x86)/atmel/studio/7.0/toolchain/avr32/avr32-gnu-toolchain/bin/../lib/gcc/avr32/4.4.7/../../../../avr32/lib/ucr2\libc.a(lib_a-memchr.o)
 .comment       0x00000000       0x31 d:/program files (x86)/atmel/studio/7.0/toolchain/avr32/avr32-gnu-toolchain/bin/../lib/gcc/avr32/4.4.7/../../../../avr32/lib/ucr2\libc.a(lib_a-memmove.o)
 .comment       0x00000000       0x31 d:/program files (x86)/atmel/studio/7.0/toolchain/avr32/avr32-gnu-toolchain/bin/../lib/gcc/avr32/4.4.7/../../../../avr32/lib/ucr2\libc.a(lib_a-mprec.o)
 .comment       0x00000000       0x31 d:/program files (x86)/atmel/studio/7.0/toolchain/avr32/avr32-gnu-toolchain/bin/../lib/gcc/avr32/4.4.7/../../../../avr32/lib/ucr2\libc.a(lib_a-reent.o)
 .comment       0x00000000       0x31 d:/program files (x86)/atmel/studio/7.0/toolchain/avr32/avr32-gnu-toolchain/bin/../lib/gcc/avr32/4.4.7/../../../../avr32/lib/ucr2\libc.a(lib_a-s_isinfd.o)
 .comment       0x00000000       0x31 d:/program files (x86)/atmel/studio/7.0/toolchain/avr32/avr32-gnu-toolchain/bin/../lib/gcc/avr32/4.4.7/../../../../avr32/lib/ucr2\libc.a(lib_a-s_isnand.o)
 .comment       0x00000000       0x31 d:/program files (x86)/atmel/studio/7.0/toolchain/avr32/avr32-gnu-toolchain/bin/../lib/gcc/avr32/4.4.7/../../../../avr32/lib/ucr2\libc.a(lib_a-stdio.o)
 .comment       0x00000000       0x31 d:/program files (x86)/atmel/studio/7.0/toolchain/avr32/avr32-gnu-toolchain/bin/../lib/gcc/avr32/4.4.7/../../../../avr32/lib/ucr2\libc.a(lib_a-writer.o)
 .comment       0x00000000       0x31 d:/program files (x86)/atmel/studio/7.0/toolchain/avr32/avr32-gnu-toolchain/bin/../lib/gcc/avr32/4.4.7/../../../../avr32/lib/ucr2\libc.a(lib_a-callocr.o)
 .comment       0x00000000       0x31 d:/program files (x86)/atmel/studio/7.0/toolchain/avr32/avr32-gnu-toolchain/bin/../lib/gcc/avr32/4.4.7/../../../../avr32/lib/ucr2\libc.a(lib_a-closer.o)
 .comment       0x00000000       0x31 d:/program files (x86)/atmel/studio/7.0/toolchain/avr32/avr32-gnu-toolchain/bin/../lib/gcc/avr32/4.4.7/../../../../avr32/lib/ucr2\libc.a(lib_a-fclose.o)
 .comment       0x00000000       0x31 d:/program files (x86)/atmel/studio/7.0/toolchain/avr32/avr32-gnu-toolchain/bin/../lib/gcc/avr32/4.4.7/../../../../avr32/lib/ucr2\libc.a(lib_a-fstatr.o)
 .comment       0x00000000       0x31 d:/program files (x86)/atmel/studio/7.0/toolchain/avr32/avr32-gnu-toolchain/bin/../lib/gcc/avr32/4.4.7/../../../../avr32/lib/ucr2\libc.a(lib_a-lseekr.o)
 .comment       0x00000000       0x31 d:/program files (x86)/atmel/studio/7.0/toolchain/avr32/avr32-gnu-toolchain/bin/../lib/gcc/avr32/4.4.7/../../../../avr32/lib/ucr2\libc.a(lib_a-readr.o)
 .comment       0x00000000       0x31 d:/program files (x86)/atmel/studio/7.0/toolchain/avr32/avr32-gnu-toolchain/bin/../lib/gcc/avr32/4.4.7/ucr2\libgcc.a(_udivdi3.o)
 .comment       0x00000000       0x31 d:/program files (x86)/atmel/studio/7.0/toolchain/avr32/avr32-gnu-toolchain/bin/../lib/gcc/avr32/4.4.7/ucr2\libgcc.a(_umoddi3.o)

.debug
 *(.debug)

.line
 *(.line)

.debug_srcinfo
 *(.debug_srcinfo)

.debug_sfnames
 *(.debug_sfnames)

.debug_aranges  0x00000000     0x1140
 *(.debug_aranges)
 .debug_aranges
                0x00000000      0x110 Srouce/Application/app/app.o
 .debug_aranges
                0x00000110       0x20 Srouce/Application/radio/ambe.o
 .debug_aranges
                0x00000130       0x28 Srouce/Application/radio/payload.o
 .debug_aranges
                0x00000158       0x68 Srouce/Application/radio/physical.o
 .debug_aranges
                0x000001c0       0x40 Srouce/Application/radio/ssc.o
 .debug_aranges
                0x00000200       0xe0 Srouce/Application/radio/xcmp.o
 .debug_aranges
                0x000002e0       0x68 Srouce/Application/radio/xnl.o
 .debug_aranges
                0x00000348       0x50 Srouce/Application/rtc/rtc.o
 .debug_aranges
                0x00000398       0x30 Srouce/Application/timers/timer.o
 .debug_aranges
                0x000003c8       0x38 Srouce/ASF/avr32/drivers/intc/intc.o
 .debug_aranges
                0x00000400       0xa8 Srouce/ASF/avr32/drivers/tc/tc.o
 .debug_aranges
                0x000004a8       0x70 Srouce/ASF/avr32/drivers/twi/twi.o
 .debug_aranges
                0x00000518       0xe0 Srouce/ASF/avr32/drivers/usart/usart.o
 .debug_aranges
                0x000005f8       0x40 Srouce/ASF/thirdparty/freertos/freertos-7.0.0/source/list.o
 .debug_aranges
                0x00000638       0x20 Srouce/ASF/thirdparty/freertos/freertos-7.0.0/source/portable/gcc/avr32_uc3/exception.o
 .debug_aranges
                0x00000658       0x78 Srouce/ASF/thirdparty/freertos/freertos-7.0.0/source/portable/gcc/avr32_uc3/port.o
 .debug_aranges
                0x000006d0       0x20 Srouce/ASF/thirdparty/freertos/freertos-7.0.0/source/portable/gcc/avr32_uc3/read.o
 .debug_aranges
                0x000006f0       0x20 Srouce/ASF/thirdparty/freertos/freertos-7.0.0/source/portable/gcc/avr32_uc3/write.o
 .debug_aranges
                0x00000710       0x28 Srouce/ASF/thirdparty/freertos/freertos-7.0.0/source/portable/memmang/heap_3.o
 .debug_aranges
                0x00000738       0x88 Srouce/ASF/thirdparty/freertos/freertos-7.0.0/source/queue.o
 .debug_aranges
                0x000007c0      0x108 Srouce/ASF/thirdparty/freertos/freertos-7.0.0/source/tasks.o
 .debug_aranges
                0x000008c8       0x50 Srouce/Log/log.o
 .debug_aranges
                0x00000918       0x20 Srouce/main.o
 .debug_aranges
                0x00000938      0x100 Srouce/ASF/avr32/drivers/gpio/gpio.o
 .debug_aranges
                0x00000a38       0x28 Srouce/ASF/avr32/utils/startup/startup_uc3.o
 .debug_aranges
                0x00000a60       0x20 Srouce/ASF/avr32/utils/startup/trampoline_uc3.o
 .debug_aranges
                0x00000a80       0x28 d:/program files (x86)/atmel/studio/7.0/toolchain/avr32/avr32-gnu-toolchain/bin/../lib/gcc/avr32/4.4.7/../../../../avr32/lib/ucr2\libc.a(lib_a-malloc.o)
 .debug_aranges
                0x00000aa8       0x20 d:/program files (x86)/atmel/studio/7.0/toolchain/avr32/avr32-gnu-toolchain/bin/../lib/gcc/avr32/4.4.7/../../../../avr32/lib/ucr2\libc.a(lib_a-mallocr.o)
 .debug_aranges
                0x00000ac8       0x20 d:/program files (x86)/atmel/studio/7.0/toolchain/avr32/avr32-gnu-toolchain/bin/../lib/gcc/avr32/4.4.7/../../../../avr32/lib/ucr2\libc.a(lib_a-memset.o)
 .debug_aranges
                0x00000ae8       0x20 d:/program files (x86)/atmel/studio/7.0/toolchain/avr32/avr32-gnu-toolchain/bin/../lib/gcc/avr32/4.4.7/../../../../avr32/lib/ucr2\libc.a(lib_a-reallocr.o)
 .debug_aranges
                0x00000b08       0x20 d:/program files (x86)/atmel/studio/7.0/toolchain/avr32/avr32-gnu-toolchain/bin/../lib/gcc/avr32/4.4.7/../../../../avr32/lib/ucr2\libc.a(lib_a-sbrkr.o)
 .debug_aranges
                0x00000b28       0x28 d:/program files (x86)/atmel/studio/7.0/toolchain/avr32/avr32-gnu-toolchain/bin/../lib/gcc/avr32/4.4.7/../../../../avr32/lib/ucr2\libc.a(lib_a-sprintf.o)
 .debug_aranges
                0x00000b50       0x20 d:/program files (x86)/atmel/studio/7.0/toolchain/avr32/avr32-gnu-toolchain/bin/../lib/gcc/avr32/4.4.7/../../../../avr32/lib/ucr2\libc.a(lib_a-strlen.o)
 .debug_aranges
                0x00000b70       0xf8 d:/program files (x86)/atmel/studio/7.0/toolchain/avr32/avr32-gnu-toolchain/bin/../lib/gcc/avr32/4.4.7/../../../../avr32/lib/ucr2\libc.a(lib_a-syscalls.o)
 .debug_aranges
                0x00000c68       0x38 d:/program files (x86)/atmel/studio/7.0/toolchain/avr32/avr32-gnu-toolchain/bin/../lib/gcc/avr32/4.4.7/../../../../avr32/lib/ucr2\libc.a(lib_a-vfprintf.o)
 .debug_aranges
                0x00000ca0       0x20 d:/program files (x86)/atmel/studio/7.0/toolchain/avr32/avr32-gnu-toolchain/bin/../lib/gcc/avr32/4.4.7/../../../../avr32/lib/ucr2\libc.a(lib_a-wsetup.o)
 .debug_aranges
                0x00000cc0       0x28 d:/program files (x86)/atmel/studio/7.0/toolchain/avr32/avr32-gnu-toolchain/bin/../lib/gcc/avr32/4.4.7/../../../../avr32/lib/ucr2\libc.a(lib_a-dtoa.o)
 .debug_aranges
                0x00000ce8       0x20 d:/program files (x86)/atmel/studio/7.0/toolchain/avr32/avr32-gnu-toolchain/bin/../lib/gcc/avr32/4.4.7/../../../../avr32/lib/ucr2\libc.a(lib_a-errno.o)
 .debug_aranges
                0x00000d08       0x28 d:/program files (x86)/atmel/studio/7.0/toolchain/avr32/avr32-gnu-toolchain/bin/../lib/gcc/avr32/4.4.7/../../../../avr32/lib/ucr2\libc.a(lib_a-fflush.o)
 .debug_aranges
                0x00000d30       0x80 d:/program files (x86)/atmel/studio/7.0/toolchain/avr32/avr32-gnu-toolchain/bin/../lib/gcc/avr32/4.4.7/../../../../avr32/lib/ucr2\libc.a(lib_a-findfp.o)
 .debug_aranges
                0x00000db0       0x28 d:/program files (x86)/atmel/studio/7.0/toolchain/avr32/avr32-gnu-toolchain/bin/../lib/gcc/avr32/4.4.7/../../../../avr32/lib/ucr2\libc.a(lib_a-freer.o)
 .debug_aranges
                0x00000dd8       0x20 d:/program files (x86)/atmel/studio/7.0/toolchain/avr32/avr32-gnu-toolchain/bin/../lib/gcc/avr32/4.4.7/../../../../avr32/lib/ucr2\libc.a(lib_a-fvwrite.o)
 .debug_aranges
                0x00000df8       0x28 d:/program files (x86)/atmel/studio/7.0/toolchain/avr32/avr32-gnu-toolchain/bin/../lib/gcc/avr32/4.4.7/../../../../avr32/lib/ucr2\libc.a(lib_a-fwalk.o)
 .debug_aranges
                0x00000e20       0x40 d:/program files (x86)/atmel/studio/7.0/toolchain/avr32/avr32-gnu-toolchain/bin/../lib/gcc/avr32/4.4.7/../../../../avr32/lib/ucr2\libc.a(lib_a-locale.o)
 .debug_aranges
                0x00000e60       0x20 d:/program files (x86)/atmel/studio/7.0/toolchain/avr32/avr32-gnu-toolchain/bin/../lib/gcc/avr32/4.4.7/../../../../avr32/lib/ucr2\libc.a(lib_a-makebuf.o)
 .debug_aranges
                0x00000e80       0x20 d:/program files (x86)/atmel/studio/7.0/toolchain/avr32/avr32-gnu-toolchain/bin/../lib/gcc/avr32/4.4.7/../../../../avr32/lib/ucr2\libc.a(lib_a-memchr.o)
 .debug_aranges
                0x00000ea0       0x20 d:/program files (x86)/atmel/studio/7.0/toolchain/avr32/avr32-gnu-toolchain/bin/../lib/gcc/avr32/4.4.7/../../../../avr32/lib/ucr2\libc.a(lib_a-memmove.o)
 .debug_aranges
                0x00000ec0       0xb0 d:/program files (x86)/atmel/studio/7.0/toolchain/avr32/avr32-gnu-toolchain/bin/../lib/gcc/avr32/4.4.7/../../../../avr32/lib/ucr2\libc.a(lib_a-mprec.o)
 .debug_aranges
                0x00000f70       0x30 d:/program files (x86)/atmel/studio/7.0/toolchain/avr32/avr32-gnu-toolchain/bin/../lib/gcc/avr32/4.4.7/../../../../avr32/lib/ucr2\libc.a(lib_a-reent.o)
 .debug_aranges
                0x00000fa0       0x20 d:/program files (x86)/atmel/studio/7.0/toolchain/avr32/avr32-gnu-toolchain/bin/../lib/gcc/avr32/4.4.7/../../../../avr32/lib/ucr2\libc.a(lib_a-s_isinfd.o)
 .debug_aranges
                0x00000fc0       0x20 d:/program files (x86)/atmel/studio/7.0/toolchain/avr32/avr32-gnu-toolchain/bin/../lib/gcc/avr32/4.4.7/../../../../avr32/lib/ucr2\libc.a(lib_a-s_isnand.o)
 .debug_aranges
                0x00000fe0       0x38 d:/program files (x86)/atmel/studio/7.0/toolchain/avr32/avr32-gnu-toolchain/bin/../lib/gcc/avr32/4.4.7/../../../../avr32/lib/ucr2\libc.a(lib_a-stdio.o)
 .debug_aranges
                0x00001018       0x20 d:/program files (x86)/atmel/studio/7.0/toolchain/avr32/avr32-gnu-toolchain/bin/../lib/gcc/avr32/4.4.7/../../../../avr32/lib/ucr2\libc.a(lib_a-writer.o)
 .debug_aranges
                0x00001038       0x20 d:/program files (x86)/atmel/studio/7.0/toolchain/avr32/avr32-gnu-toolchain/bin/../lib/gcc/avr32/4.4.7/../../../../avr32/lib/ucr2\libc.a(lib_a-callocr.o)
 .debug_aranges
                0x00001058       0x20 d:/program files (x86)/atmel/studio/7.0/toolchain/avr32/avr32-gnu-toolchain/bin/../lib/gcc/avr32/4.4.7/../../../../avr32/lib/ucr2\libc.a(lib_a-closer.o)
 .debug_aranges
                0x00001078       0x28 d:/program files (x86)/atmel/studio/7.0/toolchain/avr32/avr32-gnu-toolchain/bin/../lib/gcc/avr32/4.4.7/../../../../avr32/lib/ucr2\libc.a(lib_a-fclose.o)
 .debug_aranges
                0x000010a0       0x20 d:/program files (x86)/atmel/studio/7.0/toolchain/avr32/avr32-gnu-toolchain/bin/../lib/gcc/avr32/4.4.7/../../../../avr32/lib/ucr2\libc.a(lib_a-fstatr.o)
 .debug_aranges
                0x000010c0       0x20 d:/program files (x86)/atmel/studio/7.0/toolchain/avr32/avr32-gnu-toolchain/bin/../lib/gcc/avr32/4.4.7/../../../../avr32/lib/ucr2\libc.a(lib_a-lseekr.o)
 .debug_aranges
                0x000010e0       0x20 d:/program files (x86)/atmel/studio/7.0/toolchain/avr32/avr32-gnu-toolchain/bin/../lib/gcc/avr32/4.4.7/../../../../avr32/lib/ucr2\libc.a(lib_a-readr.o)
 .debug_aranges
                0x00001100       0x20 d:/program files (x86)/atmel/studio/7.0/toolchain/avr32/avr32-gnu-toolchain/bin/../lib/gcc/avr32/4.4.7/ucr2\libgcc.a(_udivdi3.o)
 .debug_aranges
                0x00001120       0x20 d:/program files (x86)/atmel/studio/7.0/toolchain/avr32/avr32-gnu-toolchain/bin/../lib/gcc/avr32/4.4.7/ucr2\libgcc.a(_umoddi3.o)

.debug_pubnames
                0x00000000     0x24aa
 *(.debug_pubnames)
 .debug_pubnames
                0x00000000      0x3a1 Srouce/Application/app/app.o
 .debug_pubnames
                0x000003a1       0xc7 Srouce/Application/radio/ambe.o
 .debug_pubnames
                0x00000468       0x25 Srouce/Application/radio/AMBE_audio_2.o
 .debug_pubnames
                0x0000048d       0x4b Srouce/Application/radio/payload.o
 .debug_pubnames
                0x000004d8      0x1ca Srouce/Application/radio/physical.o
 .debug_pubnames
                0x000006a2      0x15a Srouce/Application/radio/ssc.o
 .debug_pubnames
                0x000007fc      0x2fb Srouce/Application/radio/xcmp.o
 .debug_pubnames
                0x00000af7       0xfc Srouce/Application/radio/xnl.o
 .debug_pubnames
                0x00000bf3       0x84 Srouce/Application/rtc/rtc.o
 .debug_pubnames
                0x00000c77       0x40 Srouce/Application/timers/timer.o
 .debug_pubnames
                0x00000cb7       0x62 Srouce/ASF/avr32/drivers/intc/intc.o
 .debug_pubnames
                0x00000d19      0x164 Srouce/ASF/avr32/drivers/tc/tc.o
 .debug_pubnames
                0x00000e7d       0xb2 Srouce/ASF/avr32/drivers/twi/twi.o
 .debug_pubnames
                0x00000f2f      0x227 Srouce/ASF/avr32/drivers/usart/usart.o
 .debug_pubnames
                0x00001156       0x71 Srouce/ASF/thirdparty/freertos/freertos-7.0.0/source/list.o
 .debug_pubnames
                0x000011c7       0xf6 Srouce/ASF/thirdparty/freertos/freertos-7.0.0/source/portable/gcc/avr32_uc3/port.o
 .debug_pubnames
                0x000012bd       0x1c Srouce/ASF/thirdparty/freertos/freertos-7.0.0/source/portable/gcc/avr32_uc3/read.o
 .debug_pubnames
                0x000012d9       0x32 Srouce/ASF/thirdparty/freertos/freertos-7.0.0/source/portable/gcc/avr32_uc3/write.o
 .debug_pubnames
                0x0000130b       0x31 Srouce/ASF/thirdparty/freertos/freertos-7.0.0/source/portable/memmang/heap_3.o
 .debug_pubnames
                0x0000133c      0x127 Srouce/ASF/thirdparty/freertos/freertos-7.0.0/source/queue.o
 .debug_pubnames
                0x00001463      0x2a6 Srouce/ASF/thirdparty/freertos/freertos-7.0.0/source/tasks.o
 .debug_pubnames
                0x00001709       0x6b Srouce/Log/log.o
 .debug_pubnames
                0x00001774       0x1b Srouce/main.o
 .debug_pubnames
                0x0000178f      0x330 Srouce/ASF/avr32/drivers/gpio/gpio.o
 .debug_pubnames
                0x00001abf       0x26 d:/program files (x86)/atmel/studio/7.0/toolchain/avr32/avr32-gnu-toolchain/bin/../lib/gcc/avr32/4.4.7/../../../../avr32/lib/ucr2\libc.a(lib_a-malloc.o)
 .debug_pubnames
                0x00001ae5       0xce d:/program files (x86)/atmel/studio/7.0/toolchain/avr32/avr32-gnu-toolchain/bin/../lib/gcc/avr32/4.4.7/../../../../avr32/lib/ucr2\libc.a(lib_a-mallocr.o)
 .debug_pubnames
                0x00001bb3       0x1d d:/program files (x86)/atmel/studio/7.0/toolchain/avr32/avr32-gnu-toolchain/bin/../lib/gcc/avr32/4.4.7/../../../../avr32/lib/ucr2\libc.a(lib_a-memset.o)
 .debug_pubnames
                0x00001bd0       0x21 d:/program files (x86)/atmel/studio/7.0/toolchain/avr32/avr32-gnu-toolchain/bin/../lib/gcc/avr32/4.4.7/../../../../avr32/lib/ucr2\libc.a(lib_a-reallocr.o)
 .debug_pubnames
                0x00001bf1       0x1e d:/program files (x86)/atmel/studio/7.0/toolchain/avr32/avr32-gnu-toolchain/bin/../lib/gcc/avr32/4.4.7/../../../../avr32/lib/ucr2\libc.a(lib_a-sbrkr.o)
 .debug_pubnames
                0x00001c0f       0x2d d:/program files (x86)/atmel/studio/7.0/toolchain/avr32/avr32-gnu-toolchain/bin/../lib/gcc/avr32/4.4.7/../../../../avr32/lib/ucr2\libc.a(lib_a-sprintf.o)
 .debug_pubnames
                0x00001c3c       0x1d d:/program files (x86)/atmel/studio/7.0/toolchain/avr32/avr32-gnu-toolchain/bin/../lib/gcc/avr32/4.4.7/../../../../avr32/lib/ucr2\libc.a(lib_a-strlen.o)
 .debug_pubnames
                0x00001c59      0x171 d:/program files (x86)/atmel/studio/7.0/toolchain/avr32/avr32-gnu-toolchain/bin/../lib/gcc/avr32/4.4.7/../../../../avr32/lib/ucr2\libc.a(lib_a-syscalls.o)
 .debug_pubnames
                0x00001dca       0x2f d:/program files (x86)/atmel/studio/7.0/toolchain/avr32/avr32-gnu-toolchain/bin/../lib/gcc/avr32/4.4.7/../../../../avr32/lib/ucr2\libc.a(lib_a-vfprintf.o)
 .debug_pubnames
                0x00001df9       0x22 d:/program files (x86)/atmel/studio/7.0/toolchain/avr32/avr32-gnu-toolchain/bin/../lib/gcc/avr32/4.4.7/../../../../avr32/lib/ucr2\libc.a(lib_a-wsetup.o)
 .debug_pubnames
                0x00001e1b       0x1e d:/program files (x86)/atmel/studio/7.0/toolchain/avr32/avr32-gnu-toolchain/bin/../lib/gcc/avr32/4.4.7/../../../../avr32/lib/ucr2\libc.a(lib_a-dtoa.o)
 .debug_pubnames
                0x00001e39       0x1e d:/program files (x86)/atmel/studio/7.0/toolchain/avr32/avr32-gnu-toolchain/bin/../lib/gcc/avr32/4.4.7/../../../../avr32/lib/ucr2\libc.a(lib_a-errno.o)
 .debug_pubnames
                0x00001e57       0x2b d:/program files (x86)/atmel/studio/7.0/toolchain/avr32/avr32-gnu-toolchain/bin/../lib/gcc/avr32/4.4.7/../../../../avr32/lib/ucr2\libc.a(lib_a-fflush.o)
 .debug_pubnames
                0x00001e82      0x119 d:/program files (x86)/atmel/studio/7.0/toolchain/avr32/avr32-gnu-toolchain/bin/../lib/gcc/avr32/4.4.7/../../../../avr32/lib/ucr2\libc.a(lib_a-findfp.o)
 .debug_pubnames
                0x00001f9b       0x31 d:/program files (x86)/atmel/studio/7.0/toolchain/avr32/avr32-gnu-toolchain/bin/../lib/gcc/avr32/4.4.7/../../../../avr32/lib/ucr2\libc.a(lib_a-freer.o)
 .debug_pubnames
                0x00001fcc       0x23 d:/program files (x86)/atmel/studio/7.0/toolchain/avr32/avr32-gnu-toolchain/bin/../lib/gcc/avr32/4.4.7/../../../../avr32/lib/ucr2\libc.a(lib_a-fvwrite.o)
 .debug_pubnames
                0x00001fef       0x2e d:/program files (x86)/atmel/studio/7.0/toolchain/avr32/avr32-gnu-toolchain/bin/../lib/gcc/avr32/4.4.7/../../../../avr32/lib/ucr2\libc.a(lib_a-fwalk.o)
 .debug_pubnames
                0x0000201d       0x39 d:/program files (x86)/atmel/studio/7.0/toolchain/avr32/avr32-gnu-toolchain/bin/../lib/gcc/avr32/4.4.7/../../../../avr32/lib/ucr2\libc.a(lib_a-impure.o)
 .debug_pubnames
                0x00002056       0xc3 d:/program files (x86)/atmel/studio/7.0/toolchain/avr32/avr32-gnu-toolchain/bin/../lib/gcc/avr32/4.4.7/../../../../avr32/lib/ucr2\libc.a(lib_a-locale.o)
 .debug_pubnames
                0x00002119       0x23 d:/program files (x86)/atmel/studio/7.0/toolchain/avr32/avr32-gnu-toolchain/bin/../lib/gcc/avr32/4.4.7/../../../../avr32/lib/ucr2\libc.a(lib_a-makebuf.o)
 .debug_pubnames
                0x0000213c       0x1d d:/program files (x86)/atmel/studio/7.0/toolchain/avr32/avr32-gnu-toolchain/bin/../lib/gcc/avr32/4.4.7/../../../../avr32/lib/ucr2\libc.a(lib_a-memchr.o)
 .debug_pubnames
                0x00002159       0x1e d:/program files (x86)/atmel/studio/7.0/toolchain/avr32/avr32-gnu-toolchain/bin/../lib/gcc/avr32/4.4.7/../../../../avr32/lib/ucr2\libc.a(lib_a-memmove.o)
 .debug_pubnames
                0x00002177      0x13a d:/program files (x86)/atmel/studio/7.0/toolchain/avr32/avr32-gnu-toolchain/bin/../lib/gcc/avr32/4.4.7/../../../../avr32/lib/ucr2\libc.a(lib_a-mprec.o)
 .debug_pubnames
                0x000022b1       0x52 d:/program files (x86)/atmel/studio/7.0/toolchain/avr32/avr32-gnu-toolchain/bin/../lib/gcc/avr32/4.4.7/../../../../avr32/lib/ucr2\libc.a(lib_a-reent.o)
 .debug_pubnames
                0x00002303       0x1f d:/program files (x86)/atmel/studio/7.0/toolchain/avr32/avr32-gnu-toolchain/bin/../lib/gcc/avr32/4.4.7/../../../../avr32/lib/ucr2\libc.a(lib_a-s_isinfd.o)
 .debug_pubnames
                0x00002322       0x1f d:/program files (x86)/atmel/studio/7.0/toolchain/avr32/avr32-gnu-toolchain/bin/../lib/gcc/avr32/4.4.7/../../../../avr32/lib/ucr2\libc.a(lib_a-s_isnand.o)
 .debug_pubnames
                0x00002341       0x44 d:/program files (x86)/atmel/studio/7.0/toolchain/avr32/avr32-gnu-toolchain/bin/../lib/gcc/avr32/4.4.7/../../../../avr32/lib/ucr2\libc.a(lib_a-stdio.o)
 .debug_pubnames
                0x00002385       0x1f d:/program files (x86)/atmel/studio/7.0/toolchain/avr32/avr32-gnu-toolchain/bin/../lib/gcc/avr32/4.4.7/../../../../avr32/lib/ucr2\libc.a(lib_a-writer.o)
 .debug_pubnames
                0x000023a4       0x20 d:/program files (x86)/atmel/studio/7.0/toolchain/avr32/avr32-gnu-toolchain/bin/../lib/gcc/avr32/4.4.7/../../../../avr32/lib/ucr2\libc.a(lib_a-callocr.o)
 .debug_pubnames
                0x000023c4       0x1f d:/program files (x86)/atmel/studio/7.0/toolchain/avr32/avr32-gnu-toolchain/bin/../lib/gcc/avr32/4.4.7/../../../../avr32/lib/ucr2\libc.a(lib_a-closer.o)
 .debug_pubnames
                0x000023e3       0x2b d:/program files (x86)/atmel/studio/7.0/toolchain/avr32/avr32-gnu-toolchain/bin/../lib/gcc/avr32/4.4.7/../../../../avr32/lib/ucr2\libc.a(lib_a-fclose.o)
 .debug_pubnames
                0x0000240e       0x1f d:/program files (x86)/atmel/studio/7.0/toolchain/avr32/avr32-gnu-toolchain/bin/../lib/gcc/avr32/4.4.7/../../../../avr32/lib/ucr2\libc.a(lib_a-fstatr.o)
 .debug_pubnames
                0x0000242d       0x1f d:/program files (x86)/atmel/studio/7.0/toolchain/avr32/avr32-gnu-toolchain/bin/../lib/gcc/avr32/4.4.7/../../../../avr32/lib/ucr2\libc.a(lib_a-lseekr.o)
 .debug_pubnames
                0x0000244c       0x1e d:/program files (x86)/atmel/studio/7.0/toolchain/avr32/avr32-gnu-toolchain/bin/../lib/gcc/avr32/4.4.7/../../../../avr32/lib/ucr2\libc.a(lib_a-readr.o)
 .debug_pubnames
                0x0000246a       0x20 d:/program files (x86)/atmel/studio/7.0/toolchain/avr32/avr32-gnu-toolchain/bin/../lib/gcc/avr32/4.4.7/ucr2\libgcc.a(_udivdi3.o)
 .debug_pubnames
                0x0000248a       0x20 d:/program files (x86)/atmel/studio/7.0/toolchain/avr32/avr32-gnu-toolchain/bin/../lib/gcc/avr32/4.4.7/ucr2\libgcc.a(_umoddi3.o)

.debug_info     0x00000000    0x28243
 *(.debug_info .gnu.linkonce.wi.*)
 .debug_info    0x00000000      0xd46 Srouce/Application/app/app.o
 .debug_info    0x00000d46      0x21c Srouce/Application/radio/ambe.o
 .debug_info    0x00000f62       0x58 Srouce/Application/radio/AMBE_audio_2.o
 .debug_info    0x00000fba      0x17b Srouce/Application/radio/payload.o
 .debug_info    0x00001135     0x1055 Srouce/Application/radio/physical.o
 .debug_info    0x0000218a     0x1624 Srouce/Application/radio/ssc.o
 .debug_info    0x000037ae     0x1154 Srouce/Application/radio/xcmp.o
 .debug_info    0x00004902      0xc05 Srouce/Application/radio/xnl.o
 .debug_info    0x00005507     0x2662 Srouce/Application/rtc/rtc.o
 .debug_info    0x00007b69      0xf8f Srouce/Application/timers/timer.o
 .debug_info    0x00008af8      0x599 Srouce/ASF/avr32/drivers/intc/intc.o
 .debug_info    0x00009091     0x117f Srouce/ASF/avr32/drivers/tc/tc.o
 .debug_info    0x0000a210      0xfb2 Srouce/ASF/avr32/drivers/twi/twi.o
 .debug_info    0x0000b1c2     0x1dcb Srouce/ASF/avr32/drivers/usart/usart.o
 .debug_info    0x0000cf8d      0x2b5 Srouce/ASF/thirdparty/freertos/freertos-7.0.0/source/list.o
 .debug_info    0x0000d242       0xef Srouce/ASF/thirdparty/freertos/freertos-7.0.0/source/portable/gcc/avr32_uc3/exception.o
 .debug_info    0x0000d331      0xac1 Srouce/ASF/thirdparty/freertos/freertos-7.0.0/source/portable/gcc/avr32_uc3/port.o
 .debug_info    0x0000ddf2     0x12e4 Srouce/ASF/thirdparty/freertos/freertos-7.0.0/source/portable/gcc/avr32_uc3/read.o
 .debug_info    0x0000f0d6     0x12d2 Srouce/ASF/thirdparty/freertos/freertos-7.0.0/source/portable/gcc/avr32_uc3/write.o
 .debug_info    0x000103a8       0xf8 Srouce/ASF/thirdparty/freertos/freertos-7.0.0/source/portable/memmang/heap_3.o
 .debug_info    0x000104a0      0x7b3 Srouce/ASF/thirdparty/freertos/freertos-7.0.0/source/queue.o
 .debug_info    0x00010c53      0xdfb Srouce/ASF/thirdparty/freertos/freertos-7.0.0/source/tasks.o
 .debug_info    0x00011a4e     0x172f Srouce/Log/log.o
 .debug_info    0x0001317d      0x3a0 Srouce/main.o
 .debug_info    0x0001351d      0xb17 Srouce/ASF/avr32/drivers/gpio/gpio.o
 .debug_info    0x00014034       0xc0 Srouce/ASF/avr32/utils/startup/startup_uc3.o
 .debug_info    0x000140f4       0xc7 Srouce/ASF/avr32/utils/startup/trampoline_uc3.o
 .debug_info    0x000141bb      0x8ea d:/program files (x86)/atmel/studio/7.0/toolchain/avr32/avr32-gnu-toolchain/bin/../lib/gcc/avr32/4.4.7/../../../../avr32/lib/ucr2\libc.a(lib_a-malloc.o)
 .debug_info    0x00014aa5      0xc4e d:/program files (x86)/atmel/studio/7.0/toolchain/avr32/avr32-gnu-toolchain/bin/../lib/gcc/avr32/4.4.7/../../../../avr32/lib/ucr2\libc.a(lib_a-mallocr.o)
 .debug_info    0x000156f3       0xcd d:/program files (x86)/atmel/studio/7.0/toolchain/avr32/avr32-gnu-toolchain/bin/../lib/gcc/avr32/4.4.7/../../../../avr32/lib/ucr2\libc.a(lib_a-memset.o)
 .debug_info    0x000157c0      0xb17 d:/program files (x86)/atmel/studio/7.0/toolchain/avr32/avr32-gnu-toolchain/bin/../lib/gcc/avr32/4.4.7/../../../../avr32/lib/ucr2\libc.a(lib_a-reallocr.o)
 .debug_info    0x000162d7      0x8de d:/program files (x86)/atmel/studio/7.0/toolchain/avr32/avr32-gnu-toolchain/bin/../lib/gcc/avr32/4.4.7/../../../../avr32/lib/ucr2\libc.a(lib_a-sbrkr.o)
 .debug_info    0x00016bb5      0x989 d:/program files (x86)/atmel/studio/7.0/toolchain/avr32/avr32-gnu-toolchain/bin/../lib/gcc/avr32/4.4.7/../../../../avr32/lib/ucr2\libc.a(lib_a-sprintf.o)
 .debug_info    0x0001753e       0xbe d:/program files (x86)/atmel/studio/7.0/toolchain/avr32/avr32-gnu-toolchain/bin/../lib/gcc/avr32/4.4.7/../../../../avr32/lib/ucr2\libc.a(lib_a-strlen.o)
 .debug_info    0x000175fc      0x93a d:/program files (x86)/atmel/studio/7.0/toolchain/avr32/avr32-gnu-toolchain/bin/../lib/gcc/avr32/4.4.7/../../../../avr32/lib/ucr2\libc.a(lib_a-syscalls.o)
 .debug_info    0x00017f36     0x15e8 d:/program files (x86)/atmel/studio/7.0/toolchain/avr32/avr32-gnu-toolchain/bin/../lib/gcc/avr32/4.4.7/../../../../avr32/lib/ucr2\libc.a(lib_a-vfprintf.o)
 .debug_info    0x0001951e      0x982 d:/program files (x86)/atmel/studio/7.0/toolchain/avr32/avr32-gnu-toolchain/bin/../lib/gcc/avr32/4.4.7/../../../../avr32/lib/ucr2\libc.a(lib_a-wsetup.o)
 .debug_info    0x00019ea0      0xcf7 d:/program files (x86)/atmel/studio/7.0/toolchain/avr32/avr32-gnu-toolchain/bin/../lib/gcc/avr32/4.4.7/../../../../avr32/lib/ucr2\libc.a(lib_a-dtoa.o)
 .debug_info    0x0001ab97      0x8a6 d:/program files (x86)/atmel/studio/7.0/toolchain/avr32/avr32-gnu-toolchain/bin/../lib/gcc/avr32/4.4.7/../../../../avr32/lib/ucr2\libc.a(lib_a-errno.o)
 .debug_info    0x0001b43d      0xa22 d:/program files (x86)/atmel/studio/7.0/toolchain/avr32/avr32-gnu-toolchain/bin/../lib/gcc/avr32/4.4.7/../../../../avr32/lib/ucr2\libc.a(lib_a-fflush.o)
 .debug_info    0x0001be5f      0xc2a d:/program files (x86)/atmel/studio/7.0/toolchain/avr32/avr32-gnu-toolchain/bin/../lib/gcc/avr32/4.4.7/../../../../avr32/lib/ucr2\libc.a(lib_a-findfp.o)
 .debug_info    0x0001ca89      0xb3d d:/program files (x86)/atmel/studio/7.0/toolchain/avr32/avr32-gnu-toolchain/bin/../lib/gcc/avr32/4.4.7/../../../../avr32/lib/ucr2\libc.a(lib_a-freer.o)
 .debug_info    0x0001d5c6      0x9fc d:/program files (x86)/atmel/studio/7.0/toolchain/avr32/avr32-gnu-toolchain/bin/../lib/gcc/avr32/4.4.7/../../../../avr32/lib/ucr2\libc.a(lib_a-fvwrite.o)
 .debug_info    0x0001dfc2      0xa61 d:/program files (x86)/atmel/studio/7.0/toolchain/avr32/avr32-gnu-toolchain/bin/../lib/gcc/avr32/4.4.7/../../../../avr32/lib/ucr2\libc.a(lib_a-fwalk.o)
 .debug_info    0x0001ea23      0x960 d:/program files (x86)/atmel/studio/7.0/toolchain/avr32/avr32-gnu-toolchain/bin/../lib/gcc/avr32/4.4.7/../../../../avr32/lib/ucr2\libc.a(lib_a-impure.o)
 .debug_info    0x0001f383      0xb24 d:/program files (x86)/atmel/studio/7.0/toolchain/avr32/avr32-gnu-toolchain/bin/../lib/gcc/avr32/4.4.7/../../../../avr32/lib/ucr2\libc.a(lib_a-locale.o)
 .debug_info    0x0001fea7      0xa96 d:/program files (x86)/atmel/studio/7.0/toolchain/avr32/avr32-gnu-toolchain/bin/../lib/gcc/avr32/4.4.7/../../../../avr32/lib/ucr2\libc.a(lib_a-makebuf.o)
 .debug_info    0x0002093d       0xe7 d:/program files (x86)/atmel/studio/7.0/toolchain/avr32/avr32-gnu-toolchain/bin/../lib/gcc/avr32/4.4.7/../../../../avr32/lib/ucr2\libc.a(lib_a-memchr.o)
 .debug_info    0x00020a24      0x102 d:/program files (x86)/atmel/studio/7.0/toolchain/avr32/avr32-gnu-toolchain/bin/../lib/gcc/avr32/4.4.7/../../../../avr32/lib/ucr2\libc.a(lib_a-memmove.o)
 .debug_info    0x00020b26     0x149a d:/program files (x86)/atmel/studio/7.0/toolchain/avr32/avr32-gnu-toolchain/bin/../lib/gcc/avr32/4.4.7/../../../../avr32/lib/ucr2\libc.a(lib_a-mprec.o)
 .debug_info    0x00021fc0      0x973 d:/program files (x86)/atmel/studio/7.0/toolchain/avr32/avr32-gnu-toolchain/bin/../lib/gcc/avr32/4.4.7/../../../../avr32/lib/ucr2\libc.a(lib_a-reent.o)
 .debug_info    0x00022933      0x14d d:/program files (x86)/atmel/studio/7.0/toolchain/avr32/avr32-gnu-toolchain/bin/../lib/gcc/avr32/4.4.7/../../../../avr32/lib/ucr2\libc.a(lib_a-s_isinfd.o)
 .debug_info    0x00022a80      0x14c d:/program files (x86)/atmel/studio/7.0/toolchain/avr32/avr32-gnu-toolchain/bin/../lib/gcc/avr32/4.4.7/../../../../avr32/lib/ucr2\libc.a(lib_a-s_isnand.o)
 .debug_info    0x00022bcc      0xa28 d:/program files (x86)/atmel/studio/7.0/toolchain/avr32/avr32-gnu-toolchain/bin/../lib/gcc/avr32/4.4.7/../../../../avr32/lib/ucr2\libc.a(lib_a-stdio.o)
 .debug_info    0x000235f4      0x90d d:/program files (x86)/atmel/studio/7.0/toolchain/avr32/avr32-gnu-toolchain/bin/../lib/gcc/avr32/4.4.7/../../../../avr32/lib/ucr2\libc.a(lib_a-writer.o)
 .debug_info    0x00023f01      0x997 d:/program files (x86)/atmel/studio/7.0/toolchain/avr32/avr32-gnu-toolchain/bin/../lib/gcc/avr32/4.4.7/../../../../avr32/lib/ucr2\libc.a(lib_a-callocr.o)
 .debug_info    0x00024898      0x8d2 d:/program files (x86)/atmel/studio/7.0/toolchain/avr32/avr32-gnu-toolchain/bin/../lib/gcc/avr32/4.4.7/../../../../avr32/lib/ucr2\libc.a(lib_a-closer.o)
 .debug_info    0x0002516a      0x9bc d:/program files (x86)/atmel/studio/7.0/toolchain/avr32/avr32-gnu-toolchain/bin/../lib/gcc/avr32/4.4.7/../../../../avr32/lib/ucr2\libc.a(lib_a-fclose.o)
 .debug_info    0x00025b26      0xa76 d:/program files (x86)/atmel/studio/7.0/toolchain/avr32/avr32-gnu-toolchain/bin/../lib/gcc/avr32/4.4.7/../../../../avr32/lib/ucr2\libc.a(lib_a-fstatr.o)
 .debug_info    0x0002659c      0x8fb d:/program files (x86)/atmel/studio/7.0/toolchain/avr32/avr32-gnu-toolchain/bin/../lib/gcc/avr32/4.4.7/../../../../avr32/lib/ucr2\libc.a(lib_a-lseekr.o)
 .debug_info    0x00026e97      0x906 d:/program files (x86)/atmel/studio/7.0/toolchain/avr32/avr32-gnu-toolchain/bin/../lib/gcc/avr32/4.4.7/../../../../avr32/lib/ucr2\libc.a(lib_a-readr.o)
 .debug_info    0x0002779d      0x57b d:/program files (x86)/atmel/studio/7.0/toolchain/avr32/avr32-gnu-toolchain/bin/../lib/gcc/avr32/4.4.7/ucr2\libgcc.a(_udivdi3.o)
 .debug_info    0x00027d18      0x52b d:/program files (x86)/atmel/studio/7.0/toolchain/avr32/avr32-gnu-toolchain/bin/../lib/gcc/avr32/4.4.7/ucr2\libgcc.a(_umoddi3.o)

.debug_abbrev   0x00000000     0x67e5
 *(.debug_abbrev)
 .debug_abbrev  0x00000000      0x248 Srouce/Application/app/app.o
 .debug_abbrev  0x00000248       0xcb Srouce/Application/radio/ambe.o
 .debug_abbrev  0x00000313       0x52 Srouce/Application/radio/AMBE_audio_2.o
 .debug_abbrev  0x00000365       0xe2 Srouce/Application/radio/payload.o
 .debug_abbrev  0x00000447      0x32b Srouce/Application/radio/physical.o
 .debug_abbrev  0x00000772      0x233 Srouce/Application/radio/ssc.o
 .debug_abbrev  0x000009a5      0x23c Srouce/Application/radio/xcmp.o
 .debug_abbrev  0x00000be1      0x307 Srouce/Application/radio/xnl.o
 .debug_abbrev  0x00000ee8      0x282 Srouce/Application/rtc/rtc.o
 .debug_abbrev  0x0000116a      0x1f0 Srouce/Application/timers/timer.o
 .debug_abbrev  0x0000135a      0x1f0 Srouce/ASF/avr32/drivers/intc/intc.o
 .debug_abbrev  0x0000154a      0x25a Srouce/ASF/avr32/drivers/tc/tc.o
 .debug_abbrev  0x000017a4      0x2d0 Srouce/ASF/avr32/drivers/twi/twi.o
 .debug_abbrev  0x00001a74      0x32b Srouce/ASF/avr32/drivers/usart/usart.o
 .debug_abbrev  0x00001d9f       0xd9 Srouce/ASF/thirdparty/freertos/freertos-7.0.0/source/list.o
 .debug_abbrev  0x00001e78       0x14 Srouce/ASF/thirdparty/freertos/freertos-7.0.0/source/portable/gcc/avr32_uc3/exception.o
 .debug_abbrev  0x00001e8c      0x293 Srouce/ASF/thirdparty/freertos/freertos-7.0.0/source/portable/gcc/avr32_uc3/port.o
 .debug_abbrev  0x0000211f      0x14f Srouce/ASF/thirdparty/freertos/freertos-7.0.0/source/portable/gcc/avr32_uc3/read.o
 .debug_abbrev  0x0000226e      0x137 Srouce/ASF/thirdparty/freertos/freertos-7.0.0/source/portable/gcc/avr32_uc3/write.o
 .debug_abbrev  0x000023a5       0xa2 Srouce/ASF/thirdparty/freertos/freertos-7.0.0/source/portable/memmang/heap_3.o
 .debug_abbrev  0x00002447      0x190 Srouce/ASF/thirdparty/freertos/freertos-7.0.0/source/queue.o
 .debug_abbrev  0x000025d7      0x267 Srouce/ASF/thirdparty/freertos/freertos-7.0.0/source/tasks.o
 .debug_abbrev  0x0000283e      0x2ca Srouce/Log/log.o
 .debug_abbrev  0x00002b08       0xcc Srouce/main.o
 .debug_abbrev  0x00002bd4      0x289 Srouce/ASF/avr32/drivers/gpio/gpio.o
 .debug_abbrev  0x00002e5d       0x12 Srouce/ASF/avr32/utils/startup/startup_uc3.o
 .debug_abbrev  0x00002e6f       0x14 Srouce/ASF/avr32/utils/startup/trampoline_uc3.o
 .debug_abbrev  0x00002e83      0x178 d:/program files (x86)/atmel/studio/7.0/toolchain/avr32/avr32-gnu-toolchain/bin/../lib/gcc/avr32/4.4.7/../../../../avr32/lib/ucr2\libc.a(lib_a-malloc.o)
 .debug_abbrev  0x00002ffb      0x205 d:/program files (x86)/atmel/studio/7.0/toolchain/avr32/avr32-gnu-toolchain/bin/../lib/gcc/avr32/4.4.7/../../../../avr32/lib/ucr2\libc.a(lib_a-mallocr.o)
 .debug_abbrev  0x00003200       0x85 d:/program files (x86)/atmel/studio/7.0/toolchain/avr32/avr32-gnu-toolchain/bin/../lib/gcc/avr32/4.4.7/../../../../avr32/lib/ucr2\libc.a(lib_a-memset.o)
 .debug_abbrev  0x00003285      0x1c1 d:/program files (x86)/atmel/studio/7.0/toolchain/avr32/avr32-gnu-toolchain/bin/../lib/gcc/avr32/4.4.7/../../../../avr32/lib/ucr2\libc.a(lib_a-reallocr.o)
 .debug_abbrev  0x00003446      0x17f d:/program files (x86)/atmel/studio/7.0/toolchain/avr32/avr32-gnu-toolchain/bin/../lib/gcc/avr32/4.4.7/../../../../avr32/lib/ucr2\libc.a(lib_a-sbrkr.o)
 .debug_abbrev  0x000035c5      0x1a4 d:/program files (x86)/atmel/studio/7.0/toolchain/avr32/avr32-gnu-toolchain/bin/../lib/gcc/avr32/4.4.7/../../../../avr32/lib/ucr2\libc.a(lib_a-sprintf.o)
 .debug_abbrev  0x00003769       0x83 d:/program files (x86)/atmel/studio/7.0/toolchain/avr32/avr32-gnu-toolchain/bin/../lib/gcc/avr32/4.4.7/../../../../avr32/lib/ucr2\libc.a(lib_a-strlen.o)
 .debug_abbrev  0x000037ec      0x19a d:/program files (x86)/atmel/studio/7.0/toolchain/avr32/avr32-gnu-toolchain/bin/../lib/gcc/avr32/4.4.7/../../../../avr32/lib/ucr2\libc.a(lib_a-syscalls.o)
 .debug_abbrev  0x00003986      0x3dd d:/program files (x86)/atmel/studio/7.0/toolchain/avr32/avr32-gnu-toolchain/bin/../lib/gcc/avr32/4.4.7/../../../../avr32/lib/ucr2\libc.a(lib_a-vfprintf.o)
 .debug_abbrev  0x00003d63      0x16a d:/program files (x86)/atmel/studio/7.0/toolchain/avr32/avr32-gnu-toolchain/bin/../lib/gcc/avr32/4.4.7/../../../../avr32/lib/ucr2\libc.a(lib_a-wsetup.o)
 .debug_abbrev  0x00003ecd      0x251 d:/program files (x86)/atmel/studio/7.0/toolchain/avr32/avr32-gnu-toolchain/bin/../lib/gcc/avr32/4.4.7/../../../../avr32/lib/ucr2\libc.a(lib_a-dtoa.o)
 .debug_abbrev  0x0000411e      0x150 d:/program files (x86)/atmel/studio/7.0/toolchain/avr32/avr32-gnu-toolchain/bin/../lib/gcc/avr32/4.4.7/../../../../avr32/lib/ucr2\libc.a(lib_a-errno.o)
 .debug_abbrev  0x0000426e      0x1c6 d:/program files (x86)/atmel/studio/7.0/toolchain/avr32/avr32-gnu-toolchain/bin/../lib/gcc/avr32/4.4.7/../../../../avr32/lib/ucr2\libc.a(lib_a-fflush.o)
 .debug_abbrev  0x00004434      0x28c d:/program files (x86)/atmel/studio/7.0/toolchain/avr32/avr32-gnu-toolchain/bin/../lib/gcc/avr32/4.4.7/../../../../avr32/lib/ucr2\libc.a(lib_a-findfp.o)
 .debug_abbrev  0x000046c0      0x1d9 d:/program files (x86)/atmel/studio/7.0/toolchain/avr32/avr32-gnu-toolchain/bin/../lib/gcc/avr32/4.4.7/../../../../avr32/lib/ucr2\libc.a(lib_a-freer.o)
 .debug_abbrev  0x00004899      0x1b4 d:/program files (x86)/atmel/studio/7.0/toolchain/avr32/avr32-gnu-toolchain/bin/../lib/gcc/avr32/4.4.7/../../../../avr32/lib/ucr2\libc.a(lib_a-fvwrite.o)
 .debug_abbrev  0x00004a4d      0x1df d:/program files (x86)/atmel/studio/7.0/toolchain/avr32/avr32-gnu-toolchain/bin/../lib/gcc/avr32/4.4.7/../../../../avr32/lib/ucr2\libc.a(lib_a-fwalk.o)
 .debug_abbrev  0x00004c2c      0x160 d:/program files (x86)/atmel/studio/7.0/toolchain/avr32/avr32-gnu-toolchain/bin/../lib/gcc/avr32/4.4.7/../../../../avr32/lib/ucr2\libc.a(lib_a-impure.o)
 .debug_abbrev  0x00004d8c      0x210 d:/program files (x86)/atmel/studio/7.0/toolchain/avr32/avr32-gnu-toolchain/bin/../lib/gcc/avr32/4.4.7/../../../../avr32/lib/ucr2\libc.a(lib_a-locale.o)
 .debug_abbrev  0x00004f9c      0x17b d:/program files (x86)/atmel/studio/7.0/toolchain/avr32/avr32-gnu-toolchain/bin/../lib/gcc/avr32/4.4.7/../../../../avr32/lib/ucr2\libc.a(lib_a-makebuf.o)
 .debug_abbrev  0x00005117       0xb1 d:/program files (x86)/atmel/studio/7.0/toolchain/avr32/avr32-gnu-toolchain/bin/../lib/gcc/avr32/4.4.7/../../../../avr32/lib/ucr2\libc.a(lib_a-memchr.o)
 .debug_abbrev  0x000051c8       0xa2 d:/program files (x86)/atmel/studio/7.0/toolchain/avr32/avr32-gnu-toolchain/bin/../lib/gcc/avr32/4.4.7/../../../../avr32/lib/ucr2\libc.a(lib_a-memmove.o)
 .debug_abbrev  0x0000526a      0x30e d:/program files (x86)/atmel/studio/7.0/toolchain/avr32/avr32-gnu-toolchain/bin/../lib/gcc/avr32/4.4.7/../../../../avr32/lib/ucr2\libc.a(lib_a-mprec.o)
 .debug_abbrev  0x00005578      0x1e6 d:/program files (x86)/atmel/studio/7.0/toolchain/avr32/avr32-gnu-toolchain/bin/../lib/gcc/avr32/4.4.7/../../../../avr32/lib/ucr2\libc.a(lib_a-reent.o)
 .debug_abbrev  0x0000575e       0xdd d:/program files (x86)/atmel/studio/7.0/toolchain/avr32/avr32-gnu-toolchain/bin/../lib/gcc/avr32/4.4.7/../../../../avr32/lib/ucr2\libc.a(lib_a-s_isinfd.o)
 .debug_abbrev  0x0000583b       0xce d:/program files (x86)/atmel/studio/7.0/toolchain/avr32/avr32-gnu-toolchain/bin/../lib/gcc/avr32/4.4.7/../../../../avr32/lib/ucr2\libc.a(lib_a-s_isnand.o)
 .debug_abbrev  0x00005909      0x192 d:/program files (x86)/atmel/studio/7.0/toolchain/avr32/avr32-gnu-toolchain/bin/../lib/gcc/avr32/4.4.7/../../../../avr32/lib/ucr2\libc.a(lib_a-stdio.o)
 .debug_abbrev  0x00005a9b      0x175 d:/program files (x86)/atmel/studio/7.0/toolchain/avr32/avr32-gnu-toolchain/bin/../lib/gcc/avr32/4.4.7/../../../../avr32/lib/ucr2\libc.a(lib_a-writer.o)
 .debug_abbrev  0x00005c10      0x193 d:/program files (x86)/atmel/studio/7.0/toolchain/avr32/avr32-gnu-toolchain/bin/../lib/gcc/avr32/4.4.7/../../../../avr32/lib/ucr2\libc.a(lib_a-callocr.o)
 .debug_abbrev  0x00005da3      0x170 d:/program files (x86)/atmel/studio/7.0/toolchain/avr32/avr32-gnu-toolchain/bin/../lib/gcc/avr32/4.4.7/../../../../avr32/lib/ucr2\libc.a(lib_a-closer.o)
 .debug_abbrev  0x00005f13      0x1a1 d:/program files (x86)/atmel/studio/7.0/toolchain/avr32/avr32-gnu-toolchain/bin/../lib/gcc/avr32/4.4.7/../../../../avr32/lib/ucr2\libc.a(lib_a-fclose.o)
 .debug_abbrev  0x000060b4      0x17f d:/program files (x86)/atmel/studio/7.0/toolchain/avr32/avr32-gnu-toolchain/bin/../lib/gcc/avr32/4.4.7/../../../../avr32/lib/ucr2\libc.a(lib_a-fstatr.o)
 .debug_abbrev  0x00006233      0x17f d:/program files (x86)/atmel/studio/7.0/toolchain/avr32/avr32-gnu-toolchain/bin/../lib/gcc/avr32/4.4.7/../../../../avr32/lib/ucr2\libc.a(lib_a-lseekr.o)
 .debug_abbrev  0x000063b2      0x170 d:/program files (x86)/atmel/studio/7.0/toolchain/avr32/avr32-gnu-toolchain/bin/../lib/gcc/avr32/4.4.7/../../../../avr32/lib/ucr2\libc.a(lib_a-readr.o)
 .debug_abbrev  0x00006522      0x15a d:/program files (x86)/atmel/studio/7.0/toolchain/avr32/avr32-gnu-toolchain/bin/../lib/gcc/avr32/4.4.7/ucr2\libgcc.a(_udivdi3.o)
 .debug_abbrev  0x0000667c      0x169 d:/program files (x86)/atmel/studio/7.0/toolchain/avr32/avr32-gnu-toolchain/bin/../lib/gcc/avr32/4.4.7/ucr2\libgcc.a(_umoddi3.o)

.debug_line     0x00000000     0xc151
 *(.debug_line)
 .debug_line    0x00000000      0x4c5 Srouce/Application/app/app.o
 .debug_line    0x000004c5      0x116 Srouce/Application/radio/ambe.o
 .debug_line    0x000005db       0x4b Srouce/Application/radio/AMBE_audio_2.o
 .debug_line    0x00000626      0x180 Srouce/Application/radio/payload.o
 .debug_line    0x000007a6      0x449 Srouce/Application/radio/physical.o
 .debug_line    0x00000bef      0x22b Srouce/Application/radio/ssc.o
 .debug_line    0x00000e1a      0x3fa Srouce/Application/radio/xcmp.o
 .debug_line    0x00001214      0x2f1 Srouce/Application/radio/xnl.o
 .debug_line    0x00001505      0x318 Srouce/Application/rtc/rtc.o
 .debug_line    0x0000181d      0x1e2 Srouce/Application/timers/timer.o
 .debug_line    0x000019ff      0x1ee Srouce/ASF/avr32/drivers/intc/intc.o
 .debug_line    0x00001bed      0x2f4 Srouce/ASF/avr32/drivers/tc/tc.o
 .debug_line    0x00001ee1      0x362 Srouce/ASF/avr32/drivers/twi/twi.o
 .debug_line    0x00002243      0x456 Srouce/ASF/avr32/drivers/usart/usart.o
 .debug_line    0x00002699      0x180 Srouce/ASF/thirdparty/freertos/freertos-7.0.0/source/list.o
 .debug_line    0x00002819      0x110 Srouce/ASF/thirdparty/freertos/freertos-7.0.0/source/portable/gcc/avr32_uc3/exception.o
 .debug_line    0x00002929      0x317 Srouce/ASF/thirdparty/freertos/freertos-7.0.0/source/portable/gcc/avr32_uc3/port.o
 .debug_line    0x00002c40      0x100 Srouce/ASF/thirdparty/freertos/freertos-7.0.0/source/portable/gcc/avr32_uc3/read.o
 .debug_line    0x00002d40       0xff Srouce/ASF/thirdparty/freertos/freertos-7.0.0/source/portable/gcc/avr32_uc3/write.o
 .debug_line    0x00002e3f      0x117 Srouce/ASF/thirdparty/freertos/freertos-7.0.0/source/portable/memmang/heap_3.o
 .debug_line    0x00002f56      0x357 Srouce/ASF/thirdparty/freertos/freertos-7.0.0/source/queue.o
 .debug_line    0x000032ad      0x48a Srouce/ASF/thirdparty/freertos/freertos-7.0.0/source/tasks.o
 .debug_line    0x00003737      0x36d Srouce/Log/log.o
 .debug_line    0x00003aa4       0xbf Srouce/main.o
 .debug_line    0x00003b63      0x3c9 Srouce/ASF/avr32/drivers/gpio/gpio.o
 .debug_line    0x00003f2c       0xf5 Srouce/ASF/avr32/utils/startup/startup_uc3.o
 .debug_line    0x00004021       0x6a Srouce/ASF/avr32/utils/startup/trampoline_uc3.o
 .debug_line    0x0000408b      0x255 d:/program files (x86)/atmel/studio/7.0/toolchain/avr32/avr32-gnu-toolchain/bin/../lib/gcc/avr32/4.4.7/../../../../avr32/lib/ucr2\libc.a(lib_a-malloc.o)
 .debug_line    0x000042e0      0x571 d:/program files (x86)/atmel/studio/7.0/toolchain/avr32/avr32-gnu-toolchain/bin/../lib/gcc/avr32/4.4.7/../../../../avr32/lib/ucr2\libc.a(lib_a-mallocr.o)
 .debug_line    0x00004851      0x1be d:/program files (x86)/atmel/studio/7.0/toolchain/avr32/avr32-gnu-toolchain/bin/../lib/gcc/avr32/4.4.7/../../../../avr32/lib/ucr2\libc.a(lib_a-memset.o)
 .debug_line    0x00004a0f      0x389 d:/program files (x86)/atmel/studio/7.0/toolchain/avr32/avr32-gnu-toolchain/bin/../lib/gcc/avr32/4.4.7/../../../../avr32/lib/ucr2\libc.a(lib_a-reallocr.o)
 .debug_line    0x00004d98      0x258 d:/program files (x86)/atmel/studio/7.0/toolchain/avr32/avr32-gnu-toolchain/bin/../lib/gcc/avr32/4.4.7/../../../../avr32/lib/ucr2\libc.a(lib_a-sbrkr.o)
 .debug_line    0x00004ff0      0x2ba d:/program files (x86)/atmel/studio/7.0/toolchain/avr32/avr32-gnu-toolchain/bin/../lib/gcc/avr32/4.4.7/../../../../avr32/lib/ucr2\libc.a(lib_a-sprintf.o)
 .debug_line    0x000052aa      0x1c4 d:/program files (x86)/atmel/studio/7.0/toolchain/avr32/avr32-gnu-toolchain/bin/../lib/gcc/avr32/4.4.7/../../../../avr32/lib/ucr2\libc.a(lib_a-strlen.o)
 .debug_line    0x0000546e      0x58e d:/program files (x86)/atmel/studio/7.0/toolchain/avr32/avr32-gnu-toolchain/bin/../lib/gcc/avr32/4.4.7/../../../../avr32/lib/ucr2\libc.a(lib_a-syscalls.o)
 .debug_line    0x000059fc      0xce5 d:/program files (x86)/atmel/studio/7.0/toolchain/avr32/avr32-gnu-toolchain/bin/../lib/gcc/avr32/4.4.7/../../../../avr32/lib/ucr2\libc.a(lib_a-vfprintf.o)
 .debug_line    0x000066e1      0x2a1 d:/program files (x86)/atmel/studio/7.0/toolchain/avr32/avr32-gnu-toolchain/bin/../lib/gcc/avr32/4.4.7/../../../../avr32/lib/ucr2\libc.a(lib_a-wsetup.o)
 .debug_line    0x00006982      0xc1b d:/program files (x86)/atmel/studio/7.0/toolchain/avr32/avr32-gnu-toolchain/bin/../lib/gcc/avr32/4.4.7/../../../../avr32/lib/ucr2\libc.a(lib_a-dtoa.o)
 .debug_line    0x0000759d      0x1ce d:/program files (x86)/atmel/studio/7.0/toolchain/avr32/avr32-gnu-toolchain/bin/../lib/gcc/avr32/4.4.7/../../../../avr32/lib/ucr2\libc.a(lib_a-errno.o)
 .debug_line    0x0000776b      0x355 d:/program files (x86)/atmel/studio/7.0/toolchain/avr32/avr32-gnu-toolchain/bin/../lib/gcc/avr32/4.4.7/../../../../avr32/lib/ucr2\libc.a(lib_a-fflush.o)
 .debug_line    0x00007ac0      0x5ad d:/program files (x86)/atmel/studio/7.0/toolchain/avr32/avr32-gnu-toolchain/bin/../lib/gcc/avr32/4.4.7/../../../../avr32/lib/ucr2\libc.a(lib_a-findfp.o)
 .debug_line    0x0000806d      0x34c d:/program files (x86)/atmel/studio/7.0/toolchain/avr32/avr32-gnu-toolchain/bin/../lib/gcc/avr32/4.4.7/../../../../avr32/lib/ucr2\libc.a(lib_a-freer.o)
 .debug_line    0x000083b9      0x489 d:/program files (x86)/atmel/studio/7.0/toolchain/avr32/avr32-gnu-toolchain/bin/../lib/gcc/avr32/4.4.7/../../../../avr32/lib/ucr2\libc.a(lib_a-fvwrite.o)
 .debug_line    0x00008842      0x2fa d:/program files (x86)/atmel/studio/7.0/toolchain/avr32/avr32-gnu-toolchain/bin/../lib/gcc/avr32/4.4.7/../../../../avr32/lib/ucr2\libc.a(lib_a-fwalk.o)
 .debug_line    0x00008b3c      0x1a8 d:/program files (x86)/atmel/studio/7.0/toolchain/avr32/avr32-gnu-toolchain/bin/../lib/gcc/avr32/4.4.7/../../../../avr32/lib/ucr2\libc.a(lib_a-impure.o)
 .debug_line    0x00008ce4      0x2bf d:/program files (x86)/atmel/studio/7.0/toolchain/avr32/avr32-gnu-toolchain/bin/../lib/gcc/avr32/4.4.7/../../../../avr32/lib/ucr2\libc.a(lib_a-locale.o)
 .debug_line    0x00008fa3      0x30b d:/program files (x86)/atmel/studio/7.0/toolchain/avr32/avr32-gnu-toolchain/bin/../lib/gcc/avr32/4.4.7/../../../../avr32/lib/ucr2\libc.a(lib_a-makebuf.o)
 .debug_line    0x000092ae      0x1bf d:/program files (x86)/atmel/studio/7.0/toolchain/avr32/avr32-gnu-toolchain/bin/../lib/gcc/avr32/4.4.7/../../../../avr32/lib/ucr2\libc.a(lib_a-memchr.o)
 .debug_line    0x0000946d      0x1d2 d:/program files (x86)/atmel/studio/7.0/toolchain/avr32/avr32-gnu-toolchain/bin/../lib/gcc/avr32/4.4.7/../../../../avr32/lib/ucr2\libc.a(lib_a-memmove.o)
 .debug_line    0x0000963f      0xd69 d:/program files (x86)/atmel/studio/7.0/toolchain/avr32/avr32-gnu-toolchain/bin/../lib/gcc/avr32/4.4.7/../../../../avr32/lib/ucr2\libc.a(lib_a-mprec.o)
 .debug_line    0x0000a3a8      0x2ec d:/program files (x86)/atmel/studio/7.0/toolchain/avr32/avr32-gnu-toolchain/bin/../lib/gcc/avr32/4.4.7/../../../../avr32/lib/ucr2\libc.a(lib_a-reent.o)
 .debug_line    0x0000a694      0x1bc d:/program files (x86)/atmel/studio/7.0/toolchain/avr32/avr32-gnu-toolchain/bin/../lib/gcc/avr32/4.4.7/../../../../avr32/lib/ucr2\libc.a(lib_a-s_isinfd.o)
 .debug_line    0x0000a850      0x1b1 d:/program files (x86)/atmel/studio/7.0/toolchain/avr32/avr32-gnu-toolchain/bin/../lib/gcc/avr32/4.4.7/../../../../avr32/lib/ucr2\libc.a(lib_a-s_isnand.o)
 .debug_line    0x0000aa01      0x303 d:/program files (x86)/atmel/studio/7.0/toolchain/avr32/avr32-gnu-toolchain/bin/../lib/gcc/avr32/4.4.7/../../../../avr32/lib/ucr2\libc.a(lib_a-stdio.o)
 .debug_line    0x0000ad04      0x265 d:/program files (x86)/atmel/studio/7.0/toolchain/avr32/avr32-gnu-toolchain/bin/../lib/gcc/avr32/4.4.7/../../../../avr32/lib/ucr2\libc.a(lib_a-writer.o)
 .debug_line    0x0000af69      0x1d3 d:/program files (x86)/atmel/studio/7.0/toolchain/avr32/avr32-gnu-toolchain/bin/../lib/gcc/avr32/4.4.7/../../../../avr32/lib/ucr2\libc.a(lib_a-callocr.o)
 .debug_line    0x0000b13c      0x259 d:/program files (x86)/atmel/studio/7.0/toolchain/avr32/avr32-gnu-toolchain/bin/../lib/gcc/avr32/4.4.7/../../../../avr32/lib/ucr2\libc.a(lib_a-closer.o)
 .debug_line    0x0000b395      0x2bf d:/program files (x86)/atmel/studio/7.0/toolchain/avr32/avr32-gnu-toolchain/bin/../lib/gcc/avr32/4.4.7/../../../../avr32/lib/ucr2\libc.a(lib_a-fclose.o)
 .debug_line    0x0000b654      0x26e d:/program files (x86)/atmel/studio/7.0/toolchain/avr32/avr32-gnu-toolchain/bin/../lib/gcc/avr32/4.4.7/../../../../avr32/lib/ucr2\libc.a(lib_a-fstatr.o)
 .debug_line    0x0000b8c2      0x265 d:/program files (x86)/atmel/studio/7.0/toolchain/avr32/avr32-gnu-toolchain/bin/../lib/gcc/avr32/4.4.7/../../../../avr32/lib/ucr2\libc.a(lib_a-lseekr.o)
 .debug_line    0x0000bb27      0x264 d:/program files (x86)/atmel/studio/7.0/toolchain/avr32/avr32-gnu-toolchain/bin/../lib/gcc/avr32/4.4.7/../../../../avr32/lib/ucr2\libc.a(lib_a-readr.o)
 .debug_line    0x0000bd8b      0x1d5 d:/program files (x86)/atmel/studio/7.0/toolchain/avr32/avr32-gnu-toolchain/bin/../lib/gcc/avr32/4.4.7/ucr2\libgcc.a(_udivdi3.o)
 .debug_line    0x0000bf60      0x1f1 d:/program files (x86)/atmel/studio/7.0/toolchain/avr32/avr32-gnu-toolchain/bin/../lib/gcc/avr32/4.4.7/ucr2\libgcc.a(_umoddi3.o)

.debug_frame    0x00000000     0x2d38
 *(.debug_frame)
 .debug_frame   0x00000000      0x4fc Srouce/Application/app/app.o
 .debug_frame   0x000004fc       0x20 Srouce/Application/radio/ambe.o
 .debug_frame   0x0000051c       0x60 Srouce/Application/radio/payload.o
 .debug_frame   0x0000057c      0x144 Srouce/Application/radio/physical.o
 .debug_frame   0x000006c0       0x78 Srouce/Application/radio/ssc.o
 .debug_frame   0x00000738      0x2e8 Srouce/Application/radio/xcmp.o
 .debug_frame   0x00000a20      0x188 Srouce/Application/radio/xnl.o
 .debug_frame   0x00000ba8       0xc4 Srouce/Application/rtc/rtc.o
 .debug_frame   0x00000c6c       0x50 Srouce/Application/timers/timer.o
 .debug_frame   0x00000cbc       0x64 Srouce/ASF/avr32/drivers/intc/intc.o
 .debug_frame   0x00000d20      0x148 Srouce/ASF/avr32/drivers/tc/tc.o
 .debug_frame   0x00000e68      0x124 Srouce/ASF/avr32/drivers/twi/twi.o
 .debug_frame   0x00000f8c      0x2ac Srouce/ASF/avr32/drivers/usart/usart.o
 .debug_frame   0x00001238       0x60 Srouce/ASF/thirdparty/freertos/freertos-7.0.0/source/list.o
 .debug_frame   0x00001298       0xfc Srouce/ASF/thirdparty/freertos/freertos-7.0.0/source/portable/gcc/avr32_uc3/port.o
 .debug_frame   0x00001394       0x34 Srouce/ASF/thirdparty/freertos/freertos-7.0.0/source/portable/gcc/avr32_uc3/read.o
 .debug_frame   0x000013c8       0x34 Srouce/ASF/thirdparty/freertos/freertos-7.0.0/source/portable/gcc/avr32_uc3/write.o
 .debug_frame   0x000013fc       0x48 Srouce/ASF/thirdparty/freertos/freertos-7.0.0/source/portable/memmang/heap_3.o
 .debug_frame   0x00001444      0x1a8 Srouce/ASF/thirdparty/freertos/freertos-7.0.0/source/queue.o
 .debug_frame   0x000015ec      0x348 Srouce/ASF/thirdparty/freertos/freertos-7.0.0/source/tasks.o
 .debug_frame   0x00001934      0x170 Srouce/Log/log.o
 .debug_frame   0x00001aa4       0x28 Srouce/main.o
 .debug_frame   0x00001acc      0x204 Srouce/ASF/avr32/drivers/gpio/gpio.o
 .debug_frame   0x00001cd0       0x40 d:/program files (x86)/atmel/studio/7.0/toolchain/avr32/avr32-gnu-toolchain/bin/../lib/gcc/avr32/4.4.7/../../../../avr32/lib/ucr2\libc.a(lib_a-malloc.o)
 .debug_frame   0x00001d10       0x40 d:/program files (x86)/atmel/studio/7.0/toolchain/avr32/avr32-gnu-toolchain/bin/../lib/gcc/avr32/4.4.7/../../../../avr32/lib/ucr2\libc.a(lib_a-mallocr.o)
 .debug_frame   0x00001d50       0x20 d:/program files (x86)/atmel/studio/7.0/toolchain/avr32/avr32-gnu-toolchain/bin/../lib/gcc/avr32/4.4.7/../../../../avr32/lib/ucr2\libc.a(lib_a-memset.o)
 .debug_frame   0x00001d70       0x44 d:/program files (x86)/atmel/studio/7.0/toolchain/avr32/avr32-gnu-toolchain/bin/../lib/gcc/avr32/4.4.7/../../../../avr32/lib/ucr2\libc.a(lib_a-reallocr.o)
 .debug_frame   0x00001db4       0x34 d:/program files (x86)/atmel/studio/7.0/toolchain/avr32/avr32-gnu-toolchain/bin/../lib/gcc/avr32/4.4.7/../../../../avr32/lib/ucr2\libc.a(lib_a-sbrkr.o)
 .debug_frame   0x00001de8       0x48 d:/program files (x86)/atmel/studio/7.0/toolchain/avr32/avr32-gnu-toolchain/bin/../lib/gcc/avr32/4.4.7/../../../../avr32/lib/ucr2\libc.a(lib_a-sprintf.o)
 .debug_frame   0x00001e30       0x20 d:/program files (x86)/atmel/studio/7.0/toolchain/avr32/avr32-gnu-toolchain/bin/../lib/gcc/avr32/4.4.7/../../../../avr32/lib/ucr2\libc.a(lib_a-strlen.o)
 .debug_frame   0x00001e50      0x220 d:/program files (x86)/atmel/studio/7.0/toolchain/avr32/avr32-gnu-toolchain/bin/../lib/gcc/avr32/4.4.7/../../../../avr32/lib/ucr2\libc.a(lib_a-syscalls.o)
 .debug_frame   0x00002070      0x258 d:/program files (x86)/atmel/studio/7.0/toolchain/avr32/avr32-gnu-toolchain/bin/../lib/gcc/avr32/4.4.7/../../../../avr32/lib/ucr2\libc.a(lib_a-vfprintf.o)
 .debug_frame   0x000022c8       0x34 d:/program files (x86)/atmel/studio/7.0/toolchain/avr32/avr32-gnu-toolchain/bin/../lib/gcc/avr32/4.4.7/../../../../avr32/lib/ucr2\libc.a(lib_a-wsetup.o)
 .debug_frame   0x000022fc       0x78 d:/program files (x86)/atmel/studio/7.0/toolchain/avr32/avr32-gnu-toolchain/bin/../lib/gcc/avr32/4.4.7/../../../../avr32/lib/ucr2\libc.a(lib_a-dtoa.o)
 .debug_frame   0x00002374       0x20 d:/program files (x86)/atmel/studio/7.0/toolchain/avr32/avr32-gnu-toolchain/bin/../lib/gcc/avr32/4.4.7/../../../../avr32/lib/ucr2\libc.a(lib_a-errno.o)
 .debug_frame   0x00002394       0x4c d:/program files (x86)/atmel/studio/7.0/toolchain/avr32/avr32-gnu-toolchain/bin/../lib/gcc/avr32/4.4.7/../../../../avr32/lib/ucr2\libc.a(lib_a-fflush.o)
 .debug_frame   0x000023e0      0x13c d:/program files (x86)/atmel/studio/7.0/toolchain/avr32/avr32-gnu-toolchain/bin/../lib/gcc/avr32/4.4.7/../../../../avr32/lib/ucr2\libc.a(lib_a-findfp.o)
 .debug_frame   0x0000251c       0x58 d:/program files (x86)/atmel/studio/7.0/toolchain/avr32/avr32-gnu-toolchain/bin/../lib/gcc/avr32/4.4.7/../../../../avr32/lib/ucr2\libc.a(lib_a-freer.o)
 .debug_frame   0x00002574       0x44 d:/program files (x86)/atmel/studio/7.0/toolchain/avr32/avr32-gnu-toolchain/bin/../lib/gcc/avr32/4.4.7/../../../../avr32/lib/ucr2\libc.a(lib_a-fvwrite.o)
 .debug_frame   0x000025b8       0x70 d:/program files (x86)/atmel/studio/7.0/toolchain/avr32/avr32-gnu-toolchain/bin/../lib/gcc/avr32/4.4.7/../../../../avr32/lib/ucr2\libc.a(lib_a-fwalk.o)
 .debug_frame   0x00002628       0x7c d:/program files (x86)/atmel/studio/7.0/toolchain/avr32/avr32-gnu-toolchain/bin/../lib/gcc/avr32/4.4.7/../../../../avr32/lib/ucr2\libc.a(lib_a-locale.o)
 .debug_frame   0x000026a4       0x38 d:/program files (x86)/atmel/studio/7.0/toolchain/avr32/avr32-gnu-toolchain/bin/../lib/gcc/avr32/4.4.7/../../../../avr32/lib/ucr2\libc.a(lib_a-makebuf.o)
 .debug_frame   0x000026dc       0x20 d:/program files (x86)/atmel/studio/7.0/toolchain/avr32/avr32-gnu-toolchain/bin/../lib/gcc/avr32/4.4.7/../../../../avr32/lib/ucr2\libc.a(lib_a-memchr.o)
 .debug_frame   0x000026fc       0x28 d:/program files (x86)/atmel/studio/7.0/toolchain/avr32/avr32-gnu-toolchain/bin/../lib/gcc/avr32/4.4.7/../../../../avr32/lib/ucr2\libc.a(lib_a-memmove.o)
 .debug_frame   0x00002724      0x2b4 d:/program files (x86)/atmel/studio/7.0/toolchain/avr32/avr32-gnu-toolchain/bin/../lib/gcc/avr32/4.4.7/../../../../avr32/lib/ucr2\libc.a(lib_a-mprec.o)
 .debug_frame   0x000029d8       0x80 d:/program files (x86)/atmel/studio/7.0/toolchain/avr32/avr32-gnu-toolchain/bin/../lib/gcc/avr32/4.4.7/../../../../avr32/lib/ucr2\libc.a(lib_a-reent.o)
 .debug_frame   0x00002a58       0x20 d:/program files (x86)/atmel/studio/7.0/toolchain/avr32/avr32-gnu-toolchain/bin/../lib/gcc/avr32/4.4.7/../../../../avr32/lib/ucr2\libc.a(lib_a-s_isinfd.o)
 .debug_frame   0x00002a78       0x20 d:/program files (x86)/atmel/studio/7.0/toolchain/avr32/avr32-gnu-toolchain/bin/../lib/gcc/avr32/4.4.7/../../../../avr32/lib/ucr2\libc.a(lib_a-s_isnand.o)
 .debug_frame   0x00002a98       0x94 d:/program files (x86)/atmel/studio/7.0/toolchain/avr32/avr32-gnu-toolchain/bin/../lib/gcc/avr32/4.4.7/../../../../avr32/lib/ucr2\libc.a(lib_a-stdio.o)
 .debug_frame   0x00002b2c       0x34 d:/program files (x86)/atmel/studio/7.0/toolchain/avr32/avr32-gnu-toolchain/bin/../lib/gcc/avr32/4.4.7/../../../../avr32/lib/ucr2\libc.a(lib_a-writer.o)
 .debug_frame   0x00002b60       0x34 d:/program files (x86)/atmel/studio/7.0/toolchain/avr32/avr32-gnu-toolchain/bin/../lib/gcc/avr32/4.4.7/../../../../avr32/lib/ucr2\libc.a(lib_a-callocr.o)
 .debug_frame   0x00002b94       0x34 d:/program files (x86)/atmel/studio/7.0/toolchain/avr32/avr32-gnu-toolchain/bin/../lib/gcc/avr32/4.4.7/../../../../avr32/lib/ucr2\libc.a(lib_a-closer.o)
 .debug_frame   0x00002bc8       0x4c d:/program files (x86)/atmel/studio/7.0/toolchain/avr32/avr32-gnu-toolchain/bin/../lib/gcc/avr32/4.4.7/../../../../avr32/lib/ucr2\libc.a(lib_a-fclose.o)
 .debug_frame   0x00002c14       0x34 d:/program files (x86)/atmel/studio/7.0/toolchain/avr32/avr32-gnu-toolchain/bin/../lib/gcc/avr32/4.4.7/../../../../avr32/lib/ucr2\libc.a(lib_a-fstatr.o)
 .debug_frame   0x00002c48       0x34 d:/program files (x86)/atmel/studio/7.0/toolchain/avr32/avr32-gnu-toolchain/bin/../lib/gcc/avr32/4.4.7/../../../../avr32/lib/ucr2\libc.a(lib_a-lseekr.o)
 .debug_frame   0x00002c7c       0x34 d:/program files (x86)/atmel/studio/7.0/toolchain/avr32/avr32-gnu-toolchain/bin/../lib/gcc/avr32/4.4.7/../../../../avr32/lib/ucr2\libc.a(lib_a-readr.o)
 .debug_frame   0x00002cb0       0x44 d:/program files (x86)/atmel/studio/7.0/toolchain/avr32/avr32-gnu-toolchain/bin/../lib/gcc/avr32/4.4.7/ucr2\libgcc.a(_udivdi3.o)
 .debug_frame   0x00002cf4       0x44 d:/program files (x86)/atmel/studio/7.0/toolchain/avr32/avr32-gnu-toolchain/bin/../lib/gcc/avr32/4.4.7/ucr2\libgcc.a(_umoddi3.o)

.debug_str      0x00000000     0x6c7e
 *(.debug_str)
 .debug_str     0x00000000      0x7ee Srouce/Application/app/app.o
                                0x84b (size before relaxing)
 .debug_str     0x000007ee      0x15e Srouce/Application/radio/ambe.o
                                0x28c (size before relaxing)
 .debug_str     0x0000094c       0x3a Srouce/Application/radio/AMBE_audio_2.o
                                 0xb7 (size before relaxing)
 .debug_str     0x00000986       0xb0 Srouce/Application/radio/payload.o
                                0x1f3 (size before relaxing)
 .debug_str     0x00000a36      0x91e Srouce/Application/radio/physical.o
                                0xcdc (size before relaxing)
 .debug_str     0x00001354      0x4ee Srouce/Application/radio/ssc.o
                                0x735 (size before relaxing)
 .debug_str     0x00001842      0x575 Srouce/Application/radio/xcmp.o
                                0xcab (size before relaxing)
 .debug_str     0x00001db7      0x271 Srouce/Application/radio/xnl.o
                                0x8c9 (size before relaxing)
 .debug_str     0x00002028      0x9d9 Srouce/Application/rtc/rtc.o
                                0xbac (size before relaxing)
 .debug_str     0x00002a01      0x259 Srouce/Application/timers/timer.o
                                0x4e6 (size before relaxing)
 .debug_str     0x00002c5a      0x365 Srouce/ASF/avr32/drivers/intc/intc.o
                                0x496 (size before relaxing)
 .debug_str     0x00002fbf      0x195 Srouce/ASF/avr32/drivers/tc/tc.o
                                0x4fe (size before relaxing)
 .debug_str     0x00003154      0x1d8 Srouce/ASF/avr32/drivers/twi/twi.o
                                0x4f4 (size before relaxing)
 .debug_str     0x0000332c      0x736 Srouce/ASF/avr32/drivers/usart/usart.o
                                0x930 (size before relaxing)
 .debug_str     0x00003a62      0x15d Srouce/ASF/thirdparty/freertos/freertos-7.0.0/source/list.o
                                0x284 (size before relaxing)
 .debug_str     0x00003bbf      0x4b3 Srouce/ASF/thirdparty/freertos/freertos-7.0.0/source/portable/gcc/avr32_uc3/port.o
                                0x654 (size before relaxing)
 .debug_str     0x00004072       0x6e Srouce/ASF/thirdparty/freertos/freertos-7.0.0/source/portable/gcc/avr32_uc3/read.o
                                0x562 (size before relaxing)
 .debug_str     0x000040e0       0x57 Srouce/ASF/thirdparty/freertos/freertos-7.0.0/source/portable/gcc/avr32_uc3/write.o
                                0x564 (size before relaxing)
 .debug_str     0x00004137       0x69 Srouce/ASF/thirdparty/freertos/freertos-7.0.0/source/portable/memmang/heap_3.o
                                0x199 (size before relaxing)
 .debug_str     0x000041a0      0x32a Srouce/ASF/thirdparty/freertos/freertos-7.0.0/source/queue.o
                                0x50e (size before relaxing)
 .debug_str     0x000044ca      0x692 Srouce/ASF/thirdparty/freertos/freertos-7.0.0/source/tasks.o
                                0x8e8 (size before relaxing)
 .debug_str     0x00004b5c       0xbf Srouce/Log/log.o
                                0x645 (size before relaxing)
 .debug_str     0x00004c1b       0x16 Srouce/main.o
                                0x244 (size before relaxing)
 .debug_str     0x00004c31      0x301 Srouce/ASF/avr32/drivers/gpio/gpio.o
                                0x55d (size before relaxing)
 .debug_str     0x00004f32       0x81 d:/program files (x86)/atmel/studio/7.0/toolchain/avr32/avr32-gnu-toolchain/bin/../lib/gcc/avr32/4.4.7/../../../../avr32/lib/ucr2\libc.a(lib_a-malloc.o)
                                0x4c4 (size before relaxing)
 .debug_str     0x00004fb3      0x23b d:/program files (x86)/atmel/studio/7.0/toolchain/avr32/avr32-gnu-toolchain/bin/../lib/gcc/avr32/4.4.7/../../../../avr32/lib/ucr2\libc.a(lib_a-mallocr.o)
                                0x699 (size before relaxing)
 .debug_str     0x000051ee       0x75 d:/program files (x86)/atmel/studio/7.0/toolchain/avr32/avr32-gnu-toolchain/bin/../lib/gcc/avr32/4.4.7/../../../../avr32/lib/ucr2\libc.a(lib_a-memset.o)
                                0x111 (size before relaxing)
 .debug_str     0x00005263       0x61 d:/program files (x86)/atmel/studio/7.0/toolchain/avr32/avr32-gnu-toolchain/bin/../lib/gcc/avr32/4.4.7/../../../../avr32/lib/ucr2\libc.a(lib_a-reallocr.o)
                                0x56b (size before relaxing)
 .debug_str     0x000052c4       0x83 d:/program files (x86)/atmel/studio/7.0/toolchain/avr32/avr32-gnu-toolchain/bin/../lib/gcc/avr32/4.4.7/../../../../avr32/lib/ucr2\libc.a(lib_a-sbrkr.o)
                                0x4b4 (size before relaxing)
 .debug_str     0x00005347       0x81 d:/program files (x86)/atmel/studio/7.0/toolchain/avr32/avr32-gnu-toolchain/bin/../lib/gcc/avr32/4.4.7/../../../../avr32/lib/ucr2\libc.a(lib_a-sprintf.o)
                                0x4e6 (size before relaxing)
 .debug_str     0x000053c8       0x75 d:/program files (x86)/atmel/studio/7.0/toolchain/avr32/avr32-gnu-toolchain/bin/../lib/gcc/avr32/4.4.7/../../../../avr32/lib/ucr2\libc.a(lib_a-strlen.o)
                                0x117 (size before relaxing)
 .debug_str     0x0000543d      0x317 d:/program files (x86)/atmel/studio/7.0/toolchain/avr32/avr32-gnu-toolchain/bin/../lib/gcc/avr32/4.4.7/../../../../avr32/lib/ucr2\libc.a(lib_a-syscalls.o)
                                0x43d (size before relaxing)
 .debug_str     0x00005754      0x449 d:/program files (x86)/atmel/studio/7.0/toolchain/avr32/avr32-gnu-toolchain/bin/../lib/gcc/avr32/4.4.7/../../../../avr32/lib/ucr2\libc.a(lib_a-vfprintf.o)
                                0x999 (size before relaxing)
 .debug_str     0x00005b9d       0x79 d:/program files (x86)/atmel/studio/7.0/toolchain/avr32/avr32-gnu-toolchain/bin/../lib/gcc/avr32/4.4.7/../../../../avr32/lib/ucr2\libc.a(lib_a-wsetup.o)
                                0x4f4 (size before relaxing)
 .debug_str     0x00005c16      0x135 d:/program files (x86)/atmel/studio/7.0/toolchain/avr32/avr32-gnu-toolchain/bin/../lib/gcc/avr32/4.4.7/../../../../avr32/lib/ucr2\libc.a(lib_a-dtoa.o)
                                0x5a9 (size before relaxing)
 .debug_str     0x00005d4b       0x74 d:/program files (x86)/atmel/studio/7.0/toolchain/avr32/avr32-gnu-toolchain/bin/../lib/gcc/avr32/4.4.7/../../../../avr32/lib/ucr2\libc.a(lib_a-errno.o)
                                0x4ab (size before relaxing)
 .debug_str     0x00005dbf       0x98 d:/program files (x86)/atmel/studio/7.0/toolchain/avr32/avr32-gnu-toolchain/bin/../lib/gcc/avr32/4.4.7/../../../../avr32/lib/ucr2\libc.a(lib_a-fflush.o)
                                0x51a (size before relaxing)
 .debug_str     0x00005e57      0x135 d:/program files (x86)/atmel/studio/7.0/toolchain/avr32/avr32-gnu-toolchain/bin/../lib/gcc/avr32/4.4.7/../../../../avr32/lib/ucr2\libc.a(lib_a-findfp.o)
                                0x5dc (size before relaxing)
 .debug_str     0x00005f8c       0x3c d:/program files (x86)/atmel/studio/7.0/toolchain/avr32/avr32-gnu-toolchain/bin/../lib/gcc/avr32/4.4.7/../../../../avr32/lib/ucr2\libc.a(lib_a-freer.o)
                                0x5eb (size before relaxing)
 .debug_str     0x00005fc8       0x91 d:/program files (x86)/atmel/studio/7.0/toolchain/avr32/avr32-gnu-toolchain/bin/../lib/gcc/avr32/4.4.7/../../../../avr32/lib/ucr2\libc.a(lib_a-fvwrite.o)
                                0x50c (size before relaxing)
 .debug_str     0x00006059       0x91 d:/program files (x86)/atmel/studio/7.0/toolchain/avr32/avr32-gnu-toolchain/bin/../lib/gcc/avr32/4.4.7/../../../../avr32/lib/ucr2\libc.a(lib_a-fwalk.o)
                                0x4de (size before relaxing)
 .debug_str     0x000060ea       0x79 d:/program files (x86)/atmel/studio/7.0/toolchain/avr32/avr32-gnu-toolchain/bin/../lib/gcc/avr32/4.4.7/../../../../avr32/lib/ucr2\libc.a(lib_a-impure.o)
                                0x502 (size before relaxing)
 .debug_str     0x00006163      0x1cc d:/program files (x86)/atmel/studio/7.0/toolchain/avr32/avr32-gnu-toolchain/bin/../lib/gcc/avr32/4.4.7/../../../../avr32/lib/ucr2\libc.a(lib_a-locale.o)
                                0x651 (size before relaxing)
 .debug_str     0x0000632f       0x86 d:/program files (x86)/atmel/studio/7.0/toolchain/avr32/avr32-gnu-toolchain/bin/../lib/gcc/avr32/4.4.7/../../../../avr32/lib/ucr2\libc.a(lib_a-makebuf.o)
                                0x5af (size before relaxing)
 .debug_str     0x000063b5       0x7e d:/program files (x86)/atmel/studio/7.0/toolchain/avr32/avr32-gnu-toolchain/bin/../lib/gcc/avr32/4.4.7/../../../../avr32/lib/ucr2\libc.a(lib_a-memchr.o)
                                0x121 (size before relaxing)
 .debug_str     0x00006433       0x80 d:/program files (x86)/atmel/studio/7.0/toolchain/avr32/avr32-gnu-toolchain/bin/../lib/gcc/avr32/4.4.7/../../../../avr32/lib/ucr2\libc.a(lib_a-memmove.o)
                                0x12c (size before relaxing)
 .debug_str     0x000064b3      0x12b d:/program files (x86)/atmel/studio/7.0/toolchain/avr32/avr32-gnu-toolchain/bin/../lib/gcc/avr32/4.4.7/../../../../avr32/lib/ucr2\libc.a(lib_a-mprec.o)
                                0x5b6 (size before relaxing)
 .debug_str     0x000065de       0xa6 d:/program files (x86)/atmel/studio/7.0/toolchain/avr32/avr32-gnu-toolchain/bin/../lib/gcc/avr32/4.4.7/../../../../avr32/lib/ucr2\libc.a(lib_a-reent.o)
                                0x4e8 (size before relaxing)
 .debug_str     0x00006684       0xa5 d:/program files (x86)/atmel/studio/7.0/toolchain/avr32/avr32-gnu-toolchain/bin/../lib/gcc/avr32/4.4.7/../../../../avr32/lib/ucr2\libc.a(lib_a-s_isinfd.o)
                                0x164 (size before relaxing)
 .debug_str     0x00006729       0x79 d:/program files (x86)/atmel/studio/7.0/toolchain/avr32/avr32-gnu-toolchain/bin/../lib/gcc/avr32/4.4.7/../../../../avr32/lib/ucr2\libc.a(lib_a-s_isnand.o)
                                0x164 (size before relaxing)
 .debug_str     0x000067a2       0x8e d:/program files (x86)/atmel/studio/7.0/toolchain/avr32/avr32-gnu-toolchain/bin/../lib/gcc/avr32/4.4.7/../../../../avr32/lib/ucr2\libc.a(lib_a-stdio.o)
                                0x4da (size before relaxing)
 .debug_str     0x00006830       0x7f d:/program files (x86)/atmel/studio/7.0/toolchain/avr32/avr32-gnu-toolchain/bin/../lib/gcc/avr32/4.4.7/../../../../avr32/lib/ucr2\libc.a(lib_a-writer.o)
                                0x4b7 (size before relaxing)
 .debug_str     0x000068af       0x19 d:/program files (x86)/atmel/studio/7.0/toolchain/avr32/avr32-gnu-toolchain/bin/../lib/gcc/avr32/4.4.7/../../../../avr32/lib/ucr2\libc.a(lib_a-callocr.o)
                                0x4ea (size before relaxing)
 .debug_str     0x000068c8       0x76 d:/program files (x86)/atmel/studio/7.0/toolchain/avr32/avr32-gnu-toolchain/bin/../lib/gcc/avr32/4.4.7/../../../../avr32/lib/ucr2\libc.a(lib_a-closer.o)
                                0x4a7 (size before relaxing)
 .debug_str     0x0000693e       0x7e d:/program files (x86)/atmel/studio/7.0/toolchain/avr32/avr32-gnu-toolchain/bin/../lib/gcc/avr32/4.4.7/../../../../avr32/lib/ucr2\libc.a(lib_a-fclose.o)
                                0x4fe (size before relaxing)
 .debug_str     0x000069bc       0x7c d:/program files (x86)/atmel/studio/7.0/toolchain/avr32/avr32-gnu-toolchain/bin/../lib/gcc/avr32/4.4.7/../../../../avr32/lib/ucr2\libc.a(lib_a-fstatr.o)
                                0x59a (size before relaxing)
 .debug_str     0x00006a38       0x76 d:/program files (x86)/atmel/studio/7.0/toolchain/avr32/avr32-gnu-toolchain/bin/../lib/gcc/avr32/4.4.7/../../../../avr32/lib/ucr2\libc.a(lib_a-lseekr.o)
                                0x4b5 (size before relaxing)
 .debug_str     0x00006aae       0x74 d:/program files (x86)/atmel/studio/7.0/toolchain/avr32/avr32-gnu-toolchain/bin/../lib/gcc/avr32/4.4.7/../../../../avr32/lib/ucr2\libc.a(lib_a-readr.o)
                                0x4b5 (size before relaxing)
 .debug_str     0x00006b22      0x152 d:/program files (x86)/atmel/studio/7.0/toolchain/avr32/avr32-gnu-toolchain/bin/../lib/gcc/avr32/4.4.7/ucr2\libgcc.a(_udivdi3.o)
                                0x207 (size before relaxing)
 .debug_str     0x00006c74        0xa d:/program files (x86)/atmel/studio/7.0/toolchain/avr32/avr32-gnu-toolchain/bin/../lib/gcc/avr32/4.4.7/ucr2\libgcc.a(_umoddi3.o)
                                0x207 (size before relaxing)

.debug_loc      0x00000000     0xca64
 *(.debug_loc)
 .debug_loc     0x00000000      0xbae Srouce/Application/app/app.o
 .debug_loc     0x00000bae       0x13 Srouce/Application/radio/ambe.o
 .debug_loc     0x00000bc1       0xbe Srouce/Application/radio/payload.o
 .debug_loc     0x00000c7f      0x6ef Srouce/Application/radio/physical.o
 .debug_loc     0x0000136e       0x5d Srouce/Application/radio/ssc.o
 .debug_loc     0x000013cb      0x645 Srouce/Application/radio/xcmp.o
 .debug_loc     0x00001a10      0x385 Srouce/Application/radio/xnl.o
 .debug_loc     0x00001d95      0x109 Srouce/Application/rtc/rtc.o
 .debug_loc     0x00001e9e       0x3e Srouce/Application/timers/timer.o
 .debug_loc     0x00001edc       0xd3 Srouce/ASF/avr32/drivers/intc/intc.o
 .debug_loc     0x00001faf      0x3ff Srouce/ASF/avr32/drivers/tc/tc.o
 .debug_loc     0x000023ae      0x35e Srouce/ASF/avr32/drivers/twi/twi.o
 .debug_loc     0x0000270c      0x9c5 Srouce/ASF/avr32/drivers/usart/usart.o
 .debug_loc     0x000030d1       0x31 Srouce/ASF/thirdparty/freertos/freertos-7.0.0/source/list.o
 .debug_loc     0x00003102      0x110 Srouce/ASF/thirdparty/freertos/freertos-7.0.0/source/portable/gcc/avr32_uc3/port.o
 .debug_loc     0x00003212       0xd6 Srouce/ASF/thirdparty/freertos/freertos-7.0.0/source/portable/gcc/avr32_uc3/read.o
 .debug_loc     0x000032e8       0xa2 Srouce/ASF/thirdparty/freertos/freertos-7.0.0/source/portable/gcc/avr32_uc3/write.o
 .debug_loc     0x0000338a       0x7a Srouce/ASF/thirdparty/freertos/freertos-7.0.0/source/portable/memmang/heap_3.o
 .debug_loc     0x00003404      0x63a Srouce/ASF/thirdparty/freertos/freertos-7.0.0/source/queue.o
 .debug_loc     0x00003a3e      0x9d1 Srouce/ASF/thirdparty/freertos/freertos-7.0.0/source/tasks.o
 .debug_loc     0x0000440f      0x64c Srouce/Log/log.o
 .debug_loc     0x00004a5b       0x1f Srouce/main.o
 .debug_loc     0x00004a7a      0x368 Srouce/ASF/avr32/drivers/gpio/gpio.o
 .debug_loc     0x00004de2       0x64 d:/program files (x86)/atmel/studio/7.0/toolchain/avr32/avr32-gnu-toolchain/bin/../lib/gcc/avr32/4.4.7/../../../../avr32/lib/ucr2\libc.a(lib_a-malloc.o)
 .debug_loc     0x00004e46      0x59a d:/program files (x86)/atmel/studio/7.0/toolchain/avr32/avr32-gnu-toolchain/bin/../lib/gcc/avr32/4.4.7/../../../../avr32/lib/ucr2\libc.a(lib_a-mallocr.o)
 .debug_loc     0x000053e0      0x56e d:/program files (x86)/atmel/studio/7.0/toolchain/avr32/avr32-gnu-toolchain/bin/../lib/gcc/avr32/4.4.7/../../../../avr32/lib/ucr2\libc.a(lib_a-reallocr.o)
 .debug_loc     0x0000594e       0x63 d:/program files (x86)/atmel/studio/7.0/toolchain/avr32/avr32-gnu-toolchain/bin/../lib/gcc/avr32/4.4.7/../../../../avr32/lib/ucr2\libc.a(lib_a-sbrkr.o)
 .debug_loc     0x000059b1       0xb7 d:/program files (x86)/atmel/studio/7.0/toolchain/avr32/avr32-gnu-toolchain/bin/../lib/gcc/avr32/4.4.7/../../../../avr32/lib/ucr2\libc.a(lib_a-sprintf.o)
 .debug_loc     0x00005a68       0x1e d:/program files (x86)/atmel/studio/7.0/toolchain/avr32/avr32-gnu-toolchain/bin/../lib/gcc/avr32/4.4.7/../../../../avr32/lib/ucr2\libc.a(lib_a-strlen.o)
 .debug_loc     0x00005a86      0x268 d:/program files (x86)/atmel/studio/7.0/toolchain/avr32/avr32-gnu-toolchain/bin/../lib/gcc/avr32/4.4.7/../../../../avr32/lib/ucr2\libc.a(lib_a-syscalls.o)
 .debug_loc     0x00005cee     0x2f9f d:/program files (x86)/atmel/studio/7.0/toolchain/avr32/avr32-gnu-toolchain/bin/../lib/gcc/avr32/4.4.7/../../../../avr32/lib/ucr2\libc.a(lib_a-vfprintf.o)
 .debug_loc     0x00008c8d       0x5b d:/program files (x86)/atmel/studio/7.0/toolchain/avr32/avr32-gnu-toolchain/bin/../lib/gcc/avr32/4.4.7/../../../../avr32/lib/ucr2\libc.a(lib_a-wsetup.o)
 .debug_loc     0x00008ce8      0xb8a d:/program files (x86)/atmel/studio/7.0/toolchain/avr32/avr32-gnu-toolchain/bin/../lib/gcc/avr32/4.4.7/../../../../avr32/lib/ucr2\libc.a(lib_a-dtoa.o)
 .debug_loc     0x00009872      0x13f d:/program files (x86)/atmel/studio/7.0/toolchain/avr32/avr32-gnu-toolchain/bin/../lib/gcc/avr32/4.4.7/../../../../avr32/lib/ucr2\libc.a(lib_a-fflush.o)
 .debug_loc     0x000099b1      0x202 d:/program files (x86)/atmel/studio/7.0/toolchain/avr32/avr32-gnu-toolchain/bin/../lib/gcc/avr32/4.4.7/../../../../avr32/lib/ucr2\libc.a(lib_a-findfp.o)
 .debug_loc     0x00009bb3      0x32c d:/program files (x86)/atmel/studio/7.0/toolchain/avr32/avr32-gnu-toolchain/bin/../lib/gcc/avr32/4.4.7/../../../../avr32/lib/ucr2\libc.a(lib_a-freer.o)
 .debug_loc     0x00009edf      0x28e d:/program files (x86)/atmel/studio/7.0/toolchain/avr32/avr32-gnu-toolchain/bin/../lib/gcc/avr32/4.4.7/../../../../avr32/lib/ucr2\libc.a(lib_a-fvwrite.o)
 .debug_loc     0x0000a16d       0xe7 d:/program files (x86)/atmel/studio/7.0/toolchain/avr32/avr32-gnu-toolchain/bin/../lib/gcc/avr32/4.4.7/../../../../avr32/lib/ucr2\libc.a(lib_a-fwalk.o)
 .debug_loc     0x0000a254       0xd1 d:/program files (x86)/atmel/studio/7.0/toolchain/avr32/avr32-gnu-toolchain/bin/../lib/gcc/avr32/4.4.7/../../../../avr32/lib/ucr2\libc.a(lib_a-locale.o)
 .debug_loc     0x0000a325       0xc2 d:/program files (x86)/atmel/studio/7.0/toolchain/avr32/avr32-gnu-toolchain/bin/../lib/gcc/avr32/4.4.7/../../../../avr32/lib/ucr2\libc.a(lib_a-makebuf.o)
 .debug_loc     0x0000a3e7       0x31 d:/program files (x86)/atmel/studio/7.0/toolchain/avr32/avr32-gnu-toolchain/bin/../lib/gcc/avr32/4.4.7/../../../../avr32/lib/ucr2\libc.a(lib_a-memchr.o)
 .debug_loc     0x0000a418       0x81 d:/program files (x86)/atmel/studio/7.0/toolchain/avr32/avr32-gnu-toolchain/bin/../lib/gcc/avr32/4.4.7/../../../../avr32/lib/ucr2\libc.a(lib_a-memmove.o)
 .debug_loc     0x0000a499     0x122d d:/program files (x86)/atmel/studio/7.0/toolchain/avr32/avr32-gnu-toolchain/bin/../lib/gcc/avr32/4.4.7/../../../../avr32/lib/ucr2\libc.a(lib_a-mprec.o)
 .debug_loc     0x0000b6c6      0x10a d:/program files (x86)/atmel/studio/7.0/toolchain/avr32/avr32-gnu-toolchain/bin/../lib/gcc/avr32/4.4.7/../../../../avr32/lib/ucr2\libc.a(lib_a-reent.o)
 .debug_loc     0x0000b7d0       0x43 d:/program files (x86)/atmel/studio/7.0/toolchain/avr32/avr32-gnu-toolchain/bin/../lib/gcc/avr32/4.4.7/../../../../avr32/lib/ucr2\libc.a(lib_a-s_isinfd.o)
 .debug_loc     0x0000b813       0x18 d:/program files (x86)/atmel/studio/7.0/toolchain/avr32/avr32-gnu-toolchain/bin/../lib/gcc/avr32/4.4.7/../../../../avr32/lib/ucr2\libc.a(lib_a-s_isnand.o)
 .debug_loc     0x0000b82b      0x1ee d:/program files (x86)/atmel/studio/7.0/toolchain/avr32/avr32-gnu-toolchain/bin/../lib/gcc/avr32/4.4.7/../../../../avr32/lib/ucr2\libc.a(lib_a-stdio.o)
 .debug_loc     0x0000ba19       0x94 d:/program files (x86)/atmel/studio/7.0/toolchain/avr32/avr32-gnu-toolchain/bin/../lib/gcc/avr32/4.4.7/../../../../avr32/lib/ucr2\libc.a(lib_a-writer.o)
 .debug_loc     0x0000baad       0xbd d:/program files (x86)/atmel/studio/7.0/toolchain/avr32/avr32-gnu-toolchain/bin/../lib/gcc/avr32/4.4.7/../../../../avr32/lib/ucr2\libc.a(lib_a-callocr.o)
 .debug_loc     0x0000bb6a       0x63 d:/program files (x86)/atmel/studio/7.0/toolchain/avr32/avr32-gnu-toolchain/bin/../lib/gcc/avr32/4.4.7/../../../../avr32/lib/ucr2\libc.a(lib_a-closer.o)
 .debug_loc     0x0000bbcd       0xb6 d:/program files (x86)/atmel/studio/7.0/toolchain/avr32/avr32-gnu-toolchain/bin/../lib/gcc/avr32/4.4.7/../../../../avr32/lib/ucr2\libc.a(lib_a-fclose.o)
 .debug_loc     0x0000bc83       0x76 d:/program files (x86)/atmel/studio/7.0/toolchain/avr32/avr32-gnu-toolchain/bin/../lib/gcc/avr32/4.4.7/../../../../avr32/lib/ucr2\libc.a(lib_a-fstatr.o)
 .debug_loc     0x0000bcf9       0x94 d:/program files (x86)/atmel/studio/7.0/toolchain/avr32/avr32-gnu-toolchain/bin/../lib/gcc/avr32/4.4.7/../../../../avr32/lib/ucr2\libc.a(lib_a-lseekr.o)
 .debug_loc     0x0000bd8d       0x94 d:/program files (x86)/atmel/studio/7.0/toolchain/avr32/avr32-gnu-toolchain/bin/../lib/gcc/avr32/4.4.7/../../../../avr32/lib/ucr2\libc.a(lib_a-readr.o)
 .debug_loc     0x0000be21      0x75d d:/program files (x86)/atmel/studio/7.0/toolchain/avr32/avr32-gnu-toolchain/bin/../lib/gcc/avr32/4.4.7/ucr2\libgcc.a(_udivdi3.o)
 .debug_loc     0x0000c57e      0x4e6 d:/program files (x86)/atmel/studio/7.0/toolchain/avr32/avr32-gnu-toolchain/bin/../lib/gcc/avr32/4.4.7/ucr2\libgcc.a(_umoddi3.o)

.debug_macinfo
 *(.debug_macinfo)

.debug_weaknames
 *(.debug_weaknames)

.debug_funcnames
 *(.debug_funcnames)

.debug_typenames
 *(.debug_typenames)

.debug_varnames
 *(.debug_varnames)

.stack          0x00017000     0x1000
                0x00017000                _stack = .
 *(.stack)
                0x00001000                . = __stack_size__
 *fill*         0x00017000     0x1000 
                0x00018000                _estack = .

.userpage
 *(.userpage .userpage.*)

/DISCARD/
 *(.note.GNU-stack)
OUTPUT(moto_gob_prj.elf elf32-avr32)

.debug_ranges   0x00000000     0x1228
 .debug_ranges  0x00000000      0x108 Srouce/Application/app/app.o
 .debug_ranges  0x00000108       0x18 Srouce/Application/radio/ambe.o
 .debug_ranges  0x00000120       0x20 Srouce/Application/radio/payload.o
 .debug_ranges  0x00000140       0x60 Srouce/Application/radio/physical.o
 .debug_ranges  0x000001a0       0x38 Srouce/Application/radio/ssc.o
 .debug_ranges  0x000001d8       0xd8 Srouce/Application/radio/xcmp.o
 .debug_ranges  0x000002b0       0x80 Srouce/Application/radio/xnl.o
 .debug_ranges  0x00000330       0x48 Srouce/Application/rtc/rtc.o
 .debug_ranges  0x00000378       0x28 Srouce/Application/timers/timer.o
 .debug_ranges  0x000003a0       0x48 Srouce/ASF/avr32/drivers/intc/intc.o
 .debug_ranges  0x000003e8       0xa0 Srouce/ASF/avr32/drivers/tc/tc.o
 .debug_ranges  0x00000488       0x68 Srouce/ASF/avr32/drivers/twi/twi.o
 .debug_ranges  0x000004f0       0xd8 Srouce/ASF/avr32/drivers/usart/usart.o
 .debug_ranges  0x000005c8       0x38 Srouce/ASF/thirdparty/freertos/freertos-7.0.0/source/list.o
 .debug_ranges  0x00000600       0x70 Srouce/ASF/thirdparty/freertos/freertos-7.0.0/source/portable/gcc/avr32_uc3/port.o
 .debug_ranges  0x00000670       0x18 Srouce/ASF/thirdparty/freertos/freertos-7.0.0/source/portable/gcc/avr32_uc3/read.o
 .debug_ranges  0x00000688       0x18 Srouce/ASF/thirdparty/freertos/freertos-7.0.0/source/portable/gcc/avr32_uc3/write.o
 .debug_ranges  0x000006a0       0x20 Srouce/ASF/thirdparty/freertos/freertos-7.0.0/source/portable/memmang/heap_3.o
 .debug_ranges  0x000006c0       0x80 Srouce/ASF/thirdparty/freertos/freertos-7.0.0/source/queue.o
 .debug_ranges  0x00000740      0x178 Srouce/ASF/thirdparty/freertos/freertos-7.0.0/source/tasks.o
 .debug_ranges  0x000008b8       0x48 Srouce/Log/log.o
 .debug_ranges  0x00000900       0x18 Srouce/main.o
 .debug_ranges  0x00000918       0xf8 Srouce/ASF/avr32/drivers/gpio/gpio.o
 .debug_ranges  0x00000a10       0x20 Srouce/ASF/avr32/utils/startup/startup_uc3.o
 .debug_ranges  0x00000a30       0x20 d:/program files (x86)/atmel/studio/7.0/toolchain/avr32/avr32-gnu-toolchain/bin/../lib/gcc/avr32/4.4.7/../../../../avr32/lib/ucr2\libc.a(lib_a-malloc.o)
 .debug_ranges  0x00000a50       0x18 d:/program files (x86)/atmel/studio/7.0/toolchain/avr32/avr32-gnu-toolchain/bin/../lib/gcc/avr32/4.4.7/../../../../avr32/lib/ucr2\libc.a(lib_a-mallocr.o)
 .debug_ranges  0x00000a68       0x18 d:/program files (x86)/atmel/studio/7.0/toolchain/avr32/avr32-gnu-toolchain/bin/../lib/gcc/avr32/4.4.7/../../../../avr32/lib/ucr2\libc.a(lib_a-memset.o)
 .debug_ranges  0x00000a80       0x30 d:/program files (x86)/atmel/studio/7.0/toolchain/avr32/avr32-gnu-toolchain/bin/../lib/gcc/avr32/4.4.7/../../../../avr32/lib/ucr2\libc.a(lib_a-reallocr.o)
 .debug_ranges  0x00000ab0       0x18 d:/program files (x86)/atmel/studio/7.0/toolchain/avr32/avr32-gnu-toolchain/bin/../lib/gcc/avr32/4.4.7/../../../../avr32/lib/ucr2\libc.a(lib_a-sbrkr.o)
 .debug_ranges  0x00000ac8       0x20 d:/program files (x86)/atmel/studio/7.0/toolchain/avr32/avr32-gnu-toolchain/bin/../lib/gcc/avr32/4.4.7/../../../../avr32/lib/ucr2\libc.a(lib_a-sprintf.o)
 .debug_ranges  0x00000ae8       0x18 d:/program files (x86)/atmel/studio/7.0/toolchain/avr32/avr32-gnu-toolchain/bin/../lib/gcc/avr32/4.4.7/../../../../avr32/lib/ucr2\libc.a(lib_a-strlen.o)
 .debug_ranges  0x00000b00       0xf0 d:/program files (x86)/atmel/studio/7.0/toolchain/avr32/avr32-gnu-toolchain/bin/../lib/gcc/avr32/4.4.7/../../../../avr32/lib/ucr2\libc.a(lib_a-syscalls.o)
 .debug_ranges  0x00000bf0       0xa0 d:/program files (x86)/atmel/studio/7.0/toolchain/avr32/avr32-gnu-toolchain/bin/../lib/gcc/avr32/4.4.7/../../../../avr32/lib/ucr2\libc.a(lib_a-vfprintf.o)
 .debug_ranges  0x00000c90       0x18 d:/program files (x86)/atmel/studio/7.0/toolchain/avr32/avr32-gnu-toolchain/bin/../lib/gcc/avr32/4.4.7/../../../../avr32/lib/ucr2\libc.a(lib_a-wsetup.o)
 .debug_ranges  0x00000ca8       0x38 d:/program files (x86)/atmel/studio/7.0/toolchain/avr32/avr32-gnu-toolchain/bin/../lib/gcc/avr32/4.4.7/../../../../avr32/lib/ucr2\libc.a(lib_a-dtoa.o)
 .debug_ranges  0x00000ce0       0x18 d:/program files (x86)/atmel/studio/7.0/toolchain/avr32/avr32-gnu-toolchain/bin/../lib/gcc/avr32/4.4.7/../../../../avr32/lib/ucr2\libc.a(lib_a-errno.o)
 .debug_ranges  0x00000cf8       0x20 d:/program files (x86)/atmel/studio/7.0/toolchain/avr32/avr32-gnu-toolchain/bin/../lib/gcc/avr32/4.4.7/../../../../avr32/lib/ucr2\libc.a(lib_a-fflush.o)
 .debug_ranges  0x00000d18       0xb0 d:/program files (x86)/atmel/studio/7.0/toolchain/avr32/avr32-gnu-toolchain/bin/../lib/gcc/avr32/4.4.7/../../../../avr32/lib/ucr2\libc.a(lib_a-findfp.o)
 .debug_ranges  0x00000dc8       0x20 d:/program files (x86)/atmel/studio/7.0/toolchain/avr32/avr32-gnu-toolchain/bin/../lib/gcc/avr32/4.4.7/../../../../avr32/lib/ucr2\libc.a(lib_a-freer.o)
 .debug_ranges  0x00000de8       0x18 d:/program files (x86)/atmel/studio/7.0/toolchain/avr32/avr32-gnu-toolchain/bin/../lib/gcc/avr32/4.4.7/../../../../avr32/lib/ucr2\libc.a(lib_a-fvwrite.o)
 .debug_ranges  0x00000e00       0xa0 d:/program files (x86)/atmel/studio/7.0/toolchain/avr32/avr32-gnu-toolchain/bin/../lib/gcc/avr32/4.4.7/../../../../avr32/lib/ucr2\libc.a(lib_a-fwalk.o)
 .debug_ranges  0x00000ea0       0x38 d:/program files (x86)/atmel/studio/7.0/toolchain/avr32/avr32-gnu-toolchain/bin/../lib/gcc/avr32/4.4.7/../../../../avr32/lib/ucr2\libc.a(lib_a-locale.o)
 .debug_ranges  0x00000ed8       0x18 d:/program files (x86)/atmel/studio/7.0/toolchain/avr32/avr32-gnu-toolchain/bin/../lib/gcc/avr32/4.4.7/../../../../avr32/lib/ucr2\libc.a(lib_a-makebuf.o)
 .debug_ranges  0x00000ef0       0x18 d:/program files (x86)/atmel/studio/7.0/toolchain/avr32/avr32-gnu-toolchain/bin/../lib/gcc/avr32/4.4.7/../../../../avr32/lib/ucr2\libc.a(lib_a-memchr.o)
 .debug_ranges  0x00000f08       0x18 d:/program files (x86)/atmel/studio/7.0/toolchain/avr32/avr32-gnu-toolchain/bin/../lib/gcc/avr32/4.4.7/../../../../avr32/lib/ucr2\libc.a(lib_a-memmove.o)
 .debug_ranges  0x00000f20      0x120 d:/program files (x86)/atmel/studio/7.0/toolchain/avr32/avr32-gnu-toolchain/bin/../lib/gcc/avr32/4.4.7/../../../../avr32/lib/ucr2\libc.a(lib_a-mprec.o)
 .debug_ranges  0x00001040       0x28 d:/program files (x86)/atmel/studio/7.0/toolchain/avr32/avr32-gnu-toolchain/bin/../lib/gcc/avr32/4.4.7/../../../../avr32/lib/ucr2\libc.a(lib_a-reent.o)
 .debug_ranges  0x00001068       0x18 d:/program files (x86)/atmel/studio/7.0/toolchain/avr32/avr32-gnu-toolchain/bin/../lib/gcc/avr32/4.4.7/../../../../avr32/lib/ucr2\libc.a(lib_a-s_isinfd.o)
 .debug_ranges  0x00001080       0x18 d:/program files (x86)/atmel/studio/7.0/toolchain/avr32/avr32-gnu-toolchain/bin/../lib/gcc/avr32/4.4.7/../../../../avr32/lib/ucr2\libc.a(lib_a-s_isnand.o)
 .debug_ranges  0x00001098       0x30 d:/program files (x86)/atmel/studio/7.0/toolchain/avr32/avr32-gnu-toolchain/bin/../lib/gcc/avr32/4.4.7/../../../../avr32/lib/ucr2\libc.a(lib_a-stdio.o)
 .debug_ranges  0x000010c8       0x18 d:/program files (x86)/atmel/studio/7.0/toolchain/avr32/avr32-gnu-toolchain/bin/../lib/gcc/avr32/4.4.7/../../../../avr32/lib/ucr2\libc.a(lib_a-writer.o)
 .debug_ranges  0x000010e0       0x18 d:/program files (x86)/atmel/studio/7.0/toolchain/avr32/avr32-gnu-toolchain/bin/../lib/gcc/avr32/4.4.7/../../../../avr32/lib/ucr2\libc.a(lib_a-callocr.o)
 .debug_ranges  0x000010f8       0x18 d:/program files (x86)/atmel/studio/7.0/toolchain/avr32/avr32-gnu-toolchain/bin/../lib/gcc/avr32/4.4.7/../../../../avr32/lib/ucr2\libc.a(lib_a-closer.o)
 .debug_ranges  0x00001110       0x20 d:/program files (x86)/atmel/studio/7.0/toolchain/avr32/avr32-gnu-toolchain/bin/../lib/gcc/avr32/4.4.7/../../../../avr32/lib/ucr2\libc.a(lib_a-fclose.o)
 .debug_ranges  0x00001130       0x18 d:/program files (x86)/atmel/studio/7.0/toolchain/avr32/avr32-gnu-toolchain/bin/../lib/gcc/avr32/4.4.7/../../../../avr32/lib/ucr2\libc.a(lib_a-fstatr.o)
 .debug_ranges  0x00001148       0x18 d:/program files (x86)/atmel/studio/7.0/toolchain/avr32/avr32-gnu-toolchain/bin/../lib/gcc/avr32/4.4.7/../../../../avr32/lib/ucr2\libc.a(lib_a-lseekr.o)
 .debug_ranges  0x00001160       0x18 d:/program files (x86)/atmel/studio/7.0/toolchain/avr32/avr32-gnu-toolchain/bin/../lib/gcc/avr32/4.4.7/../../../../avr32/lib/ucr2\libc.a(lib_a-readr.o)
 .debug_ranges  0x00001178       0x78 d:/program files (x86)/atmel/studio/7.0/toolchain/avr32/avr32-gnu-toolchain/bin/../lib/gcc/avr32/4.4.7/ucr2\libgcc.a(_udivdi3.o)
 .debug_ranges  0x000011f0       0x38 d:/program files (x86)/atmel/studio/7.0/toolchain/avr32/avr32-gnu-toolchain/bin/../lib/gcc/avr32/4.4.7/ucr2\libgcc.a(_umoddi3.o)
