Archive member included because of file (symbol)

d:/program files (x86)/atmel/studio/7.0/toolchain/avr32/avr32-gnu-toolchain/bin/../lib/gcc/avr32/4.4.7/../../../../avr32/lib/ucr2\libc.a(lib_a-malloc.o)
                              Srouce/ASF/thirdparty/freertos/freertos-7.0.0/source/portable/memmang/heap_3.o (free)
d:/program files (x86)/atmel/studio/7.0/toolchain/avr32/avr32-gnu-toolchain/bin/../lib/gcc/avr32/4.4.7/../../../../avr32/lib/ucr2\libc.a(lib_a-mallocr.o)
                              d:/program files (x86)/atmel/studio/7.0/toolchain/avr32/avr32-gnu-toolchain/bin/../lib/gcc/avr32/4.4.7/../../../../avr32/lib/ucr2\libc.a(lib_a-malloc.o) (_malloc_r)
d:/program files (x86)/atmel/studio/7.0/toolchain/avr32/avr32-gnu-toolchain/bin/../lib/gcc/avr32/4.4.7/../../../../avr32/lib/ucr2\libc.a(lib_a-memcmp.o)
                              Srouce/Application/fs/fs.o (memcmp)
d:/program files (x86)/atmel/studio/7.0/toolchain/avr32/avr32-gnu-toolchain/bin/../lib/gcc/avr32/4.4.7/../../../../avr32/lib/ucr2\libc.a(lib_a-memcpy.o)
                              Srouce/Application/fs/mal_sd.o (memcpy)
d:/program files (x86)/atmel/studio/7.0/toolchain/avr32/avr32-gnu-toolchain/bin/../lib/gcc/avr32/4.4.7/../../../../avr32/lib/ucr2\libc.a(lib_a-memset.o)
                              Srouce/Application/fs/mal_sd.o (memset)
d:/program files (x86)/atmel/studio/7.0/toolchain/avr32/avr32-gnu-toolchain/bin/../lib/gcc/avr32/4.4.7/../../../../avr32/lib/ucr2\libc.a(lib_a-realloc.o)
                              Srouce/ASF/thirdparty/freertos/freertos-7.0.0/source/portable/gcc/avr32_uc3/port.o (realloc)
d:/program files (x86)/atmel/studio/7.0/toolchain/avr32/avr32-gnu-toolchain/bin/../lib/gcc/avr32/4.4.7/../../../../avr32/lib/ucr2\libc.a(lib_a-reallocr.o)
                              d:/program files (x86)/atmel/studio/7.0/toolchain/avr32/avr32-gnu-toolchain/bin/../lib/gcc/avr32/4.4.7/../../../../avr32/lib/ucr2\libc.a(lib_a-realloc.o) (_realloc_r)
d:/program files (x86)/atmel/studio/7.0/toolchain/avr32/avr32-gnu-toolchain/bin/../lib/gcc/avr32/4.4.7/../../../../avr32/lib/ucr2\libc.a(lib_a-sbrkr.o)
                              d:/program files (x86)/atmel/studio/7.0/toolchain/avr32/avr32-gnu-toolchain/bin/../lib/gcc/avr32/4.4.7/../../../../avr32/lib/ucr2\libc.a(lib_a-mallocr.o) (_sbrk_r)
d:/program files (x86)/atmel/studio/7.0/toolchain/avr32/avr32-gnu-toolchain/bin/../lib/gcc/avr32/4.4.7/../../../../avr32/lib/ucr2\libc.a(lib_a-sprintf.o)
                              Srouce/Application/fs/avr_spi_sd.o (sprintf)
d:/program files (x86)/atmel/studio/7.0/toolchain/avr32/avr32-gnu-toolchain/bin/../lib/gcc/avr32/4.4.7/../../../../avr32/lib/ucr2\libc.a(lib_a-strcpy.o)
                              Srouce/Application/fs/fs.o (strcpy)
d:/program files (x86)/atmel/studio/7.0/toolchain/avr32/avr32-gnu-toolchain/bin/../lib/gcc/avr32/4.4.7/../../../../avr32/lib/ucr2\libc.a(lib_a-strlen.o)
                              Srouce/Application/fs/fs.o (strlen)
d:/program files (x86)/atmel/studio/7.0/toolchain/avr32/avr32-gnu-toolchain/bin/../lib/gcc/avr32/4.4.7/../../../../avr32/lib/ucr2\libc.a(lib_a-strncpy.o)
                              Srouce/ASF/thirdparty/freertos/freertos-7.0.0/source/tasks.o (strncpy)
d:/program files (x86)/atmel/studio/7.0/toolchain/avr32/avr32-gnu-toolchain/bin/../lib/gcc/avr32/4.4.7/../../../../avr32/lib/ucr2\libc.a(lib_a-strtok.o)
                              Srouce/Application/fs/fs.o (strtok)
d:/program files (x86)/atmel/studio/7.0/toolchain/avr32/avr32-gnu-toolchain/bin/../lib/gcc/avr32/4.4.7/../../../../avr32/lib/ucr2\libc.a(lib_a-strtok_r.o)
                              d:/program files (x86)/atmel/studio/7.0/toolchain/avr32/avr32-gnu-toolchain/bin/../lib/gcc/avr32/4.4.7/../../../../avr32/lib/ucr2\libc.a(lib_a-strtok.o) (__strtok_r)
d:/program files (x86)/atmel/studio/7.0/toolchain/avr32/avr32-gnu-toolchain/bin/../lib/gcc/avr32/4.4.7/../../../../avr32/lib/ucr2\libc.a(lib_a-syscalls.o)
                              d:/program files (x86)/atmel/studio/7.0/toolchain/avr32/avr32-gnu-toolchain/bin/../lib/gcc/avr32/4.4.7/../../../../avr32/lib/ucr2\libc.a(lib_a-sbrkr.o) (_sbrk)
d:/program files (x86)/atmel/studio/7.0/toolchain/avr32/avr32-gnu-toolchain/bin/../lib/gcc/avr32/4.4.7/../../../../avr32/lib/ucr2\libc.a(lib_a-vfprintf.o)
                              d:/program files (x86)/atmel/studio/7.0/toolchain/avr32/avr32-gnu-toolchain/bin/../lib/gcc/avr32/4.4.7/../../../../avr32/lib/ucr2\libc.a(lib_a-sprintf.o) (_vfprintf_r)
d:/program files (x86)/atmel/studio/7.0/toolchain/avr32/avr32-gnu-toolchain/bin/../lib/gcc/avr32/4.4.7/../../../../avr32/lib/ucr2\libc.a(lib_a-wsetup.o)
                              d:/program files (x86)/atmel/studio/7.0/toolchain/avr32/avr32-gnu-toolchain/bin/../lib/gcc/avr32/4.4.7/../../../../avr32/lib/ucr2\libc.a(lib_a-vfprintf.o) (__swsetup_r)
d:/program files (x86)/atmel/studio/7.0/toolchain/avr32/avr32-gnu-toolchain/bin/../lib/gcc/avr32/4.4.7/../../../../avr32/lib/ucr2\libc.a(lib_a-dtoa.o)
                              d:/program files (x86)/atmel/studio/7.0/toolchain/avr32/avr32-gnu-toolchain/bin/../lib/gcc/avr32/4.4.7/../../../../avr32/lib/ucr2\libc.a(lib_a-vfprintf.o) (_dtoa_r)
d:/program files (x86)/atmel/studio/7.0/toolchain/avr32/avr32-gnu-toolchain/bin/../lib/gcc/avr32/4.4.7/../../../../avr32/lib/ucr2\libc.a(lib_a-errno.o)
                              d:/program files (x86)/atmel/studio/7.0/toolchain/avr32/avr32-gnu-toolchain/bin/../lib/gcc/avr32/4.4.7/../../../../avr32/lib/ucr2\libc.a(lib_a-syscalls.o) (__errno)
d:/program files (x86)/atmel/studio/7.0/toolchain/avr32/avr32-gnu-toolchain/bin/../lib/gcc/avr32/4.4.7/../../../../avr32/lib/ucr2\libc.a(lib_a-fflush.o)
                              d:/program files (x86)/atmel/studio/7.0/toolchain/avr32/avr32-gnu-toolchain/bin/../lib/gcc/avr32/4.4.7/../../../../avr32/lib/ucr2\libc.a(lib_a-vfprintf.o) (_fflush_r)
d:/program files (x86)/atmel/studio/7.0/toolchain/avr32/avr32-gnu-toolchain/bin/../lib/gcc/avr32/4.4.7/../../../../avr32/lib/ucr2\libc.a(lib_a-findfp.o)
                              d:/program files (x86)/atmel/studio/7.0/toolchain/avr32/avr32-gnu-toolchain/bin/../lib/gcc/avr32/4.4.7/../../../../avr32/lib/ucr2\libc.a(lib_a-vfprintf.o) (__sinit)
d:/program files (x86)/atmel/studio/7.0/toolchain/avr32/avr32-gnu-toolchain/bin/../lib/gcc/avr32/4.4.7/../../../../avr32/lib/ucr2\libc.a(lib_a-freer.o)
                              d:/program files (x86)/atmel/studio/7.0/toolchain/avr32/avr32-gnu-toolchain/bin/../lib/gcc/avr32/4.4.7/../../../../avr32/lib/ucr2\libc.a(lib_a-malloc.o) (_free_r)
d:/program files (x86)/atmel/studio/7.0/toolchain/avr32/avr32-gnu-toolchain/bin/../lib/gcc/avr32/4.4.7/../../../../avr32/lib/ucr2\libc.a(lib_a-fvwrite.o)
                              d:/program files (x86)/atmel/studio/7.0/toolchain/avr32/avr32-gnu-toolchain/bin/../lib/gcc/avr32/4.4.7/../../../../avr32/lib/ucr2\libc.a(lib_a-vfprintf.o) (__sfvwrite_r)
d:/program files (x86)/atmel/studio/7.0/toolchain/avr32/avr32-gnu-toolchain/bin/../lib/gcc/avr32/4.4.7/../../../../avr32/lib/ucr2\libc.a(lib_a-fwalk.o)
                              d:/program files (x86)/atmel/studio/7.0/toolchain/avr32/avr32-gnu-toolchain/bin/../lib/gcc/avr32/4.4.7/../../../../avr32/lib/ucr2\libc.a(lib_a-fflush.o) (_fwalk_reent)
d:/program files (x86)/atmel/studio/7.0/toolchain/avr32/avr32-gnu-toolchain/bin/../lib/gcc/avr32/4.4.7/../../../../avr32/lib/ucr2\libc.a(lib_a-impure.o)
                              d:/program files (x86)/atmel/studio/7.0/toolchain/avr32/avr32-gnu-toolchain/bin/../lib/gcc/avr32/4.4.7/../../../../avr32/lib/ucr2\libc.a(lib_a-malloc.o) (_impure_ptr)
d:/program files (x86)/atmel/studio/7.0/toolchain/avr32/avr32-gnu-toolchain/bin/../lib/gcc/avr32/4.4.7/../../../../avr32/lib/ucr2\libc.a(lib_a-locale.o)
                              d:/program files (x86)/atmel/studio/7.0/toolchain/avr32/avr32-gnu-toolchain/bin/../lib/gcc/avr32/4.4.7/../../../../avr32/lib/ucr2\libc.a(lib_a-vfprintf.o) (_localeconv_r)
d:/program files (x86)/atmel/studio/7.0/toolchain/avr32/avr32-gnu-toolchain/bin/../lib/gcc/avr32/4.4.7/../../../../avr32/lib/ucr2\libc.a(lib_a-makebuf.o)
                              d:/program files (x86)/atmel/studio/7.0/toolchain/avr32/avr32-gnu-toolchain/bin/../lib/gcc/avr32/4.4.7/../../../../avr32/lib/ucr2\libc.a(lib_a-wsetup.o) (__smakebuf_r)
d:/program files (x86)/atmel/studio/7.0/toolchain/avr32/avr32-gnu-toolchain/bin/../lib/gcc/avr32/4.4.7/../../../../avr32/lib/ucr2\libc.a(lib_a-memchr.o)
                              d:/program files (x86)/atmel/studio/7.0/toolchain/avr32/avr32-gnu-toolchain/bin/../lib/gcc/avr32/4.4.7/../../../../avr32/lib/ucr2\libc.a(lib_a-vfprintf.o) (memchr)
d:/program files (x86)/atmel/studio/7.0/toolchain/avr32/avr32-gnu-toolchain/bin/../lib/gcc/avr32/4.4.7/../../../../avr32/lib/ucr2\libc.a(lib_a-memmove.o)
                              d:/program files (x86)/atmel/studio/7.0/toolchain/avr32/avr32-gnu-toolchain/bin/../lib/gcc/avr32/4.4.7/../../../../avr32/lib/ucr2\libc.a(lib_a-reallocr.o) (memmove)
d:/program files (x86)/atmel/studio/7.0/toolchain/avr32/avr32-gnu-toolchain/bin/../lib/gcc/avr32/4.4.7/../../../../avr32/lib/ucr2\libc.a(lib_a-mprec.o)
                              d:/program files (x86)/atmel/studio/7.0/toolchain/avr32/avr32-gnu-toolchain/bin/../lib/gcc/avr32/4.4.7/../../../../avr32/lib/ucr2\libc.a(lib_a-dtoa.o) (__hi0bits)
d:/program files (x86)/atmel/studio/7.0/toolchain/avr32/avr32-gnu-toolchain/bin/../lib/gcc/avr32/4.4.7/../../../../avr32/lib/ucr2\libc.a(lib_a-reent.o)
                              d:/program files (x86)/atmel/studio/7.0/toolchain/avr32/avr32-gnu-toolchain/bin/../lib/gcc/avr32/4.4.7/../../../../avr32/lib/ucr2\libc.a(lib_a-sbrkr.o) (errno)
d:/program files (x86)/atmel/studio/7.0/toolchain/avr32/avr32-gnu-toolchain/bin/../lib/gcc/avr32/4.4.7/../../../../avr32/lib/ucr2\libc.a(lib_a-s_isinfd.o)
                              d:/program files (x86)/atmel/studio/7.0/toolchain/avr32/avr32-gnu-toolchain/bin/../lib/gcc/avr32/4.4.7/../../../../avr32/lib/ucr2\libc.a(lib_a-vfprintf.o) (__isinfd)
d:/program files (x86)/atmel/studio/7.0/toolchain/avr32/avr32-gnu-toolchain/bin/../lib/gcc/avr32/4.4.7/../../../../avr32/lib/ucr2\libc.a(lib_a-s_isnand.o)
                              d:/program files (x86)/atmel/studio/7.0/toolchain/avr32/avr32-gnu-toolchain/bin/../lib/gcc/avr32/4.4.7/../../../../avr32/lib/ucr2\libc.a(lib_a-vfprintf.o) (__isnand)
d:/program files (x86)/atmel/studio/7.0/toolchain/avr32/avr32-gnu-toolchain/bin/../lib/gcc/avr32/4.4.7/../../../../avr32/lib/ucr2\libc.a(lib_a-stdio.o)
                              d:/program files (x86)/atmel/studio/7.0/toolchain/avr32/avr32-gnu-toolchain/bin/../lib/gcc/avr32/4.4.7/../../../../avr32/lib/ucr2\libc.a(lib_a-findfp.o) (__sclose)
d:/program files (x86)/atmel/studio/7.0/toolchain/avr32/avr32-gnu-toolchain/bin/../lib/gcc/avr32/4.4.7/../../../../avr32/lib/ucr2\libc.a(lib_a-strcmp.o)
                              d:/program files (x86)/atmel/studio/7.0/toolchain/avr32/avr32-gnu-toolchain/bin/../lib/gcc/avr32/4.4.7/../../../../avr32/lib/ucr2\libc.a(lib_a-locale.o) (strcmp)
d:/program files (x86)/atmel/studio/7.0/toolchain/avr32/avr32-gnu-toolchain/bin/../lib/gcc/avr32/4.4.7/../../../../avr32/lib/ucr2\libc.a(lib_a-writer.o)
                              d:/program files (x86)/atmel/studio/7.0/toolchain/avr32/avr32-gnu-toolchain/bin/../lib/gcc/avr32/4.4.7/../../../../avr32/lib/ucr2\libc.a(lib_a-stdio.o) (_write_r)
d:/program files (x86)/atmel/studio/7.0/toolchain/avr32/avr32-gnu-toolchain/bin/../lib/gcc/avr32/4.4.7/../../../../avr32/lib/ucr2\libc.a(lib_a-callocr.o)
                              d:/program files (x86)/atmel/studio/7.0/toolchain/avr32/avr32-gnu-toolchain/bin/../lib/gcc/avr32/4.4.7/../../../../avr32/lib/ucr2\libc.a(lib_a-mprec.o) (_calloc_r)
d:/program files (x86)/atmel/studio/7.0/toolchain/avr32/avr32-gnu-toolchain/bin/../lib/gcc/avr32/4.4.7/../../../../avr32/lib/ucr2\libc.a(lib_a-closer.o)
                              d:/program files (x86)/atmel/studio/7.0/toolchain/avr32/avr32-gnu-toolchain/bin/../lib/gcc/avr32/4.4.7/../../../../avr32/lib/ucr2\libc.a(lib_a-stdio.o) (_close_r)
d:/program files (x86)/atmel/studio/7.0/toolchain/avr32/avr32-gnu-toolchain/bin/../lib/gcc/avr32/4.4.7/../../../../avr32/lib/ucr2\libc.a(lib_a-fclose.o)
                              d:/program files (x86)/atmel/studio/7.0/toolchain/avr32/avr32-gnu-toolchain/bin/../lib/gcc/avr32/4.4.7/../../../../avr32/lib/ucr2\libc.a(lib_a-findfp.o) (fclose)
d:/program files (x86)/atmel/studio/7.0/toolchain/avr32/avr32-gnu-toolchain/bin/../lib/gcc/avr32/4.4.7/../../../../avr32/lib/ucr2\libc.a(lib_a-fstatr.o)
                              d:/program files (x86)/atmel/studio/7.0/toolchain/avr32/avr32-gnu-toolchain/bin/../lib/gcc/avr32/4.4.7/../../../../avr32/lib/ucr2\libc.a(lib_a-makebuf.o) (_fstat_r)
d:/program files (x86)/atmel/studio/7.0/toolchain/avr32/avr32-gnu-toolchain/bin/../lib/gcc/avr32/4.4.7/../../../../avr32/lib/ucr2\libc.a(lib_a-lseekr.o)
                              d:/program files (x86)/atmel/studio/7.0/toolchain/avr32/avr32-gnu-toolchain/bin/../lib/gcc/avr32/4.4.7/../../../../avr32/lib/ucr2\libc.a(lib_a-stdio.o) (_lseek_r)
d:/program files (x86)/atmel/studio/7.0/toolchain/avr32/avr32-gnu-toolchain/bin/../lib/gcc/avr32/4.4.7/../../../../avr32/lib/ucr2\libc.a(lib_a-readr.o)
                              d:/program files (x86)/atmel/studio/7.0/toolchain/avr32/avr32-gnu-toolchain/bin/../lib/gcc/avr32/4.4.7/../../../../avr32/lib/ucr2\libc.a(lib_a-stdio.o) (_read_r)
d:/program files (x86)/atmel/studio/7.0/toolchain/avr32/avr32-gnu-toolchain/bin/../lib/gcc/avr32/4.4.7/ucr2\libgcc.a(_avr32_f64_mul.o)
                              d:/program files (x86)/atmel/studio/7.0/toolchain/avr32/avr32-gnu-toolchain/bin/../lib/gcc/avr32/4.4.7/../../../../avr32/lib/ucr2\libc.a(lib_a-dtoa.o) (__avr32_f64_mul)
d:/program files (x86)/atmel/studio/7.0/toolchain/avr32/avr32-gnu-toolchain/bin/../lib/gcc/avr32/4.4.7/ucr2\libgcc.a(_avr32_f64_addsub.o)
                              d:/program files (x86)/atmel/studio/7.0/toolchain/avr32/avr32-gnu-toolchain/bin/../lib/gcc/avr32/4.4.7/../../../../avr32/lib/ucr2\libc.a(lib_a-dtoa.o) (__avr32_f64_sub)
d:/program files (x86)/atmel/studio/7.0/toolchain/avr32/avr32-gnu-toolchain/bin/../lib/gcc/avr32/4.4.7/ucr2\libgcc.a(_avr32_f64_to_s32.o)
                              d:/program files (x86)/atmel/studio/7.0/toolchain/avr32/avr32-gnu-toolchain/bin/../lib/gcc/avr32/4.4.7/../../../../avr32/lib/ucr2\libc.a(lib_a-dtoa.o) (__avr32_f64_to_s32)
d:/program files (x86)/atmel/studio/7.0/toolchain/avr32/avr32-gnu-toolchain/bin/../lib/gcc/avr32/4.4.7/ucr2\libgcc.a(_avr32_s32_to_f64.o)
                              d:/program files (x86)/atmel/studio/7.0/toolchain/avr32/avr32-gnu-toolchain/bin/../lib/gcc/avr32/4.4.7/../../../../avr32/lib/ucr2\libc.a(lib_a-dtoa.o) (__avr32_u32_to_f64)
d:/program files (x86)/atmel/studio/7.0/toolchain/avr32/avr32-gnu-toolchain/bin/../lib/gcc/avr32/4.4.7/ucr2\libgcc.a(_avr32_f64_cmp_eq.o)
                              d:/program files (x86)/atmel/studio/7.0/toolchain/avr32/avr32-gnu-toolchain/bin/../lib/gcc/avr32/4.4.7/../../../../avr32/lib/ucr2\libc.a(lib_a-vfprintf.o) (__avr32_f64_cmp_eq)
d:/program files (x86)/atmel/studio/7.0/toolchain/avr32/avr32-gnu-toolchain/bin/../lib/gcc/avr32/4.4.7/ucr2\libgcc.a(_avr32_f64_cmp_ge.o)
                              d:/program files (x86)/atmel/studio/7.0/toolchain/avr32/avr32-gnu-toolchain/bin/../lib/gcc/avr32/4.4.7/../../../../avr32/lib/ucr2\libc.a(lib_a-dtoa.o) (__avr32_f64_cmp_ge)
d:/program files (x86)/atmel/studio/7.0/toolchain/avr32/avr32-gnu-toolchain/bin/../lib/gcc/avr32/4.4.7/ucr2\libgcc.a(_avr32_f64_cmp_lt.o)
                              d:/program files (x86)/atmel/studio/7.0/toolchain/avr32/avr32-gnu-toolchain/bin/../lib/gcc/avr32/4.4.7/../../../../avr32/lib/ucr2\libc.a(lib_a-vfprintf.o) (__avr32_f64_cmp_lt)
d:/program files (x86)/atmel/studio/7.0/toolchain/avr32/avr32-gnu-toolchain/bin/../lib/gcc/avr32/4.4.7/ucr2\libgcc.a(_avr32_f64_div.o)
                              d:/program files (x86)/atmel/studio/7.0/toolchain/avr32/avr32-gnu-toolchain/bin/../lib/gcc/avr32/4.4.7/../../../../avr32/lib/ucr2\libc.a(lib_a-dtoa.o) (__avr32_f64_div)
d:/program files (x86)/atmel/studio/7.0/toolchain/avr32/avr32-gnu-toolchain/bin/../lib/gcc/avr32/4.4.7/ucr2\libgcc.a(_udivdi3.o)
                              d:/program files (x86)/atmel/studio/7.0/toolchain/avr32/avr32-gnu-toolchain/bin/../lib/gcc/avr32/4.4.7/../../../../avr32/lib/ucr2\libc.a(lib_a-vfprintf.o) (__avr32_udiv64)
d:/program files (x86)/atmel/studio/7.0/toolchain/avr32/avr32-gnu-toolchain/bin/../lib/gcc/avr32/4.4.7/ucr2\libgcc.a(_umoddi3.o)
                              d:/program files (x86)/atmel/studio/7.0/toolchain/avr32/avr32-gnu-toolchain/bin/../lib/gcc/avr32/4.4.7/../../../../avr32/lib/ucr2\libc.a(lib_a-vfprintf.o) (__avr32_umod64)

Allocating common symbols
Common symbol       size              file

intDuration         0x4               Srouce/Application/radio/ssc.o
BufferIndex         0x1               Srouce/Application/radio/ssc.o
payload_store       0x1400            Srouce/Application/radio/physical.o
Soft_Decision_Value
                    0x8               Srouce/Application/radio/ambe.o
errno               0x4               d:/program files (x86)/atmel/studio/7.0/toolchain/avr32/avr32-gnu-toolchain/bin/../lib/gcc/avr32/4.4.7/../../../../avr32/lib/ucr2\libc.a(lib_a-reent.o)
bunchofrandomstatusflags
                    0x4               Srouce/Application/app/app.o
AMBEBurst_rawdata   0x8               Srouce/Application/radio/ambe.o
intStartCount       0x4               Srouce/Application/radio/ssc.o
Radio_Internal_Data
                    0x4               Srouce/Application/radio/ambe.o
AMBE_DecryptionKey  0x8               Srouce/Application/radio/ambe.o
app_list            0x4               Srouce/Application/radio/xcmp.o
logQueue            0x4               Srouce/Log/log.o
xnl_store           0x1e00            Srouce/Application/radio/physical.o
SendAMBEBurst_EncryptionPackage
                    0xf0              Srouce/Application/radio/ambe.o
RxBuffer            0x20              Srouce/Application/radio/ssc.o
TxBuffer            0x20              Srouce/Application/radio/ssc.o
VBSP_data           0x4               Srouce/Application/radio/ambe.o
stdio_usart_base    0x4               Srouce/ASF/thirdparty/freertos/freertos-7.0.0/source/portable/gcc/avr32_uc3/write.o
spi                 0x4               Srouce/Application/fs/avr_spi_sd.o

Discarded input sections

 .text          0x00000000        0x0 Srouce/Application/app/app.o
 .data          0x00000000        0x0 Srouce/Application/app/app.o
 .bss           0x00000000        0x0 Srouce/Application/app/app.o
 .text          0x00000000        0x0 Srouce/Application/fs/avr_spi_sd.o
 .data          0x00000000        0x0 Srouce/Application/fs/avr_spi_sd.o
 .bss           0x00000000        0x0 Srouce/Application/fs/avr_spi_sd.o
 .debug_abbrev  0x00000000      0x29b Srouce/Application/fs/avr_spi_sd.o
 .debug_info    0x00000000     0x1675 Srouce/Application/fs/avr_spi_sd.o
 .debug_line    0x00000000      0x4dd Srouce/Application/fs/avr_spi_sd.o
 .text.SD_SPI_SetSpeed
                0x00000000       0x24 Srouce/Application/fs/avr_spi_sd.o
 .text.SD_SPI_SetSpeedHi
                0x00000000       0x10 Srouce/Application/fs/avr_spi_sd.o
 .text.SD_SPI_SetSpeedLow
                0x00000000       0x10 Srouce/Application/fs/avr_spi_sd.o
 .text.SD_LowLevel_Init
                0x00000000       0x78 Srouce/Application/fs/avr_spi_sd.o
 .text.SD_LowLevel_DeInit
                0x00000000       0x84 Srouce/Application/fs/avr_spi_sd.o
 .text.SD_DeInit
                0x00000000        0xc Srouce/Application/fs/avr_spi_sd.o
 .text.SD_ReadByte
                0x00000000       0x44 Srouce/Application/fs/avr_spi_sd.o
 .text.SD_GetResponse
                0x00000000       0x34 Srouce/Application/fs/avr_spi_sd.o
 .text.SD_GetDataResponse
                0x00000000       0x40 Srouce/Application/fs/avr_spi_sd.o
 .text.SD_WriteByte
                0x00000000       0x4c Srouce/Application/fs/avr_spi_sd.o
 .text.SD_WaitReady
                0x00000000       0x38 Srouce/Application/fs/avr_spi_sd.o
 .text.SD_SendCmd
                0x00000000       0x3c Srouce/Application/fs/avr_spi_sd.o
 .text.SD_GoIdleState
                0x00000000      0x1c8 Srouce/Application/fs/avr_spi_sd.o
 .text.SD_GetStatus
                0x00000000       0x50 Srouce/Application/fs/avr_spi_sd.o
 .text.SD_GetCIDRegister
                0x00000000      0x130 Srouce/Application/fs/avr_spi_sd.o
 .text.SD_WriteMultiBlocks
                0x00000000       0xc8 Srouce/Application/fs/avr_spi_sd.o
 .text.SD_WriteBlock
                0x00000000       0xa8 Srouce/Application/fs/avr_spi_sd.o
 .text.SD_ReadMultiBlocks
                0x00000000       0xc4 Srouce/Application/fs/avr_spi_sd.o
 .text.SD_ReadBlock
                0x00000000       0x90 Srouce/Application/fs/avr_spi_sd.o
 .text.SD_Init  0x00000000       0x60 Srouce/Application/fs/avr_spi_sd.o
 .text.SD_GetCSDRegister
                0x00000000      0x2c8 Srouce/Application/fs/avr_spi_sd.o
 .text.SD_GetCardInfo
                0x00000000       0x60 Srouce/Application/fs/avr_spi_sd.o
 .text.SD_GetSectorCount
                0x00000000       0x20 Srouce/Application/fs/avr_spi_sd.o
 .bss.temp.11320
                0x00000000        0x4 Srouce/Application/fs/avr_spi_sd.o
 .bss.i.10739   0x00000000        0x4 Srouce/Application/fs/avr_spi_sd.o
 .bss.SD_flash_failure
                0x00000000        0x1 Srouce/Application/fs/avr_spi_sd.o
 .rodata.C.71.11277
                0x00000000       0x10 Srouce/Application/fs/avr_spi_sd.o
 .rodata.str1.4
                0x00000000       0x14 Srouce/Application/fs/avr_spi_sd.o
 .bss.times.10890
                0x00000000        0x4 Srouce/Application/fs/avr_spi_sd.o
 .bss.flag_SDHC
                0x00000000        0x1 Srouce/Application/fs/avr_spi_sd.o
 .rodata.C.72.11287
                0x00000000       0x10 Srouce/Application/fs/avr_spi_sd.o
 .rodata.SD_SPI_GPIO_MAP.11285
                0x00000000       0x20 Srouce/Application/fs/avr_spi_sd.o
 .rodata.SD_SPI_GPIO_MAP.11274
                0x00000000       0x20 Srouce/Application/fs/avr_spi_sd.o
 .debug_frame   0x00000000      0x314 Srouce/Application/fs/avr_spi_sd.o
 .debug_loc     0x00000000      0x981 Srouce/Application/fs/avr_spi_sd.o
 .debug_pubnames
                0x00000000      0x1ec Srouce/Application/fs/avr_spi_sd.o
 .debug_aranges
                0x00000000       0xd0 Srouce/Application/fs/avr_spi_sd.o
 .debug_ranges  0x00000000       0xc8 Srouce/Application/fs/avr_spi_sd.o
 .debug_str     0x00000000      0x9a3 Srouce/Application/fs/avr_spi_sd.o
 .comment       0x00000000       0x31 Srouce/Application/fs/avr_spi_sd.o
 COMMON         0x00000000        0x4 Srouce/Application/fs/avr_spi_sd.o
 .text          0x00000000        0x0 Srouce/Application/fs/mal_sd.o
 .data          0x00000000        0x0 Srouce/Application/fs/mal_sd.o
 .bss           0x00000000        0x0 Srouce/Application/fs/mal_sd.o
 .debug_abbrev  0x00000000      0x13e Srouce/Application/fs/mal_sd.o
 .debug_info    0x00000000      0x694 Srouce/Application/fs/mal_sd.o
 .debug_line    0x00000000      0x16a Srouce/Application/fs/mal_sd.o
 .text.MAL_WriteDisk
                0x00000000       0x30 Srouce/Application/fs/mal_sd.o
 .text.MAL_WriteData
                0x00000000       0x6c Srouce/Application/fs/mal_sd.o
 .text.MAL_ReadDisk
                0x00000000       0x30 Srouce/Application/fs/mal_sd.o
 .text.MAL_ReadData
                0x00000000       0xa4 Srouce/Application/fs/mal_sd.o
 .text.MAL_InitConfig
                0x00000000       0x24 Srouce/Application/fs/mal_sd.o
 .debug_frame   0x00000000       0x98 Srouce/Application/fs/mal_sd.o
 .debug_loc     0x00000000      0x37e Srouce/Application/fs/mal_sd.o
 .debug_pubnames
                0x00000000       0x6b Srouce/Application/fs/mal_sd.o
 .debug_aranges
                0x00000000       0x40 Srouce/Application/fs/mal_sd.o
 .debug_ranges  0x00000000       0x38 Srouce/Application/fs/mal_sd.o
 .debug_str     0x00000000      0x63a Srouce/Application/fs/mal_sd.o
 .comment       0x00000000       0x31 Srouce/Application/fs/mal_sd.o
 .text          0x00000000        0x0 Srouce/Application/fs/fs.o
 .data          0x00000000        0x0 Srouce/Application/fs/fs.o
 .bss           0x00000000        0x0 Srouce/Application/fs/fs.o
 .debug_abbrev  0x00000000      0x249 Srouce/Application/fs/fs.o
 .debug_info    0x00000000      0xb2d Srouce/Application/fs/fs.o
 .debug_line    0x00000000      0x32b Srouce/Application/fs/fs.o
 .text.delDir   0x00000000        0x2 Srouce/Application/fs/fs.o
 .text.fs_format
                0x00000000        0x2 Srouce/Application/fs/fs.o
 .text.fs_getVoiceFileLength
                0x00000000       0x14 Srouce/Application/fs/fs.o
 .text.fs_WriteVoiceFile
                0x00000000        0x2 Srouce/Application/fs/fs.o
 .text.fs_openReadVoiceFile
                0x00000000        0x2 Srouce/Application/fs/fs.o
 .text.fs_readVoiceDat
                0x00000000        0x2 Srouce/Application/fs/fs.o
 .text.fs_closeVoiceFile
                0x00000000       0x30 Srouce/Application/fs/fs.o
 .text.fs_saveVoiceInfo
                0x00000000       0x84 Srouce/Application/fs/fs.o
 .text.fl_read  0x00000000       0x88 Srouce/Application/fs/fs.o
 .text.fl_write
                0x00000000       0x88 Srouce/Application/fs/fs.o
 .text.fl_write_func
                0x00000000      0x174 Srouce/Application/fs/fs.o
 .text.fl_read_func
                0x00000000      0x174 Srouce/Application/fs/fs.o
 .text.fl_oper_process
                0x00000000       0xa8 Srouce/Application/fs/fs.o
 .text.disk_init
                0x00000000      0x164 Srouce/Application/fs/fs.o
 .text.fs_init  0x00000000       0x50 Srouce/Application/fs/fs.o
 .bss.path_bk.11438
                0x00000000       0x40 Srouce/Application/fs/fs.o
 .bss.clust     0x00000000        0x4 Srouce/Application/fs/fs.o
 .bss.fs        0x00000000      0x230 Srouce/Application/fs/fs.o
 .data.DiskLabel
                0x00000000        0x8 Srouce/Application/fs/fs.o
 .bss.dirs      0x00000000       0x20 Srouce/Application/fs/fs.o
 .bss.filename.11437
                0x00000000       0x40 Srouce/Application/fs/fs.o
 .rodata.str1.4
                0x00000000       0x74 Srouce/Application/fs/fs.o
 .bss.fl_oper_queue
                0x00000000        0x4 Srouce/Application/fs/fs.o
 .bss.path_bk.11388
                0x00000000       0x40 Srouce/Application/fs/fs.o
 .bss.pfs       0x00000000        0x4 Srouce/Application/fs/fs.o
 .bss.filename.11387
                0x00000000       0x40 Srouce/Application/fs/fs.o
 .bss.isFlOpen  0x00000000        0x1 Srouce/Application/fs/fs.o
 .bss.fl        0x00000000      0x228 Srouce/Application/fs/fs.o
 .bss.res.11593
                0x00000000        0x4 Srouce/Application/fs/fs.o
 .debug_frame   0x00000000      0x208 Srouce/Application/fs/fs.o
 .debug_loc     0x00000000      0x6a9 Srouce/Application/fs/fs.o
 .debug_pubnames
                0x00000000      0x124 Srouce/Application/fs/fs.o
 .debug_aranges
                0x00000000       0x90 Srouce/Application/fs/fs.o
 .debug_ranges  0x00000000       0x88 Srouce/Application/fs/fs.o
 .debug_str     0x00000000      0x5de Srouce/Application/fs/fs.o
 .comment       0x00000000       0x31 Srouce/Application/fs/fs.o
 .text          0x00000000        0x0 Srouce/Application/radio/ambe.o
 .data          0x00000000        0x0 Srouce/Application/radio/ambe.o
 .bss           0x00000000        0x0 Srouce/Application/radio/ambe.o
 .rodata.Public_AMBEkey
                0x00000000        0x8 Srouce/Application/radio/ambe.o
 .text          0x00000000        0x0 Srouce/Application/radio/AMBE_audio.o
 .data          0x00000000        0x0 Srouce/Application/radio/AMBE_audio.o
 .bss           0x00000000        0x0 Srouce/Application/radio/AMBE_audio.o
 .debug_abbrev  0x00000000       0x52 Srouce/Application/radio/AMBE_audio.o
 .debug_info    0x00000000       0x58 Srouce/Application/radio/AMBE_audio.o
 .debug_line    0x00000000       0x49 Srouce/Application/radio/AMBE_audio.o
 .rodata.AMBE_AudioData_1
                0x00000000      0x478 Srouce/Application/radio/AMBE_audio.o
 .debug_pubnames
                0x00000000       0x27 Srouce/Application/radio/AMBE_audio.o
 .debug_str     0x00000000       0xb7 Srouce/Application/radio/AMBE_audio.o
 .comment       0x00000000       0x31 Srouce/Application/radio/AMBE_audio.o
 .text          0x00000000        0x0 Srouce/Application/radio/AMBE_audio_2.o
 .data          0x00000000        0x0 Srouce/Application/radio/AMBE_audio_2.o
 .bss           0x00000000        0x0 Srouce/Application/radio/AMBE_audio_2.o
 .text          0x00000000        0x0 Srouce/Application/radio/payload.o
 .data          0x00000000        0x0 Srouce/Application/radio/payload.o
 .bss           0x00000000        0x0 Srouce/Application/radio/payload.o
 .text          0x00000000        0x0 Srouce/Application/radio/audio.o
 .data          0x00000000        0x0 Srouce/Application/radio/audio.o
 .bss           0x00000000        0x0 Srouce/Application/radio/audio.o
 .text          0x00000000        0x0 Srouce/Application/radio/physical.o
 .data          0x00000000        0x0 Srouce/Application/radio/physical.o
 .bss           0x00000000        0x0 Srouce/Application/radio/physical.o
 .bss.test_tx   0x00000000        0x4 Srouce/Application/radio/physical.o
 .text          0x00000000        0x0 Srouce/Application/radio/ssc.o
 .data          0x00000000        0x0 Srouce/Application/radio/ssc.o
 .bss           0x00000000        0x0 Srouce/Application/radio/ssc.o
 .text          0x00000000        0x0 Srouce/Application/radio/xcmp.o
 .data          0x00000000        0x0 Srouce/Application/radio/xcmp.o
 .bss           0x00000000        0x0 Srouce/Application/radio/xcmp.o
 .text.xcmp_mute_speaker
                0x00000000       0x30 Srouce/Application/radio/xcmp.o
 .text.xcmp_unmute_speaker
                0x00000000       0x30 Srouce/Application/radio/xcmp.o
 .text.xcmp_function_mic
                0x00000000       0x30 Srouce/Application/radio/xcmp.o
 .text.xcmp_transmit_dekeycontrol
                0x00000000       0x2c Srouce/Application/radio/xcmp.o
 .text.xcmp_transmit_control
                0x00000000       0x2c Srouce/Application/radio/xcmp.o
 .text.xcmp_exit_device_control_mode
                0x00000000       0x30 Srouce/Application/radio/xcmp.o
 .text.xcmp_enter_device_control_mode
                0x00000000       0x2c Srouce/Application/radio/xcmp.o
 .text.xcmp_audio_route_AMBE
                0x00000000       0x4c Srouce/Application/radio/xcmp.o
 .text.xcmp_audio_route_revert
                0x00000000       0x2c Srouce/Application/radio/xcmp.o
 .text.xcmp_audio_route_speaker
                0x00000000       0x3c Srouce/Application/radio/xcmp.o
 .text.xcmp_volume_control
                0x00000000       0x30 Srouce/Application/radio/xcmp.o
 .text.xcmp_exit_enhanced_OB_mode
                0x00000000       0x24 Srouce/Application/radio/xcmp.o
 .text.xcmp_enter_enhanced_OB_mode
                0x00000000       0x24 Srouce/Application/radio/xcmp.o
 .text.xcmp_button_config
                0x00000000       0x4c Srouce/Application/radio/xcmp.o
 .text.xcmp_data_session
                0x00000000       0x64 Srouce/Application/radio/xcmp.o
 .data.DataPayload
                0x00000000       0x14 Srouce/Application/radio/xcmp.o
 .text          0x00000000        0x0 Srouce/Application/radio/xnl.o
 .data          0x00000000        0x0 Srouce/Application/radio/xnl.o
 .bss           0x00000000        0x0 Srouce/Application/radio/xnl.o
 .rodata.authKey
                0x00000000       0x10 Srouce/Application/radio/xnl.o
 .rodata.authDelta
                0x00000000        0x4 Srouce/Application/radio/xnl.o
 .text          0x00000000        0x0 Srouce/Application/rtc/rtc.o
 .data          0x00000000        0x0 Srouce/Application/rtc/rtc.o
 .bss           0x00000000        0x0 Srouce/Application/rtc/rtc.o
 .text.write_a_byte
                0x00000000       0x2c Srouce/Application/rtc/rtc.o
 .text.read_a_byte
                0x00000000       0x3e Srouce/Application/rtc/rtc.o
 .text.rtc_read_time
                0x00000000      0x120 Srouce/Application/rtc/rtc.o
 .text.getTime  0x00000000       0x1c Srouce/Application/rtc/rtc.o
 .text.rtc_set_time
                0x00000000      0x174 Srouce/Application/rtc/rtc.o
 .bss.date_time
                0x00000000        0x8 Srouce/Application/rtc/rtc.o
 .text          0x00000000        0x0 Srouce/Application/timers/timer.o
 .data          0x00000000        0x0 Srouce/Application/timers/timer.o
 .bss           0x00000000        0x0 Srouce/Application/timers/timer.o
 .text          0x00000000        0x0 Srouce/ASF/avr32/drivers/intc/intc.o
 .data          0x00000000        0x0 Srouce/ASF/avr32/drivers/intc/intc.o
 .bss           0x00000000        0x0 Srouce/ASF/avr32/drivers/intc/intc.o
 .text          0x00000000        0x0 Srouce/ASF/avr32/drivers/pm/pm.o
 .data          0x00000000        0x0 Srouce/ASF/avr32/drivers/pm/pm.o
 .bss           0x00000000        0x0 Srouce/ASF/avr32/drivers/pm/pm.o
 .debug_abbrev  0x00000000      0x2cf Srouce/ASF/avr32/drivers/pm/pm.o
 .debug_info    0x00000000     0x1a55 Srouce/ASF/avr32/drivers/pm/pm.o
 .debug_line    0x00000000      0x4fc Srouce/ASF/avr32/drivers/pm/pm.o
 .text.pm_set_osc0_mode
                0x00000000        0xa Srouce/ASF/avr32/drivers/pm/pm.o
 .text.pm_enable_osc0_ext_clock
                0x00000000       0x10 Srouce/ASF/avr32/drivers/pm/pm.o
 .text.pm_enable_osc0_crystal
                0x00000000       0x3c Srouce/ASF/avr32/drivers/pm/pm.o
 .text.pm_disable_clk0
                0x00000000        0x8 Srouce/ASF/avr32/drivers/pm/pm.o
 .text.pm_enable_clk0_no_wait
                0x00000000       0x10 Srouce/ASF/avr32/drivers/pm/pm.o
 .text.pm_wait_for_clk0_ready
                0x00000000        0xa Srouce/ASF/avr32/drivers/pm/pm.o
 .text.pm_enable_clk0
                0x00000000       0x1c Srouce/ASF/avr32/drivers/pm/pm.o
 .text.pm_set_osc1_mode
                0x00000000        0xa Srouce/ASF/avr32/drivers/pm/pm.o
 .text.pm_enable_osc1_ext_clock
                0x00000000       0x10 Srouce/ASF/avr32/drivers/pm/pm.o
 .text.pm_enable_osc1_crystal
                0x00000000       0x3c Srouce/ASF/avr32/drivers/pm/pm.o
 .text.pm_disable_clk1
                0x00000000        0x8 Srouce/ASF/avr32/drivers/pm/pm.o
 .text.pm_enable_clk1_no_wait
                0x00000000       0x10 Srouce/ASF/avr32/drivers/pm/pm.o
 .text.pm_wait_for_clk1_ready
                0x00000000        0xa Srouce/ASF/avr32/drivers/pm/pm.o
 .text.pm_enable_clk1
                0x00000000       0x1c Srouce/ASF/avr32/drivers/pm/pm.o
 .text.pm_set_osc32_mode
                0x00000000        0xa Srouce/ASF/avr32/drivers/pm/pm.o
 .text.pm_enable_osc32_ext_clock
                0x00000000       0x10 Srouce/ASF/avr32/drivers/pm/pm.o
 .text.pm_enable_osc32_crystal
                0x00000000       0x10 Srouce/ASF/avr32/drivers/pm/pm.o
 .text.pm_disable_clk32
                0x00000000        0x8 Srouce/ASF/avr32/drivers/pm/pm.o
 .text.pm_enable_clk32_no_wait
                0x00000000       0x10 Srouce/ASF/avr32/drivers/pm/pm.o
 .text.pm_wait_for_clk32_ready
                0x00000000        0xa Srouce/ASF/avr32/drivers/pm/pm.o
 .text.pm_enable_clk32
                0x00000000       0x1c Srouce/ASF/avr32/drivers/pm/pm.o
 .text.pm_cksel_get
                0x00000000        0x6 Srouce/ASF/avr32/drivers/pm/pm.o
 .text.pm_cksel_set
                0x00000000        0xc Srouce/ASF/avr32/drivers/pm/pm.o
 .text.pm_cksel
                0x00000000       0x46 Srouce/ASF/avr32/drivers/pm/pm.o
 .text.pm_gc_setup
                0x00000000       0x22 Srouce/ASF/avr32/drivers/pm/pm.o
 .text.pm_gc_enable
                0x00000000        0xe Srouce/ASF/avr32/drivers/pm/pm.o
 .text.pm_gc_disable
                0x00000000        0xe Srouce/ASF/avr32/drivers/pm/pm.o
 .text.pm_pll_setup
                0x00000000       0x22 Srouce/ASF/avr32/drivers/pm/pm.o
 .text.pm_pll_set_option
                0x00000000       0x1a Srouce/ASF/avr32/drivers/pm/pm.o
 .text.pm_pll_get_option
                0x00000000        0xc Srouce/ASF/avr32/drivers/pm/pm.o
 .text.pm_pll_enable
                0x00000000        0xe Srouce/ASF/avr32/drivers/pm/pm.o
 .text.pm_pll_disable
                0x00000000        0xe Srouce/ASF/avr32/drivers/pm/pm.o
 .text.pm_wait_for_pll0_locked
                0x00000000        0xa Srouce/ASF/avr32/drivers/pm/pm.o
 .text.pm_wait_for_pll1_locked
                0x00000000        0xa Srouce/ASF/avr32/drivers/pm/pm.o
 .text.pm_get_clock
                0x00000000        0x8 Srouce/ASF/avr32/drivers/pm/pm.o
 .text.pm_switch_to_clock
                0x00000000        0xa Srouce/ASF/avr32/drivers/pm/pm.o
 .text.pm_switch_to_osc0
                0x00000000       0x2c Srouce/ASF/avr32/drivers/pm/pm.o
 .text.pm_bod_enable_irq
                0x00000000        0xa Srouce/ASF/avr32/drivers/pm/pm.o
 .text.pm_bod_clear_irq
                0x00000000        0xa Srouce/ASF/avr32/drivers/pm/pm.o
 .text.pm_bod_get_irq_status
                0x00000000        0x8 Srouce/ASF/avr32/drivers/pm/pm.o
 .text.pm_bod_get_irq_enable_bit
                0x00000000        0x8 Srouce/ASF/avr32/drivers/pm/pm.o
 .text.pm_bod_get_level
                0x00000000        0xa Srouce/ASF/avr32/drivers/pm/pm.o
 .text.pm_read_gplp
                0x00000000        0x8 Srouce/ASF/avr32/drivers/pm/pm.o
 .text.pm_write_gplp
                0x00000000        0x8 Srouce/ASF/avr32/drivers/pm/pm.o
 .text.pm_enable_module
                0x00000000       0x1a Srouce/ASF/avr32/drivers/pm/pm.o
 .text.pm_disable_module
                0x00000000       0x1c Srouce/ASF/avr32/drivers/pm/pm.o
 .text.pm_bod_disable_irq
                0x00000000       0x26 Srouce/ASF/avr32/drivers/pm/pm.o
 .debug_frame   0x00000000      0x390 Srouce/ASF/avr32/drivers/pm/pm.o
 .debug_loc     0x00000000      0x559 Srouce/ASF/avr32/drivers/pm/pm.o
 .debug_pubnames
                0x00000000      0x3ee Srouce/ASF/avr32/drivers/pm/pm.o
 .debug_aranges
                0x00000000      0x190 Srouce/ASF/avr32/drivers/pm/pm.o
 .debug_ranges  0x00000000      0x188 Srouce/ASF/avr32/drivers/pm/pm.o
 .debug_str     0x00000000      0x9c9 Srouce/ASF/avr32/drivers/pm/pm.o
 .comment       0x00000000       0x31 Srouce/ASF/avr32/drivers/pm/pm.o
 .text          0x00000000        0x0 Srouce/ASF/avr32/drivers/pm/pm_conf_clocks.o
 .data          0x00000000        0x0 Srouce/ASF/avr32/drivers/pm/pm_conf_clocks.o
 .bss           0x00000000        0x0 Srouce/ASF/avr32/drivers/pm/pm_conf_clocks.o
 .debug_abbrev  0x00000000      0x183 Srouce/ASF/avr32/drivers/pm/pm_conf_clocks.o
 .debug_info    0x00000000      0xf4c Srouce/ASF/avr32/drivers/pm/pm_conf_clocks.o
 .debug_line    0x00000000      0x12d Srouce/ASF/avr32/drivers/pm/pm_conf_clocks.o
 .text.pm_configure_usb_clock
                0x00000000       0x70 Srouce/ASF/avr32/drivers/pm/pm_conf_clocks.o
 .text.pm_configure_clocks
                0x00000000      0x1d4 Srouce/ASF/avr32/drivers/pm/pm_conf_clocks.o
 .debug_frame   0x00000000       0x7c Srouce/ASF/avr32/drivers/pm/pm_conf_clocks.o
 .debug_loc     0x00000000      0x232 Srouce/ASF/avr32/drivers/pm/pm_conf_clocks.o
 .debug_pubnames
                0x00000000       0x45 Srouce/ASF/avr32/drivers/pm/pm_conf_clocks.o
 .debug_aranges
                0x00000000       0x28 Srouce/ASF/avr32/drivers/pm/pm_conf_clocks.o
 .debug_ranges  0x00000000       0x20 Srouce/ASF/avr32/drivers/pm/pm_conf_clocks.o
 .debug_str     0x00000000      0x558 Srouce/ASF/avr32/drivers/pm/pm_conf_clocks.o
 .comment       0x00000000       0x31 Srouce/ASF/avr32/drivers/pm/pm_conf_clocks.o
 .text          0x00000000        0x0 Srouce/ASF/avr32/drivers/pm/power_clocks_lib.o
 .data          0x00000000        0x0 Srouce/ASF/avr32/drivers/pm/power_clocks_lib.o
 .bss           0x00000000        0x0 Srouce/ASF/avr32/drivers/pm/power_clocks_lib.o
 .debug_abbrev  0x00000000      0x1cb Srouce/ASF/avr32/drivers/pm/power_clocks_lib.o
 .debug_info    0x00000000      0xf85 Srouce/ASF/avr32/drivers/pm/power_clocks_lib.o
 .debug_line    0x00000000      0x139 Srouce/ASF/avr32/drivers/pm/power_clocks_lib.o
 .text.pcl_read_gplp
                0x00000000       0x14 Srouce/ASF/avr32/drivers/pm/power_clocks_lib.o
 .text.pcl_write_gplp
                0x00000000       0x14 Srouce/ASF/avr32/drivers/pm/power_clocks_lib.o
 .text.pcl_configure_usb_clock
                0x00000000        0xc Srouce/ASF/avr32/drivers/pm/power_clocks_lib.o
 .text.pcl_switch_to_osc
                0x00000000       0x1c Srouce/ASF/avr32/drivers/pm/power_clocks_lib.o
 .text.pcl_configure_clocks
                0x00000000        0xc Srouce/ASF/avr32/drivers/pm/power_clocks_lib.o
 .debug_frame   0x00000000       0x88 Srouce/ASF/avr32/drivers/pm/power_clocks_lib.o
 .debug_loc     0x00000000      0x12b Srouce/ASF/avr32/drivers/pm/power_clocks_lib.o
 .debug_pubnames
                0x00000000       0x82 Srouce/ASF/avr32/drivers/pm/power_clocks_lib.o
 .debug_aranges
                0x00000000       0x40 Srouce/ASF/avr32/drivers/pm/power_clocks_lib.o
 .debug_ranges  0x00000000       0x38 Srouce/ASF/avr32/drivers/pm/power_clocks_lib.o
 .debug_str     0x00000000      0x565 Srouce/ASF/avr32/drivers/pm/power_clocks_lib.o
 .comment       0x00000000       0x31 Srouce/ASF/avr32/drivers/pm/power_clocks_lib.o
 .text          0x00000000        0x0 Srouce/ASF/avr32/drivers/spi/spi.o
 .data          0x00000000        0x0 Srouce/ASF/avr32/drivers/spi/spi.o
 .bss           0x00000000        0x0 Srouce/ASF/avr32/drivers/spi/spi.o
 .debug_abbrev  0x00000000      0x2f8 Srouce/ASF/avr32/drivers/spi/spi.o
 .debug_info    0x00000000     0x1059 Srouce/ASF/avr32/drivers/spi/spi.o
 .debug_line    0x00000000      0x24d Srouce/ASF/avr32/drivers/spi/spi.o
 .text.spi_reset
                0x00000000        0x8 Srouce/ASF/avr32/drivers/spi/spi.o
 .text.spi_initSlave
                0x00000000       0x46 Srouce/ASF/avr32/drivers/spi/spi.o
 .text.spi_initTest
                0x00000000       0x10 Srouce/ASF/avr32/drivers/spi/spi.o
 .text.spi_initMaster
                0x00000000       0x38 Srouce/ASF/avr32/drivers/spi/spi.o
 .text.spi_selectionMode
                0x00000000       0x2c Srouce/ASF/avr32/drivers/spi/spi.o
 .text.spi_selectChip
                0x00000000       0x4c Srouce/ASF/avr32/drivers/spi/spi.o
 .text.spi_unselectChip
                0x00000000       0x26 Srouce/ASF/avr32/drivers/spi/spi.o
 .text.spi_setupChipReg
                0x00000000       0xc2 Srouce/ASF/avr32/drivers/spi/spi.o
 .text.spi_enable
                0x00000000        0x6 Srouce/ASF/avr32/drivers/spi/spi.o
 .text.spi_disable
                0x00000000        0x6 Srouce/ASF/avr32/drivers/spi/spi.o
 .text.spi_is_enabled
                0x00000000        0x8 Srouce/ASF/avr32/drivers/spi/spi.o
 .text.spi_writeRegisterEmptyCheck
                0x00000000        0x8 Srouce/ASF/avr32/drivers/spi/spi.o
 .text.spi_write
                0x00000000       0x1c Srouce/ASF/avr32/drivers/spi/spi.o
 .text.spi_variableSlaveWrite
                0x00000000       0x40 Srouce/ASF/avr32/drivers/spi/spi.o
 .text.spi_writeEndCheck
                0x00000000        0x8 Srouce/ASF/avr32/drivers/spi/spi.o
 .text.spi_readRegisterFullCheck
                0x00000000        0x8 Srouce/ASF/avr32/drivers/spi/spi.o
 .text.spi_read
                0x00000000       0x20 Srouce/ASF/avr32/drivers/spi/spi.o
 .text.spi_getStatus
                0x00000000       0x2c Srouce/ASF/avr32/drivers/spi/spi.o
 .debug_frame   0x00000000      0x14c Srouce/ASF/avr32/drivers/spi/spi.o
 .debug_loc     0x00000000      0x366 Srouce/ASF/avr32/drivers/spi/spi.o
 .debug_pubnames
                0x00000000      0x177 Srouce/ASF/avr32/drivers/spi/spi.o
 .debug_aranges
                0x00000000       0xa8 Srouce/ASF/avr32/drivers/spi/spi.o
 .debug_ranges  0x00000000       0xa0 Srouce/ASF/avr32/drivers/spi/spi.o
 .debug_str     0x00000000      0x523 Srouce/ASF/avr32/drivers/spi/spi.o
 .comment       0x00000000       0x31 Srouce/ASF/avr32/drivers/spi/spi.o
 .text          0x00000000        0x0 Srouce/ASF/avr32/drivers/tc/tc.o
 .data          0x00000000        0x0 Srouce/ASF/avr32/drivers/tc/tc.o
 .bss           0x00000000        0x0 Srouce/ASF/avr32/drivers/tc/tc.o
 .text.tc_get_interrupt_settings
                0x00000000       0x12 Srouce/ASF/avr32/drivers/tc/tc.o
 .text.tc_select_external_clock
                0x00000000       0x2e Srouce/ASF/avr32/drivers/tc/tc.o
 .text.tc_init_capture
                0x00000000       0x58 Srouce/ASF/avr32/drivers/tc/tc.o
 .text.tc_stop  0x00000000       0x12 Srouce/ASF/avr32/drivers/tc/tc.o
 .text.tc_software_trigger
                0x00000000       0x12 Srouce/ASF/avr32/drivers/tc/tc.o
 .text.tc_sync_trigger
                0x00000000        0x8 Srouce/ASF/avr32/drivers/tc/tc.o
 .text.tc_sync_start
                0x00000000       0x12 Srouce/ASF/avr32/drivers/tc/tc.o
 .text.tc_read_tc
                0x00000000       0x16 Srouce/ASF/avr32/drivers/tc/tc.o
 .text.tc_read_ra
                0x00000000       0x16 Srouce/ASF/avr32/drivers/tc/tc.o
 .text.tc_read_rb
                0x00000000       0x16 Srouce/ASF/avr32/drivers/tc/tc.o
 .text.tc_read_rc
                0x00000000       0x16 Srouce/ASF/avr32/drivers/tc/tc.o
 .text.tc_write_ra
                0x00000000       0x34 Srouce/ASF/avr32/drivers/tc/tc.o
 .text.tc_write_rb
                0x00000000       0x34 Srouce/ASF/avr32/drivers/tc/tc.o
 .text          0x00000000        0x0 Srouce/ASF/avr32/drivers/twi/twi.o
 .data          0x00000000        0x0 Srouce/ASF/avr32/drivers/twi/twi.o
 .bss           0x00000000        0x0 Srouce/ASF/avr32/drivers/twi/twi.o
 .text.twi_slave_interrupt_handler
                0x00000000       0xd4 Srouce/ASF/avr32/drivers/twi/twi.o
 .text.twi_mk_addr
                0x00000000       0x22 Srouce/ASF/avr32/drivers/twi/twi.o
 .text.twi_master_write_ex
                0x00000000       0x94 Srouce/ASF/avr32/drivers/twi/twi.o
 .text.twi_is_busy
                0x00000000        0xc Srouce/ASF/avr32/drivers/twi/twi.o
 .text.twi_master_write
                0x00000000       0xb0 Srouce/ASF/avr32/drivers/twi/twi.o
 .text.twi_probe
                0x00000000       0x28 Srouce/ASF/avr32/drivers/twi/twi.o
 .text.twi_master_read
                0x00000000       0xb8 Srouce/ASF/avr32/drivers/twi/twi.o
 .text.twi_disable_interrupt
                0x00000000       0x16 Srouce/ASF/avr32/drivers/twi/twi.o
 .text.twi_slave_init
                0x00000000       0x80 Srouce/ASF/avr32/drivers/twi/twi.o
 .bss.twi_slave_fct
                0x00000000        0xc Srouce/ASF/avr32/drivers/twi/twi.o
 .text          0x00000000        0x0 Srouce/ASF/avr32/drivers/usart/usart.o
 .data          0x00000000        0x0 Srouce/ASF/avr32/drivers/usart/usart.o
 .bss           0x00000000        0x0 Srouce/ASF/avr32/drivers/usart/usart.o
 .text.usart_set_sync_master_baudrate
                0x00000000       0x28 Srouce/ASF/avr32/drivers/usart/usart.o
 .text.usart_spi_selectChip
                0x00000000        0x8 Srouce/ASF/avr32/drivers/usart/usart.o
 .text.usart_spi_unselectChip
                0x00000000       0x1e Srouce/ASF/avr32/drivers/usart/usart.o
 .text.usart_send_address
                0x00000000       0x34 Srouce/ASF/avr32/drivers/usart/usart.o
 .text.usart_get_echo_line
                0x00000000       0x50 Srouce/ASF/avr32/drivers/usart/usart.o
 .text.usart_init_spi_slave
                0x00000000       0x94 Srouce/ASF/avr32/drivers/usart/usart.o
 .text.usart_init_spi_master
                0x00000000       0xb0 Srouce/ASF/avr32/drivers/usart/usart.o
 .text.usart_init_lin_slave
                0x00000000       0x38 Srouce/ASF/avr32/drivers/usart/usart.o
 .text.usart_init_lin_master
                0x00000000       0x38 Srouce/ASF/avr32/drivers/usart/usart.o
 .text.usart_init_iso7816
                0x00000000       0xa4 Srouce/ASF/avr32/drivers/usart/usart.o
 .text.usart_init_sync_slave
                0x00000000       0xc8 Srouce/ASF/avr32/drivers/usart/usart.o
 .text.usart_init_sync_master
                0x00000000       0xdc Srouce/ASF/avr32/drivers/usart/usart.o
 .text.usart_init_rs232_tx_only
                0x00000000       0xd4 Srouce/ASF/avr32/drivers/usart/usart.o
 .text.usart_init_IrDA
                0x00000000       0x34 Srouce/ASF/avr32/drivers/usart/usart.o
 .text.usart_init_rs485
                0x00000000       0x24 Srouce/ASF/avr32/drivers/usart/usart.o
 .text.usart_init_modem
                0x00000000       0x24 Srouce/ASF/avr32/drivers/usart/usart.o
 .text.usart_init_hw_handshaking
                0x00000000       0x24 Srouce/ASF/avr32/drivers/usart/usart.o
 .rodata.str1.4
                0x00000000        0xc Srouce/ASF/avr32/drivers/usart/usart.o
 .text          0x00000000        0x0 Srouce/ASF/thirdparty/ff11a/diskio.o
 .data          0x00000000        0x0 Srouce/ASF/thirdparty/ff11a/diskio.o
 .bss           0x00000000        0x0 Srouce/ASF/thirdparty/ff11a/diskio.o
 .debug_abbrev  0x00000000      0x13d Srouce/ASF/thirdparty/ff11a/diskio.o
 .debug_info    0x00000000      0x36d Srouce/ASF/thirdparty/ff11a/diskio.o
 .debug_line    0x00000000      0x129 Srouce/ASF/thirdparty/ff11a/diskio.o
 .text.disk_status
                0x00000000        0x2 Srouce/ASF/thirdparty/ff11a/diskio.o
 .text.disk_initialize
                0x00000000        0x2 Srouce/ASF/thirdparty/ff11a/diskio.o
 .text.get_fattime
                0x00000000       0x3c Srouce/ASF/thirdparty/ff11a/diskio.o
 .text.disk_ioctl
                0x00000000       0x50 Srouce/ASF/thirdparty/ff11a/diskio.o
 .text.disk_write
                0x00000000       0x1c Srouce/ASF/thirdparty/ff11a/diskio.o
 .text.disk_read
                0x00000000       0x1c Srouce/ASF/thirdparty/ff11a/diskio.o
 .debug_frame   0x00000000       0x94 Srouce/ASF/thirdparty/ff11a/diskio.o
 .debug_loc     0x00000000      0x267 Srouce/ASF/thirdparty/ff11a/diskio.o
 .debug_pubnames
                0x00000000       0x72 Srouce/ASF/thirdparty/ff11a/diskio.o
 .debug_aranges
                0x00000000       0x48 Srouce/ASF/thirdparty/ff11a/diskio.o
 .debug_ranges  0x00000000       0x40 Srouce/ASF/thirdparty/ff11a/diskio.o
 .debug_str     0x00000000      0x2c4 Srouce/ASF/thirdparty/ff11a/diskio.o
 .comment       0x00000000       0x31 Srouce/ASF/thirdparty/ff11a/diskio.o
 .text          0x00000000        0x0 Srouce/ASF/thirdparty/ff11a/ff.o
 .data          0x00000000        0x0 Srouce/ASF/thirdparty/ff11a/ff.o
 .bss           0x00000000        0x0 Srouce/ASF/thirdparty/ff11a/ff.o
 .debug_abbrev  0x00000000      0x2a4 Srouce/ASF/thirdparty/ff11a/ff.o
 .debug_info    0x00000000     0x22df Srouce/ASF/thirdparty/ff11a/ff.o
 .debug_line    0x00000000      0xaeb Srouce/ASF/thirdparty/ff11a/ff.o
 .text.mem_cpy  0x00000000       0x16 Srouce/ASF/thirdparty/ff11a/ff.o
 .text.mem_set  0x00000000        0xc Srouce/ASF/thirdparty/ff11a/ff.o
 .text.chk_chr  0x00000000       0x1a Srouce/ASF/thirdparty/ff11a/ff.o
 .text.clust2sect
                0x00000000       0x18 Srouce/ASF/thirdparty/ff11a/ff.o
 .text.clmt_clust
                0x00000000       0x3e Srouce/ASF/thirdparty/ff11a/ff.o
 .text.ld_clust
                0x00000000       0x28 Srouce/ASF/thirdparty/ff11a/ff.o
 .text.st_clust
                0x00000000       0x1a Srouce/ASF/thirdparty/ff11a/ff.o
 .text.get_fileinfo
                0x00000000       0x86 Srouce/ASF/thirdparty/ff11a/ff.o
 .text.get_achar
                0x00000000       0x5c Srouce/ASF/thirdparty/ff11a/ff.o
 .text.pattern_matching
                0x00000000       0xf4 Srouce/ASF/thirdparty/ff11a/ff.o
 .text.get_ldnumber
                0x00000000       0xbc Srouce/ASF/thirdparty/ff11a/ff.o
 .text.sync_window
                0x00000000       0x64 Srouce/ASF/thirdparty/ff11a/ff.o
 .text.sync_fs  0x00000000       0xd8 Srouce/ASF/thirdparty/ff11a/ff.o
 .text.f_mkfs   0x00000000      0x688 Srouce/ASF/thirdparty/ff11a/ff.o
 .text.validate
                0x00000000       0x34 Srouce/ASF/thirdparty/ff11a/ff.o
 .text.f_closedir
                0x00000000       0x1c Srouce/ASF/thirdparty/ff11a/ff.o
 .text.move_window
                0x00000000       0x40 Srouce/ASF/thirdparty/ff11a/ff.o
 .text.check_fs
                0x00000000       0x9c Srouce/ASF/thirdparty/ff11a/ff.o
 .text.find_volume
                0x00000000      0x3a4 Srouce/ASF/thirdparty/ff11a/ff.o
 .text.f_mount  0x00000000       0x84 Srouce/ASF/thirdparty/ff11a/ff.o
 .text.f_sync   0x00000000       0xc8 Srouce/ASF/thirdparty/ff11a/ff.o
 .text.f_close  0x00000000       0x28 Srouce/ASF/thirdparty/ff11a/ff.o
 .text.put_fat  0x00000000      0x134 Srouce/ASF/thirdparty/ff11a/ff.o
 .text.get_fat  0x00000000       0xe4 Srouce/ASF/thirdparty/ff11a/ff.o
 .text.dir_sdi  0x00000000       0xb4 Srouce/ASF/thirdparty/ff11a/ff.o
 .text.create_chain
                0x00000000       0xd0 Srouce/ASF/thirdparty/ff11a/ff.o
 .text.dir_next
                0x00000000      0x110 Srouce/ASF/thirdparty/ff11a/ff.o
 .text.remove_chain
                0x00000000       0x60 Srouce/ASF/thirdparty/ff11a/ff.o
 .text.f_truncate
                0x00000000       0xd8 Srouce/ASF/thirdparty/ff11a/ff.o
 .text.dir_remove
                0x00000000       0x44 Srouce/ASF/thirdparty/ff11a/ff.o
 .text.dir_read
                0x00000000       0x7c Srouce/ASF/thirdparty/ff11a/ff.o
 .text.f_readdir
                0x00000000       0x70 Srouce/ASF/thirdparty/ff11a/ff.o
 .text.f_findnext
                0x00000000       0x50 Srouce/ASF/thirdparty/ff11a/ff.o
 .text.f_getlabel
                0x00000000       0xe4 Srouce/ASF/thirdparty/ff11a/ff.o
 .text.dir_alloc
                0x00000000       0x68 Srouce/ASF/thirdparty/ff11a/ff.o
 .text.f_setlabel
                0x00000000      0x260 Srouce/ASF/thirdparty/ff11a/ff.o
 .text.dir_register
                0x00000000       0x4c Srouce/ASF/thirdparty/ff11a/ff.o
 .text.follow_path
                0x00000000      0x29c Srouce/ASF/thirdparty/ff11a/ff.o
 .text.f_utime  0x00000000       0x6c Srouce/ASF/thirdparty/ff11a/ff.o
 .text.f_chmod  0x00000000       0x6c Srouce/ASF/thirdparty/ff11a/ff.o
 .text.f_stat   0x00000000       0x5c Srouce/ASF/thirdparty/ff11a/ff.o
 .text.f_opendir
                0x00000000       0x84 Srouce/ASF/thirdparty/ff11a/ff.o
 .text.f_findfirst
                0x00000000       0x28 Srouce/ASF/thirdparty/ff11a/ff.o
 .text.f_mkdir  0x00000000      0x1b8 Srouce/ASF/thirdparty/ff11a/ff.o
 .text.f_unlink
                0x00000000       0xd4 Srouce/ASF/thirdparty/ff11a/ff.o
 .text.f_rename
                0x00000000      0x130 Srouce/ASF/thirdparty/ff11a/ff.o
 .text.f_open   0x00000000      0x1b4 Srouce/ASF/thirdparty/ff11a/ff.o
 .text.f_getfree
                0x00000000       0xec Srouce/ASF/thirdparty/ff11a/ff.o
 .text.f_lseek  0x00000000      0x2b4 Srouce/ASF/thirdparty/ff11a/ff.o
 .text.f_write  0x00000000      0x1e0 Srouce/ASF/thirdparty/ff11a/ff.o
 .text.putc_bfd
                0x00000000       0x4c Srouce/ASF/thirdparty/ff11a/ff.o
 .text.f_printf
                0x00000000      0x2e4 Srouce/ASF/thirdparty/ff11a/ff.o
 .rodata.f_printf
                0x00000000       0x5c Srouce/ASF/thirdparty/ff11a/ff.o
 .text.f_puts   0x00000000       0x58 Srouce/ASF/thirdparty/ff11a/ff.o
 .text.f_putc   0x00000000       0x44 Srouce/ASF/thirdparty/ff11a/ff.o
 .text.f_read   0x00000000      0x1a4 Srouce/ASF/thirdparty/ff11a/ff.o
 .text.f_gets   0x00000000       0x58 Srouce/ASF/thirdparty/ff11a/ff.o
 .rodata.cst.4331
                0x00000000       0x16 Srouce/ASF/thirdparty/ff11a/ff.o
 .rodata.vst.4330
                0x00000000       0x16 Srouce/ASF/thirdparty/ff11a/ff.o
 .bss.Fsid      0x00000000        0x2 Srouce/ASF/thirdparty/ff11a/ff.o
 .rodata.str1.4
                0x00000000       0x58 Srouce/ASF/thirdparty/ff11a/ff.o
 .bss.FatFs     0x00000000        0x4 Srouce/ASF/thirdparty/ff11a/ff.o
 .debug_frame   0x00000000      0x7b8 Srouce/ASF/thirdparty/ff11a/ff.o
 .debug_loc     0x00000000     0x3dbc Srouce/ASF/thirdparty/ff11a/ff.o
 .debug_pubnames
                0x00000000      0x191 Srouce/ASF/thirdparty/ff11a/ff.o
 .debug_aranges
                0x00000000      0x1d8 Srouce/ASF/thirdparty/ff11a/ff.o
 .debug_ranges  0x00000000      0x200 Srouce/ASF/thirdparty/ff11a/ff.o
 .debug_str     0x00000000      0x6ef Srouce/ASF/thirdparty/ff11a/ff.o
 .comment       0x00000000       0x31 Srouce/ASF/thirdparty/ff11a/ff.o
 .text          0x00000000        0x0 Srouce/ASF/thirdparty/freertos/freertos-7.0.0/source/croutine.o
 .data          0x00000000        0x0 Srouce/ASF/thirdparty/freertos/freertos-7.0.0/source/croutine.o
 .bss           0x00000000        0x0 Srouce/ASF/thirdparty/freertos/freertos-7.0.0/source/croutine.o
 .debug_abbrev  0x00000000      0x1ef Srouce/ASF/thirdparty/freertos/freertos-7.0.0/source/croutine.o
 .debug_info    0x00000000      0x526 Srouce/ASF/thirdparty/freertos/freertos-7.0.0/source/croutine.o
 .debug_line    0x00000000      0x1cc Srouce/ASF/thirdparty/freertos/freertos-7.0.0/source/croutine.o
 .text.xCoRoutineRemoveFromEventList
                0x00000000       0x3c Srouce/ASF/thirdparty/freertos/freertos-7.0.0/source/croutine.o
 .text.vCoRoutineSchedule
                0x00000000      0x180 Srouce/ASF/thirdparty/freertos/freertos-7.0.0/source/croutine.o
 .text.vCoRoutineAddToDelayedList
                0x00000000       0x68 Srouce/ASF/thirdparty/freertos/freertos-7.0.0/source/croutine.o
 .text.xCoRoutineCreate
                0x00000000       0xc4 Srouce/ASF/thirdparty/freertos/freertos-7.0.0/source/croutine.o
 .bss.xDelayedCoRoutineList1
                0x00000000       0x14 Srouce/ASF/thirdparty/freertos/freertos-7.0.0/source/croutine.o
 .bss.xPassedTicks
                0x00000000        0x4 Srouce/ASF/thirdparty/freertos/freertos-7.0.0/source/croutine.o
 .bss.xPendingReadyCoRoutineList
                0x00000000       0x14 Srouce/ASF/thirdparty/freertos/freertos-7.0.0/source/croutine.o
 .bss.pxCurrentCoRoutine
                0x00000000        0x4 Srouce/ASF/thirdparty/freertos/freertos-7.0.0/source/croutine.o
 .bss.xDelayedCoRoutineList2
                0x00000000       0x14 Srouce/ASF/thirdparty/freertos/freertos-7.0.0/source/croutine.o
 .bss.xCoRoutineTickCount
                0x00000000        0x4 Srouce/ASF/thirdparty/freertos/freertos-7.0.0/source/croutine.o
 .bss.xLastTickCount
                0x00000000        0x4 Srouce/ASF/thirdparty/freertos/freertos-7.0.0/source/croutine.o
 .bss.pxDelayedCoRoutineList
                0x00000000        0x4 Srouce/ASF/thirdparty/freertos/freertos-7.0.0/source/croutine.o
 .bss.pxReadyCoRoutineLists
                0x00000000       0x14 Srouce/ASF/thirdparty/freertos/freertos-7.0.0/source/croutine.o
 .bss.uxTopCoRoutineReadyPriority
                0x00000000        0x4 Srouce/ASF/thirdparty/freertos/freertos-7.0.0/source/croutine.o
 .bss.pxOverflowDelayedCoRoutineList
                0x00000000        0x4 Srouce/ASF/thirdparty/freertos/freertos-7.0.0/source/croutine.o
 .debug_frame   0x00000000       0xa4 Srouce/ASF/thirdparty/freertos/freertos-7.0.0/source/croutine.o
 .debug_loc     0x00000000      0x1a5 Srouce/ASF/thirdparty/freertos/freertos-7.0.0/source/croutine.o
 .debug_pubnames
                0x00000000       0x96 Srouce/ASF/thirdparty/freertos/freertos-7.0.0/source/croutine.o
 .debug_aranges
                0x00000000       0x38 Srouce/ASF/thirdparty/freertos/freertos-7.0.0/source/croutine.o
 .debug_ranges  0x00000000       0x48 Srouce/ASF/thirdparty/freertos/freertos-7.0.0/source/croutine.o
 .debug_str     0x00000000      0x495 Srouce/ASF/thirdparty/freertos/freertos-7.0.0/source/croutine.o
 .comment       0x00000000       0x31 Srouce/ASF/thirdparty/freertos/freertos-7.0.0/source/croutine.o
 .text          0x00000000        0x0 Srouce/ASF/thirdparty/freertos/freertos-7.0.0/source/list.o
 .data          0x00000000        0x0 Srouce/ASF/thirdparty/freertos/freertos-7.0.0/source/list.o
 .bss           0x00000000        0x0 Srouce/ASF/thirdparty/freertos/freertos-7.0.0/source/list.o
 .text          0x00000000        0x0 Srouce/ASF/thirdparty/freertos/freertos-7.0.0/source/portable/gcc/avr32_uc3/exception.o
 .data          0x00000000        0x0 Srouce/ASF/thirdparty/freertos/freertos-7.0.0/source/portable/gcc/avr32_uc3/exception.o
 .bss           0x00000000        0x0 Srouce/ASF/thirdparty/freertos/freertos-7.0.0/source/portable/gcc/avr32_uc3/exception.o
 .text          0x00000000        0x0 Srouce/ASF/thirdparty/freertos/freertos-7.0.0/source/portable/gcc/avr32_uc3/port.o
 .data          0x00000000        0x0 Srouce/ASF/thirdparty/freertos/freertos-7.0.0/source/portable/gcc/avr32_uc3/port.o
 .bss           0x00000000        0x0 Srouce/ASF/thirdparty/freertos/freertos-7.0.0/source/portable/gcc/avr32_uc3/port.o
 .text.vPortEndScheduler
                0x00000000        0x2 Srouce/ASF/thirdparty/freertos/freertos-7.0.0/source/portable/gcc/avr32_uc3/port.o
 .text.pvPortRealloc
                0x00000000       0x2c Srouce/ASF/thirdparty/freertos/freertos-7.0.0/source/portable/gcc/avr32_uc3/port.o
 .text._init_startup
                0x00000000       0x18 Srouce/ASF/thirdparty/freertos/freertos-7.0.0/source/portable/gcc/avr32_uc3/port.o
 .text          0x00000000        0x0 Srouce/ASF/thirdparty/freertos/freertos-7.0.0/source/portable/gcc/avr32_uc3/read.o
 .data          0x00000000        0x0 Srouce/ASF/thirdparty/freertos/freertos-7.0.0/source/portable/gcc/avr32_uc3/read.o
 .bss           0x00000000        0x0 Srouce/ASF/thirdparty/freertos/freertos-7.0.0/source/portable/gcc/avr32_uc3/read.o
 .text          0x00000000        0x0 Srouce/ASF/thirdparty/freertos/freertos-7.0.0/source/portable/gcc/avr32_uc3/write.o
 .data          0x00000000        0x0 Srouce/ASF/thirdparty/freertos/freertos-7.0.0/source/portable/gcc/avr32_uc3/write.o
 .bss           0x00000000        0x0 Srouce/ASF/thirdparty/freertos/freertos-7.0.0/source/portable/gcc/avr32_uc3/write.o
 .text          0x00000000        0x0 Srouce/ASF/thirdparty/freertos/freertos-7.0.0/source/portable/memmang/heap_3.o
 .data          0x00000000        0x0 Srouce/ASF/thirdparty/freertos/freertos-7.0.0/source/portable/memmang/heap_3.o
 .bss           0x00000000        0x0 Srouce/ASF/thirdparty/freertos/freertos-7.0.0/source/portable/memmang/heap_3.o
 .text          0x00000000        0x0 Srouce/ASF/thirdparty/freertos/freertos-7.0.0/source/queue.o
 .data          0x00000000        0x0 Srouce/ASF/thirdparty/freertos/freertos-7.0.0/source/queue.o
 .bss           0x00000000        0x0 Srouce/ASF/thirdparty/freertos/freertos-7.0.0/source/queue.o
 .text.uxQueueMessagesWaitingFromISR
                0x00000000        0x4 Srouce/ASF/thirdparty/freertos/freertos-7.0.0/source/queue.o
 .text.xQueueIsQueueEmptyFromISR
                0x00000000        0x8 Srouce/ASF/thirdparty/freertos/freertos-7.0.0/source/queue.o
 .text.xQueueIsQueueFullFromISR
                0x00000000        0xa Srouce/ASF/thirdparty/freertos/freertos-7.0.0/source/queue.o
 .text.vQueueDelete
                0x00000000       0x1c Srouce/ASF/thirdparty/freertos/freertos-7.0.0/source/queue.o
 .text.uxQueueMessagesWaiting
                0x00000000       0x20 Srouce/ASF/thirdparty/freertos/freertos-7.0.0/source/queue.o
 .text          0x00000000        0x0 Srouce/ASF/thirdparty/freertos/freertos-7.0.0/source/tasks.o
 .data          0x00000000        0x0 Srouce/ASF/thirdparty/freertos/freertos-7.0.0/source/tasks.o
 .bss           0x00000000        0x0 Srouce/ASF/thirdparty/freertos/freertos-7.0.0/source/tasks.o
 .text.xTaskIsTaskSuspended
                0x00000000       0x20 Srouce/ASF/thirdparty/freertos/freertos-7.0.0/source/tasks.o
 .text.xTaskGetTickCountFromISR
                0x00000000        0xc Srouce/ASF/thirdparty/freertos/freertos-7.0.0/source/tasks.o
 .text.uxTaskGetNumberOfTasks
                0x00000000        0xc Srouce/ASF/thirdparty/freertos/freertos-7.0.0/source/tasks.o
 .text.xTaskGetSchedulerState
                0x00000000       0x24 Srouce/ASF/thirdparty/freertos/freertos-7.0.0/source/tasks.o
 .text.xTaskResumeFromISR
                0x00000000       0x80 Srouce/ASF/thirdparty/freertos/freertos-7.0.0/source/tasks.o
 .text.vTaskResume
                0x00000000       0x80 Srouce/ASF/thirdparty/freertos/freertos-7.0.0/source/tasks.o
 .text.vTaskSuspend
                0x00000000       0x98 Srouce/ASF/thirdparty/freertos/freertos-7.0.0/source/tasks.o
 .text.vTaskPrioritySet
                0x00000000       0xb4 Srouce/ASF/thirdparty/freertos/freertos-7.0.0/source/tasks.o
 .text.uxTaskPriorityGet
                0x00000000       0x2c Srouce/ASF/thirdparty/freertos/freertos-7.0.0/source/tasks.o
 .text.vTaskDelete
                0x00000000       0x8c Srouce/ASF/thirdparty/freertos/freertos-7.0.0/source/tasks.o
 .text.vTaskDelay
                0x00000000       0x48 Srouce/ASF/thirdparty/freertos/freertos-7.0.0/source/tasks.o
 .text.vTaskEndScheduler
                0x00000000       0x18 Srouce/ASF/thirdparty/freertos/freertos-7.0.0/source/tasks.o
 .text          0x00000000        0x0 Srouce/Log/log.o
 .data          0x00000000        0x0 Srouce/Log/log.o
 .bss           0x00000000        0x0 Srouce/Log/log.o
 .text          0x00000000        0x0 Srouce/main.o
 .data          0x00000000        0x0 Srouce/main.o
 .bss           0x00000000        0x0 Srouce/main.o
 .text          0x00000000        0x0 Srouce/ASF/avr32/drivers/gpio/gpio.o
 .data          0x00000000        0x0 Srouce/ASF/avr32/drivers/gpio/gpio.o
 .bss           0x00000000        0x0 Srouce/ASF/avr32/drivers/gpio/gpio.o
 .text.gpio_enable_gpio_pin
                0x00000000       0x18 Srouce/ASF/avr32/drivers/gpio/gpio.o
 .text.gpio_enable_gpio
                0x00000000       0x28 Srouce/ASF/avr32/drivers/gpio/gpio.o
 .text.gpio_enable_pin_pull_up
                0x00000000       0x16 Srouce/ASF/avr32/drivers/gpio/gpio.o
 .text.gpio_disable_pin_pull_up
                0x00000000       0x16 Srouce/ASF/avr32/drivers/gpio/gpio.o
 .text.gpio_configure_pin
                0x00000000       0xb8 Srouce/ASF/avr32/drivers/gpio/gpio.o
 .text.gpio_configure_group
                0x00000000       0x6e Srouce/ASF/avr32/drivers/gpio/gpio.o
 .text.gpio_get_pin_value
                0x00000000       0x16 Srouce/ASF/avr32/drivers/gpio/gpio.o
 .text.gpio_get_gpio_pin_output_value
                0x00000000       0x16 Srouce/ASF/avr32/drivers/gpio/gpio.o
 .text.gpio_get_gpio_open_drain_pin_output_value
                0x00000000       0x1a Srouce/ASF/avr32/drivers/gpio/gpio.o
 .text.gpio_set_gpio_pin
                0x00000000       0x1c Srouce/ASF/avr32/drivers/gpio/gpio.o
 .text.gpio_set_pin_high
                0x00000000       0x16 Srouce/ASF/avr32/drivers/gpio/gpio.o
 .text.gpio_set_group_high
                0x00000000        0xc Srouce/ASF/avr32/drivers/gpio/gpio.o
 .text.gpio_set_pin_low
                0x00000000       0x16 Srouce/ASF/avr32/drivers/gpio/gpio.o
 .text.gpio_clr_gpio_pin
                0x00000000       0x1c Srouce/ASF/avr32/drivers/gpio/gpio.o
 .text.gpio_set_group_low
                0x00000000        0xc Srouce/ASF/avr32/drivers/gpio/gpio.o
 .text.gpio_tgl_gpio_pin
                0x00000000       0x1c Srouce/ASF/avr32/drivers/gpio/gpio.o
 .text.gpio_toggle_pin
                0x00000000       0x16 Srouce/ASF/avr32/drivers/gpio/gpio.o
 .text.gpio_toggle_group
                0x00000000        0xc Srouce/ASF/avr32/drivers/gpio/gpio.o
 .text.gpio_set_gpio_open_drain_pin
                0x00000000       0x18 Srouce/ASF/avr32/drivers/gpio/gpio.o
 .text.gpio_clr_gpio_open_drain_pin
                0x00000000       0x1c Srouce/ASF/avr32/drivers/gpio/gpio.o
 .text.gpio_tgl_gpio_open_drain_pin
                0x00000000       0x1c Srouce/ASF/avr32/drivers/gpio/gpio.o
 .text.gpio_enable_pin_glitch_filter
                0x00000000       0x16 Srouce/ASF/avr32/drivers/gpio/gpio.o
 .text.gpio_disable_pin_glitch_filter
                0x00000000       0x16 Srouce/ASF/avr32/drivers/gpio/gpio.o
 .text.gpio_enable_pin_interrupt
                0x00000000       0x46 Srouce/ASF/avr32/drivers/gpio/gpio.o
 .text.gpio_disable_pin_interrupt
                0x00000000       0x16 Srouce/ASF/avr32/drivers/gpio/gpio.o
 .text.gpio_get_pin_interrupt_flag
                0x00000000       0x18 Srouce/ASF/avr32/drivers/gpio/gpio.o
 .text.gpio_clear_pin_interrupt_flag
                0x00000000       0x16 Srouce/ASF/avr32/drivers/gpio/gpio.o
 .text          0x00000000        0x0 Srouce/ASF/avr32/utils/startup/startup_uc3.o
 .data          0x00000000        0x0 Srouce/ASF/avr32/utils/startup/startup_uc3.o
 .bss           0x00000000        0x0 Srouce/ASF/avr32/utils/startup/startup_uc3.o
 .text          0x00000000        0x0 Srouce/ASF/avr32/utils/startup/trampoline_uc3.o
 .data          0x00000000        0x0 Srouce/ASF/avr32/utils/startup/trampoline_uc3.o
 .bss           0x00000000        0x0 Srouce/ASF/avr32/utils/startup/trampoline_uc3.o
 .text          0x00000000        0x0 Srouce/ASF/common/boards/user_board/init.o
 .data          0x00000000        0x0 Srouce/ASF/common/boards/user_board/init.o
 .bss           0x00000000        0x0 Srouce/ASF/common/boards/user_board/init.o
 .debug_abbrev  0x00000000       0x4a Srouce/ASF/common/boards/user_board/init.o
 .debug_info    0x00000000       0xa2 Srouce/ASF/common/boards/user_board/init.o
 .debug_line    0x00000000       0x5e Srouce/ASF/common/boards/user_board/init.o
 .text.board_init
                0x00000000        0x2 Srouce/ASF/common/boards/user_board/init.o
 .debug_frame   0x00000000       0x20 Srouce/ASF/common/boards/user_board/init.o
 .debug_pubnames
                0x00000000       0x21 Srouce/ASF/common/boards/user_board/init.o
 .debug_aranges
                0x00000000       0x20 Srouce/ASF/common/boards/user_board/init.o
 .debug_ranges  0x00000000       0x18 Srouce/ASF/common/boards/user_board/init.o
 .debug_str     0x00000000      0x14d Srouce/ASF/common/boards/user_board/init.o
 .comment       0x00000000       0x31 Srouce/ASF/common/boards/user_board/init.o
 .text          0x00000000        0x0 d:/program files (x86)/atmel/studio/7.0/toolchain/avr32/avr32-gnu-toolchain/bin/../lib/gcc/avr32/4.4.7/../../../../avr32/lib/ucr2\libc.a(lib_a-malloc.o)
 .data          0x00000000        0x0 d:/program files (x86)/atmel/studio/7.0/toolchain/avr32/avr32-gnu-toolchain/bin/../lib/gcc/avr32/4.4.7/../../../../avr32/lib/ucr2\libc.a(lib_a-malloc.o)
 .bss           0x00000000        0x0 d:/program files (x86)/atmel/studio/7.0/toolchain/avr32/avr32-gnu-toolchain/bin/../lib/gcc/avr32/4.4.7/../../../../avr32/lib/ucr2\libc.a(lib_a-malloc.o)
 .text          0x00000000        0x0 d:/program files (x86)/atmel/studio/7.0/toolchain/avr32/avr32-gnu-toolchain/bin/../lib/gcc/avr32/4.4.7/../../../../avr32/lib/ucr2\libc.a(lib_a-mallocr.o)
 .data          0x00000000        0x0 d:/program files (x86)/atmel/studio/7.0/toolchain/avr32/avr32-gnu-toolchain/bin/../lib/gcc/avr32/4.4.7/../../../../avr32/lib/ucr2\libc.a(lib_a-mallocr.o)
 .bss           0x00000000        0x0 d:/program files (x86)/atmel/studio/7.0/toolchain/avr32/avr32-gnu-toolchain/bin/../lib/gcc/avr32/4.4.7/../../../../avr32/lib/ucr2\libc.a(lib_a-mallocr.o)
 .text          0x00000000        0x0 d:/program files (x86)/atmel/studio/7.0/toolchain/avr32/avr32-gnu-toolchain/bin/../lib/gcc/avr32/4.4.7/../../../../avr32/lib/ucr2\libc.a(lib_a-memcmp.o)
 .data          0x00000000        0x0 d:/program files (x86)/atmel/studio/7.0/toolchain/avr32/avr32-gnu-toolchain/bin/../lib/gcc/avr32/4.4.7/../../../../avr32/lib/ucr2\libc.a(lib_a-memcmp.o)
 .bss           0x00000000        0x0 d:/program files (x86)/atmel/studio/7.0/toolchain/avr32/avr32-gnu-toolchain/bin/../lib/gcc/avr32/4.4.7/../../../../avr32/lib/ucr2\libc.a(lib_a-memcmp.o)
 .debug_abbrev  0x00000000       0x92 d:/program files (x86)/atmel/studio/7.0/toolchain/avr32/avr32-gnu-toolchain/bin/../lib/gcc/avr32/4.4.7/../../../../avr32/lib/ucr2\libc.a(lib_a-memcmp.o)
 .debug_info    0x00000000       0xe5 d:/program files (x86)/atmel/studio/7.0/toolchain/avr32/avr32-gnu-toolchain/bin/../lib/gcc/avr32/4.4.7/../../../../avr32/lib/ucr2\libc.a(lib_a-memcmp.o)
 .debug_line    0x00000000      0x1c4 d:/program files (x86)/atmel/studio/7.0/toolchain/avr32/avr32-gnu-toolchain/bin/../lib/gcc/avr32/4.4.7/../../../../avr32/lib/ucr2\libc.a(lib_a-memcmp.o)
 .text.memcmp   0x00000000       0x26 d:/program files (x86)/atmel/studio/7.0/toolchain/avr32/avr32-gnu-toolchain/bin/../lib/gcc/avr32/4.4.7/../../../../avr32/lib/ucr2\libc.a(lib_a-memcmp.o)
 .debug_frame   0x00000000       0x28 d:/program files (x86)/atmel/studio/7.0/toolchain/avr32/avr32-gnu-toolchain/bin/../lib/gcc/avr32/4.4.7/../../../../avr32/lib/ucr2\libc.a(lib_a-memcmp.o)
 .debug_loc     0x00000000       0x3d d:/program files (x86)/atmel/studio/7.0/toolchain/avr32/avr32-gnu-toolchain/bin/../lib/gcc/avr32/4.4.7/../../../../avr32/lib/ucr2\libc.a(lib_a-memcmp.o)
 .debug_pubnames
                0x00000000       0x1d d:/program files (x86)/atmel/studio/7.0/toolchain/avr32/avr32-gnu-toolchain/bin/../lib/gcc/avr32/4.4.7/../../../../avr32/lib/ucr2\libc.a(lib_a-memcmp.o)
 .debug_aranges
                0x00000000       0x20 d:/program files (x86)/atmel/studio/7.0/toolchain/avr32/avr32-gnu-toolchain/bin/../lib/gcc/avr32/4.4.7/../../../../avr32/lib/ucr2\libc.a(lib_a-memcmp.o)
 .debug_ranges  0x00000000       0x18 d:/program files (x86)/atmel/studio/7.0/toolchain/avr32/avr32-gnu-toolchain/bin/../lib/gcc/avr32/4.4.7/../../../../avr32/lib/ucr2\libc.a(lib_a-memcmp.o)
 .debug_str     0x00000000      0x111 d:/program files (x86)/atmel/studio/7.0/toolchain/avr32/avr32-gnu-toolchain/bin/../lib/gcc/avr32/4.4.7/../../../../avr32/lib/ucr2\libc.a(lib_a-memcmp.o)
 .comment       0x00000000       0x31 d:/program files (x86)/atmel/studio/7.0/toolchain/avr32/avr32-gnu-toolchain/bin/../lib/gcc/avr32/4.4.7/../../../../avr32/lib/ucr2\libc.a(lib_a-memcmp.o)
 .data          0x00000000        0x0 d:/program files (x86)/atmel/studio/7.0/toolchain/avr32/avr32-gnu-toolchain/bin/../lib/gcc/avr32/4.4.7/../../../../avr32/lib/ucr2\libc.a(lib_a-memcpy.o)
 .bss           0x00000000        0x0 d:/program files (x86)/atmel/studio/7.0/toolchain/avr32/avr32-gnu-toolchain/bin/../lib/gcc/avr32/4.4.7/../../../../avr32/lib/ucr2\libc.a(lib_a-memcpy.o)
 .text          0x00000000        0x0 d:/program files (x86)/atmel/studio/7.0/toolchain/avr32/avr32-gnu-toolchain/bin/../lib/gcc/avr32/4.4.7/../../../../avr32/lib/ucr2\libc.a(lib_a-memset.o)
 .data          0x00000000        0x0 d:/program files (x86)/atmel/studio/7.0/toolchain/avr32/avr32-gnu-toolchain/bin/../lib/gcc/avr32/4.4.7/../../../../avr32/lib/ucr2\libc.a(lib_a-memset.o)
 .bss           0x00000000        0x0 d:/program files (x86)/atmel/studio/7.0/toolchain/avr32/avr32-gnu-toolchain/bin/../lib/gcc/avr32/4.4.7/../../../../avr32/lib/ucr2\libc.a(lib_a-memset.o)
 .text          0x00000000        0x0 d:/program files (x86)/atmel/studio/7.0/toolchain/avr32/avr32-gnu-toolchain/bin/../lib/gcc/avr32/4.4.7/../../../../avr32/lib/ucr2\libc.a(lib_a-realloc.o)
 .data          0x00000000        0x0 d:/program files (x86)/atmel/studio/7.0/toolchain/avr32/avr32-gnu-toolchain/bin/../lib/gcc/avr32/4.4.7/../../../../avr32/lib/ucr2\libc.a(lib_a-realloc.o)
 .bss           0x00000000        0x0 d:/program files (x86)/atmel/studio/7.0/toolchain/avr32/avr32-gnu-toolchain/bin/../lib/gcc/avr32/4.4.7/../../../../avr32/lib/ucr2\libc.a(lib_a-realloc.o)
 .debug_abbrev  0x00000000      0x170 d:/program files (x86)/atmel/studio/7.0/toolchain/avr32/avr32-gnu-toolchain/bin/../lib/gcc/avr32/4.4.7/../../../../avr32/lib/ucr2\libc.a(lib_a-realloc.o)
 .debug_info    0x00000000      0x8cf d:/program files (x86)/atmel/studio/7.0/toolchain/avr32/avr32-gnu-toolchain/bin/../lib/gcc/avr32/4.4.7/../../../../avr32/lib/ucr2\libc.a(lib_a-realloc.o)
 .debug_line    0x00000000      0x238 d:/program files (x86)/atmel/studio/7.0/toolchain/avr32/avr32-gnu-toolchain/bin/../lib/gcc/avr32/4.4.7/../../../../avr32/lib/ucr2\libc.a(lib_a-realloc.o)
 .text.realloc  0x00000000       0x18 d:/program files (x86)/atmel/studio/7.0/toolchain/avr32/avr32-gnu-toolchain/bin/../lib/gcc/avr32/4.4.7/../../../../avr32/lib/ucr2\libc.a(lib_a-realloc.o)
 .debug_frame   0x00000000       0x28 d:/program files (x86)/atmel/studio/7.0/toolchain/avr32/avr32-gnu-toolchain/bin/../lib/gcc/avr32/4.4.7/../../../../avr32/lib/ucr2\libc.a(lib_a-realloc.o)
 .debug_loc     0x00000000       0x45 d:/program files (x86)/atmel/studio/7.0/toolchain/avr32/avr32-gnu-toolchain/bin/../lib/gcc/avr32/4.4.7/../../../../avr32/lib/ucr2\libc.a(lib_a-realloc.o)
 .debug_pubnames
                0x00000000       0x1e d:/program files (x86)/atmel/studio/7.0/toolchain/avr32/avr32-gnu-toolchain/bin/../lib/gcc/avr32/4.4.7/../../../../avr32/lib/ucr2\libc.a(lib_a-realloc.o)
 .debug_aranges
                0x00000000       0x20 d:/program files (x86)/atmel/studio/7.0/toolchain/avr32/avr32-gnu-toolchain/bin/../lib/gcc/avr32/4.4.7/../../../../avr32/lib/ucr2\libc.a(lib_a-realloc.o)
 .debug_ranges  0x00000000       0x18 d:/program files (x86)/atmel/studio/7.0/toolchain/avr32/avr32-gnu-toolchain/bin/../lib/gcc/avr32/4.4.7/../../../../avr32/lib/ucr2\libc.a(lib_a-realloc.o)
 .debug_str     0x00000000      0x4bc d:/program files (x86)/atmel/studio/7.0/toolchain/avr32/avr32-gnu-toolchain/bin/../lib/gcc/avr32/4.4.7/../../../../avr32/lib/ucr2\libc.a(lib_a-realloc.o)
 .comment       0x00000000       0x31 d:/program files (x86)/atmel/studio/7.0/toolchain/avr32/avr32-gnu-toolchain/bin/../lib/gcc/avr32/4.4.7/../../../../avr32/lib/ucr2\libc.a(lib_a-realloc.o)
 .text          0x00000000        0x0 d:/program files (x86)/atmel/studio/7.0/toolchain/avr32/avr32-gnu-toolchain/bin/../lib/gcc/avr32/4.4.7/../../../../avr32/lib/ucr2\libc.a(lib_a-reallocr.o)
 .data          0x00000000        0x0 d:/program files (x86)/atmel/studio/7.0/toolchain/avr32/avr32-gnu-toolchain/bin/../lib/gcc/avr32/4.4.7/../../../../avr32/lib/ucr2\libc.a(lib_a-reallocr.o)
 .bss           0x00000000        0x0 d:/program files (x86)/atmel/studio/7.0/toolchain/avr32/avr32-gnu-toolchain/bin/../lib/gcc/avr32/4.4.7/../../../../avr32/lib/ucr2\libc.a(lib_a-reallocr.o)
 .text          0x00000000        0x0 d:/program files (x86)/atmel/studio/7.0/toolchain/avr32/avr32-gnu-toolchain/bin/../lib/gcc/avr32/4.4.7/../../../../avr32/lib/ucr2\libc.a(lib_a-sbrkr.o)
 .data          0x00000000        0x0 d:/program files (x86)/atmel/studio/7.0/toolchain/avr32/avr32-gnu-toolchain/bin/../lib/gcc/avr32/4.4.7/../../../../avr32/lib/ucr2\libc.a(lib_a-sbrkr.o)
 .bss           0x00000000        0x0 d:/program files (x86)/atmel/studio/7.0/toolchain/avr32/avr32-gnu-toolchain/bin/../lib/gcc/avr32/4.4.7/../../../../avr32/lib/ucr2\libc.a(lib_a-sbrkr.o)
 .text          0x00000000        0x0 d:/program files (x86)/atmel/studio/7.0/toolchain/avr32/avr32-gnu-toolchain/bin/../lib/gcc/avr32/4.4.7/../../../../avr32/lib/ucr2\libc.a(lib_a-sprintf.o)
 .data          0x00000000        0x0 d:/program files (x86)/atmel/studio/7.0/toolchain/avr32/avr32-gnu-toolchain/bin/../lib/gcc/avr32/4.4.7/../../../../avr32/lib/ucr2\libc.a(lib_a-sprintf.o)
 .bss           0x00000000        0x0 d:/program files (x86)/atmel/studio/7.0/toolchain/avr32/avr32-gnu-toolchain/bin/../lib/gcc/avr32/4.4.7/../../../../avr32/lib/ucr2\libc.a(lib_a-sprintf.o)
 .text._sprintf_r
                0x00000000       0x38 d:/program files (x86)/atmel/studio/7.0/toolchain/avr32/avr32-gnu-toolchain/bin/../lib/gcc/avr32/4.4.7/../../../../avr32/lib/ucr2\libc.a(lib_a-sprintf.o)
 .text          0x00000000        0x0 d:/program files (x86)/atmel/studio/7.0/toolchain/avr32/avr32-gnu-toolchain/bin/../lib/gcc/avr32/4.4.7/../../../../avr32/lib/ucr2\libc.a(lib_a-strcpy.o)
 .data          0x00000000        0x0 d:/program files (x86)/atmel/studio/7.0/toolchain/avr32/avr32-gnu-toolchain/bin/../lib/gcc/avr32/4.4.7/../../../../avr32/lib/ucr2\libc.a(lib_a-strcpy.o)
 .bss           0x00000000        0x0 d:/program files (x86)/atmel/studio/7.0/toolchain/avr32/avr32-gnu-toolchain/bin/../lib/gcc/avr32/4.4.7/../../../../avr32/lib/ucr2\libc.a(lib_a-strcpy.o)
 .debug_abbrev  0x00000000       0x76 d:/program files (x86)/atmel/studio/7.0/toolchain/avr32/avr32-gnu-toolchain/bin/../lib/gcc/avr32/4.4.7/../../../../avr32/lib/ucr2\libc.a(lib_a-strcpy.o)
 .debug_info    0x00000000       0xc2 d:/program files (x86)/atmel/studio/7.0/toolchain/avr32/avr32-gnu-toolchain/bin/../lib/gcc/avr32/4.4.7/../../../../avr32/lib/ucr2\libc.a(lib_a-strcpy.o)
 .debug_line    0x00000000      0x122 d:/program files (x86)/atmel/studio/7.0/toolchain/avr32/avr32-gnu-toolchain/bin/../lib/gcc/avr32/4.4.7/../../../../avr32/lib/ucr2\libc.a(lib_a-strcpy.o)
 .text.strcpy   0x00000000       0x12 d:/program files (x86)/atmel/studio/7.0/toolchain/avr32/avr32-gnu-toolchain/bin/../lib/gcc/avr32/4.4.7/../../../../avr32/lib/ucr2\libc.a(lib_a-strcpy.o)
 .debug_frame   0x00000000       0x20 d:/program files (x86)/atmel/studio/7.0/toolchain/avr32/avr32-gnu-toolchain/bin/../lib/gcc/avr32/4.4.7/../../../../avr32/lib/ucr2\libc.a(lib_a-strcpy.o)
 .debug_pubnames
                0x00000000       0x1d d:/program files (x86)/atmel/studio/7.0/toolchain/avr32/avr32-gnu-toolchain/bin/../lib/gcc/avr32/4.4.7/../../../../avr32/lib/ucr2\libc.a(lib_a-strcpy.o)
 .debug_aranges
                0x00000000       0x20 d:/program files (x86)/atmel/studio/7.0/toolchain/avr32/avr32-gnu-toolchain/bin/../lib/gcc/avr32/4.4.7/../../../../avr32/lib/ucr2\libc.a(lib_a-strcpy.o)
 .debug_ranges  0x00000000       0x18 d:/program files (x86)/atmel/studio/7.0/toolchain/avr32/avr32-gnu-toolchain/bin/../lib/gcc/avr32/4.4.7/../../../../avr32/lib/ucr2\libc.a(lib_a-strcpy.o)
 .debug_str     0x00000000      0x114 d:/program files (x86)/atmel/studio/7.0/toolchain/avr32/avr32-gnu-toolchain/bin/../lib/gcc/avr32/4.4.7/../../../../avr32/lib/ucr2\libc.a(lib_a-strcpy.o)
 .comment       0x00000000       0x31 d:/program files (x86)/atmel/studio/7.0/toolchain/avr32/avr32-gnu-toolchain/bin/../lib/gcc/avr32/4.4.7/../../../../avr32/lib/ucr2\libc.a(lib_a-strcpy.o)
 .text          0x00000000        0x0 d:/program files (x86)/atmel/studio/7.0/toolchain/avr32/avr32-gnu-toolchain/bin/../lib/gcc/avr32/4.4.7/../../../../avr32/lib/ucr2\libc.a(lib_a-strlen.o)
 .data          0x00000000        0x0 d:/program files (x86)/atmel/studio/7.0/toolchain/avr32/avr32-gnu-toolchain/bin/../lib/gcc/avr32/4.4.7/../../../../avr32/lib/ucr2\libc.a(lib_a-strlen.o)
 .bss           0x00000000        0x0 d:/program files (x86)/atmel/studio/7.0/toolchain/avr32/avr32-gnu-toolchain/bin/../lib/gcc/avr32/4.4.7/../../../../avr32/lib/ucr2\libc.a(lib_a-strlen.o)
 .data          0x00000000        0x0 d:/program files (x86)/atmel/studio/7.0/toolchain/avr32/avr32-gnu-toolchain/bin/../lib/gcc/avr32/4.4.7/../../../../avr32/lib/ucr2\libc.a(lib_a-strncpy.o)
 .bss           0x00000000        0x0 d:/program files (x86)/atmel/studio/7.0/toolchain/avr32/avr32-gnu-toolchain/bin/../lib/gcc/avr32/4.4.7/../../../../avr32/lib/ucr2\libc.a(lib_a-strncpy.o)
 .text          0x00000000        0x0 d:/program files (x86)/atmel/studio/7.0/toolchain/avr32/avr32-gnu-toolchain/bin/../lib/gcc/avr32/4.4.7/../../../../avr32/lib/ucr2\libc.a(lib_a-strtok.o)
 .data          0x00000000        0x0 d:/program files (x86)/atmel/studio/7.0/toolchain/avr32/avr32-gnu-toolchain/bin/../lib/gcc/avr32/4.4.7/../../../../avr32/lib/ucr2\libc.a(lib_a-strtok.o)
 .bss           0x00000000        0x0 d:/program files (x86)/atmel/studio/7.0/toolchain/avr32/avr32-gnu-toolchain/bin/../lib/gcc/avr32/4.4.7/../../../../avr32/lib/ucr2\libc.a(lib_a-strtok.o)
 .debug_abbrev  0x00000000      0x195 d:/program files (x86)/atmel/studio/7.0/toolchain/avr32/avr32-gnu-toolchain/bin/../lib/gcc/avr32/4.4.7/../../../../avr32/lib/ucr2\libc.a(lib_a-strtok.o)
 .debug_info    0x00000000      0x8e9 d:/program files (x86)/atmel/studio/7.0/toolchain/avr32/avr32-gnu-toolchain/bin/../lib/gcc/avr32/4.4.7/../../../../avr32/lib/ucr2\libc.a(lib_a-strtok.o)
 .debug_line    0x00000000      0x24a d:/program files (x86)/atmel/studio/7.0/toolchain/avr32/avr32-gnu-toolchain/bin/../lib/gcc/avr32/4.4.7/../../../../avr32/lib/ucr2\libc.a(lib_a-strtok.o)
 .text.strtok   0x00000000       0x9c d:/program files (x86)/atmel/studio/7.0/toolchain/avr32/avr32-gnu-toolchain/bin/../lib/gcc/avr32/4.4.7/../../../../avr32/lib/ucr2\libc.a(lib_a-strtok.o)
 .debug_frame   0x00000000       0x38 d:/program files (x86)/atmel/studio/7.0/toolchain/avr32/avr32-gnu-toolchain/bin/../lib/gcc/avr32/4.4.7/../../../../avr32/lib/ucr2\libc.a(lib_a-strtok.o)
 .debug_loc     0x00000000       0x7a d:/program files (x86)/atmel/studio/7.0/toolchain/avr32/avr32-gnu-toolchain/bin/../lib/gcc/avr32/4.4.7/../../../../avr32/lib/ucr2\libc.a(lib_a-strtok.o)
 .debug_pubnames
                0x00000000       0x1d d:/program files (x86)/atmel/studio/7.0/toolchain/avr32/avr32-gnu-toolchain/bin/../lib/gcc/avr32/4.4.7/../../../../avr32/lib/ucr2\libc.a(lib_a-strtok.o)
 .debug_aranges
                0x00000000       0x20 d:/program files (x86)/atmel/studio/7.0/toolchain/avr32/avr32-gnu-toolchain/bin/../lib/gcc/avr32/4.4.7/../../../../avr32/lib/ucr2\libc.a(lib_a-strtok.o)
 .debug_ranges  0x00000000       0x48 d:/program files (x86)/atmel/studio/7.0/toolchain/avr32/avr32-gnu-toolchain/bin/../lib/gcc/avr32/4.4.7/../../../../avr32/lib/ucr2\libc.a(lib_a-strtok.o)
 .debug_str     0x00000000      0x4b2 d:/program files (x86)/atmel/studio/7.0/toolchain/avr32/avr32-gnu-toolchain/bin/../lib/gcc/avr32/4.4.7/../../../../avr32/lib/ucr2\libc.a(lib_a-strtok.o)
 .comment       0x00000000       0x31 d:/program files (x86)/atmel/studio/7.0/toolchain/avr32/avr32-gnu-toolchain/bin/../lib/gcc/avr32/4.4.7/../../../../avr32/lib/ucr2\libc.a(lib_a-strtok.o)
 .text          0x00000000        0x0 d:/program files (x86)/atmel/studio/7.0/toolchain/avr32/avr32-gnu-toolchain/bin/../lib/gcc/avr32/4.4.7/../../../../avr32/lib/ucr2\libc.a(lib_a-strtok_r.o)
 .data          0x00000000        0x0 d:/program files (x86)/atmel/studio/7.0/toolchain/avr32/avr32-gnu-toolchain/bin/../lib/gcc/avr32/4.4.7/../../../../avr32/lib/ucr2\libc.a(lib_a-strtok_r.o)
 .bss           0x00000000        0x0 d:/program files (x86)/atmel/studio/7.0/toolchain/avr32/avr32-gnu-toolchain/bin/../lib/gcc/avr32/4.4.7/../../../../avr32/lib/ucr2\libc.a(lib_a-strtok_r.o)
 .debug_abbrev  0x00000000       0xc9 d:/program files (x86)/atmel/studio/7.0/toolchain/avr32/avr32-gnu-toolchain/bin/../lib/gcc/avr32/4.4.7/../../../../avr32/lib/ucr2\libc.a(lib_a-strtok_r.o)
 .debug_info    0x00000000      0x168 d:/program files (x86)/atmel/studio/7.0/toolchain/avr32/avr32-gnu-toolchain/bin/../lib/gcc/avr32/4.4.7/../../../../avr32/lib/ucr2\libc.a(lib_a-strtok_r.o)
 .debug_line    0x00000000      0x1a7 d:/program files (x86)/atmel/studio/7.0/toolchain/avr32/avr32-gnu-toolchain/bin/../lib/gcc/avr32/4.4.7/../../../../avr32/lib/ucr2\libc.a(lib_a-strtok_r.o)
 .text.__strtok_r
                0x00000000       0x5e d:/program files (x86)/atmel/studio/7.0/toolchain/avr32/avr32-gnu-toolchain/bin/../lib/gcc/avr32/4.4.7/../../../../avr32/lib/ucr2\libc.a(lib_a-strtok_r.o)
 .text.strtok_r
                0x00000000       0x10 d:/program files (x86)/atmel/studio/7.0/toolchain/avr32/avr32-gnu-toolchain/bin/../lib/gcc/avr32/4.4.7/../../../../avr32/lib/ucr2\libc.a(lib_a-strtok_r.o)
 .debug_frame   0x00000000       0x4c d:/program files (x86)/atmel/studio/7.0/toolchain/avr32/avr32-gnu-toolchain/bin/../lib/gcc/avr32/4.4.7/../../../../avr32/lib/ucr2\libc.a(lib_a-strtok_r.o)
 .debug_loc     0x00000000      0x154 d:/program files (x86)/atmel/studio/7.0/toolchain/avr32/avr32-gnu-toolchain/bin/../lib/gcc/avr32/4.4.7/../../../../avr32/lib/ucr2\libc.a(lib_a-strtok_r.o)
 .debug_pubnames
                0x00000000       0x2e d:/program files (x86)/atmel/studio/7.0/toolchain/avr32/avr32-gnu-toolchain/bin/../lib/gcc/avr32/4.4.7/../../../../avr32/lib/ucr2\libc.a(lib_a-strtok_r.o)
 .debug_aranges
                0x00000000       0x28 d:/program files (x86)/atmel/studio/7.0/toolchain/avr32/avr32-gnu-toolchain/bin/../lib/gcc/avr32/4.4.7/../../../../avr32/lib/ucr2\libc.a(lib_a-strtok_r.o)
 .debug_ranges  0x00000000       0x20 d:/program files (x86)/atmel/studio/7.0/toolchain/avr32/avr32-gnu-toolchain/bin/../lib/gcc/avr32/4.4.7/../../../../avr32/lib/ucr2\libc.a(lib_a-strtok_r.o)
 .debug_str     0x00000000      0x143 d:/program files (x86)/atmel/studio/7.0/toolchain/avr32/avr32-gnu-toolchain/bin/../lib/gcc/avr32/4.4.7/../../../../avr32/lib/ucr2\libc.a(lib_a-strtok_r.o)
 .comment       0x00000000       0x31 d:/program files (x86)/atmel/studio/7.0/toolchain/avr32/avr32-gnu-toolchain/bin/../lib/gcc/avr32/4.4.7/../../../../avr32/lib/ucr2\libc.a(lib_a-strtok_r.o)
 .text          0x00000000        0x0 d:/program files (x86)/atmel/studio/7.0/toolchain/avr32/avr32-gnu-toolchain/bin/../lib/gcc/avr32/4.4.7/../../../../avr32/lib/ucr2\libc.a(lib_a-syscalls.o)
 .data          0x00000000        0x0 d:/program files (x86)/atmel/studio/7.0/toolchain/avr32/avr32-gnu-toolchain/bin/../lib/gcc/avr32/4.4.7/../../../../avr32/lib/ucr2\libc.a(lib_a-syscalls.o)
 .bss           0x00000000        0x0 d:/program files (x86)/atmel/studio/7.0/toolchain/avr32/avr32-gnu-toolchain/bin/../lib/gcc/avr32/4.4.7/../../../../avr32/lib/ucr2\libc.a(lib_a-syscalls.o)
 .text._init_startup
                0x00000000        0x2 d:/program files (x86)/atmel/studio/7.0/toolchain/avr32/avr32-gnu-toolchain/bin/../lib/gcc/avr32/4.4.7/../../../../avr32/lib/ucr2\libc.a(lib_a-syscalls.o)
 .text._init_argv
                0x00000000        0xa d:/program files (x86)/atmel/studio/7.0/toolchain/avr32/avr32-gnu-toolchain/bin/../lib/gcc/avr32/4.4.7/../../../../avr32/lib/ucr2\libc.a(lib_a-syscalls.o)
 .text._exit    0x00000000        0xa d:/program files (x86)/atmel/studio/7.0/toolchain/avr32/avr32-gnu-toolchain/bin/../lib/gcc/avr32/4.4.7/../../../../avr32/lib/ucr2\libc.a(lib_a-syscalls.o)
 .text._open    0x00000000       0x18 d:/program files (x86)/atmel/studio/7.0/toolchain/avr32/avr32-gnu-toolchain/bin/../lib/gcc/avr32/4.4.7/../../../../avr32/lib/ucr2\libc.a(lib_a-syscalls.o)
 .text._read    0x00000000       0x18 d:/program files (x86)/atmel/studio/7.0/toolchain/avr32/avr32-gnu-toolchain/bin/../lib/gcc/avr32/4.4.7/../../../../avr32/lib/ucr2\libc.a(lib_a-syscalls.o)
 .text._write   0x00000000       0x18 d:/program files (x86)/atmel/studio/7.0/toolchain/avr32/avr32-gnu-toolchain/bin/../lib/gcc/avr32/4.4.7/../../../../avr32/lib/ucr2\libc.a(lib_a-syscalls.o)
 .text._stat_host
                0x00000000       0x18 d:/program files (x86)/atmel/studio/7.0/toolchain/avr32/avr32-gnu-toolchain/bin/../lib/gcc/avr32/4.4.7/../../../../avr32/lib/ucr2\libc.a(lib_a-syscalls.o)
 .text._stat    0x00000000       0x50 d:/program files (x86)/atmel/studio/7.0/toolchain/avr32/avr32-gnu-toolchain/bin/../lib/gcc/avr32/4.4.7/../../../../avr32/lib/ucr2\libc.a(lib_a-syscalls.o)
 .text._gettimeofday_host
                0x00000000       0x18 d:/program files (x86)/atmel/studio/7.0/toolchain/avr32/avr32-gnu-toolchain/bin/../lib/gcc/avr32/4.4.7/../../../../avr32/lib/ucr2\libc.a(lib_a-syscalls.o)
 .text._gettimeofday
                0x00000000       0x24 d:/program files (x86)/atmel/studio/7.0/toolchain/avr32/avr32-gnu-toolchain/bin/../lib/gcc/avr32/4.4.7/../../../../avr32/lib/ucr2\libc.a(lib_a-syscalls.o)
 .text._unlink  0x00000000       0x18 d:/program files (x86)/atmel/studio/7.0/toolchain/avr32/avr32-gnu-toolchain/bin/../lib/gcc/avr32/4.4.7/../../../../avr32/lib/ucr2\libc.a(lib_a-syscalls.o)
 .text._system  0x00000000       0x18 d:/program files (x86)/atmel/studio/7.0/toolchain/avr32/avr32-gnu-toolchain/bin/../lib/gcc/avr32/4.4.7/../../../../avr32/lib/ucr2\libc.a(lib_a-syscalls.o)
 .text._execve  0x00000000        0x2 d:/program files (x86)/atmel/studio/7.0/toolchain/avr32/avr32-gnu-toolchain/bin/../lib/gcc/avr32/4.4.7/../../../../avr32/lib/ucr2\libc.a(lib_a-syscalls.o)
 .text._fork    0x00000000        0x2 d:/program files (x86)/atmel/studio/7.0/toolchain/avr32/avr32-gnu-toolchain/bin/../lib/gcc/avr32/4.4.7/../../../../avr32/lib/ucr2\libc.a(lib_a-syscalls.o)
 .text._wait    0x00000000        0x2 d:/program files (x86)/atmel/studio/7.0/toolchain/avr32/avr32-gnu-toolchain/bin/../lib/gcc/avr32/4.4.7/../../../../avr32/lib/ucr2\libc.a(lib_a-syscalls.o)
 .text.sigfillset
                0x00000000        0x2 d:/program files (x86)/atmel/studio/7.0/toolchain/avr32/avr32-gnu-toolchain/bin/../lib/gcc/avr32/4.4.7/../../../../avr32/lib/ucr2\libc.a(lib_a-syscalls.o)
 .text.sigprocmask
                0x00000000        0x2 d:/program files (x86)/atmel/studio/7.0/toolchain/avr32/avr32-gnu-toolchain/bin/../lib/gcc/avr32/4.4.7/../../../../avr32/lib/ucr2\libc.a(lib_a-syscalls.o)
 .text._fcntl   0x00000000        0x2 d:/program files (x86)/atmel/studio/7.0/toolchain/avr32/avr32-gnu-toolchain/bin/../lib/gcc/avr32/4.4.7/../../../../avr32/lib/ucr2\libc.a(lib_a-syscalls.o)
 .text._link    0x00000000        0x2 d:/program files (x86)/atmel/studio/7.0/toolchain/avr32/avr32-gnu-toolchain/bin/../lib/gcc/avr32/4.4.7/../../../../avr32/lib/ucr2\libc.a(lib_a-syscalls.o)
 .text._kill    0x00000000        0x2 d:/program files (x86)/atmel/studio/7.0/toolchain/avr32/avr32-gnu-toolchain/bin/../lib/gcc/avr32/4.4.7/../../../../avr32/lib/ucr2\libc.a(lib_a-syscalls.o)
 .text._getpid  0x00000000        0x2 d:/program files (x86)/atmel/studio/7.0/toolchain/avr32/avr32-gnu-toolchain/bin/../lib/gcc/avr32/4.4.7/../../../../avr32/lib/ucr2\libc.a(lib_a-syscalls.o)
 .text._times   0x00000000       0x12 d:/program files (x86)/atmel/studio/7.0/toolchain/avr32/avr32-gnu-toolchain/bin/../lib/gcc/avr32/4.4.7/../../../../avr32/lib/ucr2\libc.a(lib_a-syscalls.o)
 .text          0x00000000        0x0 d:/program files (x86)/atmel/studio/7.0/toolchain/avr32/avr32-gnu-toolchain/bin/../lib/gcc/avr32/4.4.7/../../../../avr32/lib/ucr2\libc.a(lib_a-vfprintf.o)
 .data          0x00000000        0x0 d:/program files (x86)/atmel/studio/7.0/toolchain/avr32/avr32-gnu-toolchain/bin/../lib/gcc/avr32/4.4.7/../../../../avr32/lib/ucr2\libc.a(lib_a-vfprintf.o)
 .bss           0x00000000        0x0 d:/program files (x86)/atmel/studio/7.0/toolchain/avr32/avr32-gnu-toolchain/bin/../lib/gcc/avr32/4.4.7/../../../../avr32/lib/ucr2\libc.a(lib_a-vfprintf.o)
 .text.vfprintf
                0x00000000       0x1c d:/program files (x86)/atmel/studio/7.0/toolchain/avr32/avr32-gnu-toolchain/bin/../lib/gcc/avr32/4.4.7/../../../../avr32/lib/ucr2\libc.a(lib_a-vfprintf.o)
 .text          0x00000000        0x0 d:/program files (x86)/atmel/studio/7.0/toolchain/avr32/avr32-gnu-toolchain/bin/../lib/gcc/avr32/4.4.7/../../../../avr32/lib/ucr2\libc.a(lib_a-wsetup.o)
 .data          0x00000000        0x0 d:/program files (x86)/atmel/studio/7.0/toolchain/avr32/avr32-gnu-toolchain/bin/../lib/gcc/avr32/4.4.7/../../../../avr32/lib/ucr2\libc.a(lib_a-wsetup.o)
 .bss           0x00000000        0x0 d:/program files (x86)/atmel/studio/7.0/toolchain/avr32/avr32-gnu-toolchain/bin/../lib/gcc/avr32/4.4.7/../../../../avr32/lib/ucr2\libc.a(lib_a-wsetup.o)
 .text          0x00000000        0x0 d:/program files (x86)/atmel/studio/7.0/toolchain/avr32/avr32-gnu-toolchain/bin/../lib/gcc/avr32/4.4.7/../../../../avr32/lib/ucr2\libc.a(lib_a-dtoa.o)
 .data          0x00000000        0x0 d:/program files (x86)/atmel/studio/7.0/toolchain/avr32/avr32-gnu-toolchain/bin/../lib/gcc/avr32/4.4.7/../../../../avr32/lib/ucr2\libc.a(lib_a-dtoa.o)
 .bss           0x00000000        0x0 d:/program files (x86)/atmel/studio/7.0/toolchain/avr32/avr32-gnu-toolchain/bin/../lib/gcc/avr32/4.4.7/../../../../avr32/lib/ucr2\libc.a(lib_a-dtoa.o)
 .text          0x00000000        0x0 d:/program files (x86)/atmel/studio/7.0/toolchain/avr32/avr32-gnu-toolchain/bin/../lib/gcc/avr32/4.4.7/../../../../avr32/lib/ucr2\libc.a(lib_a-errno.o)
 .data          0x00000000        0x0 d:/program files (x86)/atmel/studio/7.0/toolchain/avr32/avr32-gnu-toolchain/bin/../lib/gcc/avr32/4.4.7/../../../../avr32/lib/ucr2\libc.a(lib_a-errno.o)
 .bss           0x00000000        0x0 d:/program files (x86)/atmel/studio/7.0/toolchain/avr32/avr32-gnu-toolchain/bin/../lib/gcc/avr32/4.4.7/../../../../avr32/lib/ucr2\libc.a(lib_a-errno.o)
 .text          0x00000000        0x0 d:/program files (x86)/atmel/studio/7.0/toolchain/avr32/avr32-gnu-toolchain/bin/../lib/gcc/avr32/4.4.7/../../../../avr32/lib/ucr2\libc.a(lib_a-fflush.o)
 .data          0x00000000        0x0 d:/program files (x86)/atmel/studio/7.0/toolchain/avr32/avr32-gnu-toolchain/bin/../lib/gcc/avr32/4.4.7/../../../../avr32/lib/ucr2\libc.a(lib_a-fflush.o)
 .bss           0x00000000        0x0 d:/program files (x86)/atmel/studio/7.0/toolchain/avr32/avr32-gnu-toolchain/bin/../lib/gcc/avr32/4.4.7/../../../../avr32/lib/ucr2\libc.a(lib_a-fflush.o)
 .text.fflush   0x00000000       0x30 d:/program files (x86)/atmel/studio/7.0/toolchain/avr32/avr32-gnu-toolchain/bin/../lib/gcc/avr32/4.4.7/../../../../avr32/lib/ucr2\libc.a(lib_a-fflush.o)
 .text          0x00000000        0x0 d:/program files (x86)/atmel/studio/7.0/toolchain/avr32/avr32-gnu-toolchain/bin/../lib/gcc/avr32/4.4.7/../../../../avr32/lib/ucr2\libc.a(lib_a-findfp.o)
 .data          0x00000000        0x0 d:/program files (x86)/atmel/studio/7.0/toolchain/avr32/avr32-gnu-toolchain/bin/../lib/gcc/avr32/4.4.7/../../../../avr32/lib/ucr2\libc.a(lib_a-findfp.o)
 .bss           0x00000000        0x0 d:/program files (x86)/atmel/studio/7.0/toolchain/avr32/avr32-gnu-toolchain/bin/../lib/gcc/avr32/4.4.7/../../../../avr32/lib/ucr2\libc.a(lib_a-findfp.o)
 .text.__sinit_lock_acquire
                0x00000000        0x2 d:/program files (x86)/atmel/studio/7.0/toolchain/avr32/avr32-gnu-toolchain/bin/../lib/gcc/avr32/4.4.7/../../../../avr32/lib/ucr2\libc.a(lib_a-findfp.o)
 .text.__sinit_lock_release
                0x00000000        0x2 d:/program files (x86)/atmel/studio/7.0/toolchain/avr32/avr32-gnu-toolchain/bin/../lib/gcc/avr32/4.4.7/../../../../avr32/lib/ucr2\libc.a(lib_a-findfp.o)
 .text.__fp_lock
                0x00000000        0x2 d:/program files (x86)/atmel/studio/7.0/toolchain/avr32/avr32-gnu-toolchain/bin/../lib/gcc/avr32/4.4.7/../../../../avr32/lib/ucr2\libc.a(lib_a-findfp.o)
 .text.__fp_unlock
                0x00000000        0x2 d:/program files (x86)/atmel/studio/7.0/toolchain/avr32/avr32-gnu-toolchain/bin/../lib/gcc/avr32/4.4.7/../../../../avr32/lib/ucr2\libc.a(lib_a-findfp.o)
 .text.__fp_unlock_all
                0x00000000       0x1c d:/program files (x86)/atmel/studio/7.0/toolchain/avr32/avr32-gnu-toolchain/bin/../lib/gcc/avr32/4.4.7/../../../../avr32/lib/ucr2\libc.a(lib_a-findfp.o)
 .text.__fp_lock_all
                0x00000000       0x1c d:/program files (x86)/atmel/studio/7.0/toolchain/avr32/avr32-gnu-toolchain/bin/../lib/gcc/avr32/4.4.7/../../../../avr32/lib/ucr2\libc.a(lib_a-findfp.o)
 .text._cleanup
                0x00000000       0x14 d:/program files (x86)/atmel/studio/7.0/toolchain/avr32/avr32-gnu-toolchain/bin/../lib/gcc/avr32/4.4.7/../../../../avr32/lib/ucr2\libc.a(lib_a-findfp.o)
 .text          0x00000000        0x0 d:/program files (x86)/atmel/studio/7.0/toolchain/avr32/avr32-gnu-toolchain/bin/../lib/gcc/avr32/4.4.7/../../../../avr32/lib/ucr2\libc.a(lib_a-freer.o)
 .data          0x00000000        0x0 d:/program files (x86)/atmel/studio/7.0/toolchain/avr32/avr32-gnu-toolchain/bin/../lib/gcc/avr32/4.4.7/../../../../avr32/lib/ucr2\libc.a(lib_a-freer.o)
 .bss           0x00000000        0x0 d:/program files (x86)/atmel/studio/7.0/toolchain/avr32/avr32-gnu-toolchain/bin/../lib/gcc/avr32/4.4.7/../../../../avr32/lib/ucr2\libc.a(lib_a-freer.o)
 .text          0x00000000        0x0 d:/program files (x86)/atmel/studio/7.0/toolchain/avr32/avr32-gnu-toolchain/bin/../lib/gcc/avr32/4.4.7/../../../../avr32/lib/ucr2\libc.a(lib_a-fvwrite.o)
 .data          0x00000000        0x0 d:/program files (x86)/atmel/studio/7.0/toolchain/avr32/avr32-gnu-toolchain/bin/../lib/gcc/avr32/4.4.7/../../../../avr32/lib/ucr2\libc.a(lib_a-fvwrite.o)
 .bss           0x00000000        0x0 d:/program files (x86)/atmel/studio/7.0/toolchain/avr32/avr32-gnu-toolchain/bin/../lib/gcc/avr32/4.4.7/../../../../avr32/lib/ucr2\libc.a(lib_a-fvwrite.o)
 .text          0x00000000        0x0 d:/program files (x86)/atmel/studio/7.0/toolchain/avr32/avr32-gnu-toolchain/bin/../lib/gcc/avr32/4.4.7/../../../../avr32/lib/ucr2\libc.a(lib_a-fwalk.o)
 .data          0x00000000        0x0 d:/program files (x86)/atmel/studio/7.0/toolchain/avr32/avr32-gnu-toolchain/bin/../lib/gcc/avr32/4.4.7/../../../../avr32/lib/ucr2\libc.a(lib_a-fwalk.o)
 .bss           0x00000000        0x0 d:/program files (x86)/atmel/studio/7.0/toolchain/avr32/avr32-gnu-toolchain/bin/../lib/gcc/avr32/4.4.7/../../../../avr32/lib/ucr2\libc.a(lib_a-fwalk.o)
 .text._fwalk_reent
                0x00000000       0x58 d:/program files (x86)/atmel/studio/7.0/toolchain/avr32/avr32-gnu-toolchain/bin/../lib/gcc/avr32/4.4.7/../../../../avr32/lib/ucr2\libc.a(lib_a-fwalk.o)
 .text          0x00000000        0x0 d:/program files (x86)/atmel/studio/7.0/toolchain/avr32/avr32-gnu-toolchain/bin/../lib/gcc/avr32/4.4.7/../../../../avr32/lib/ucr2\libc.a(lib_a-impure.o)
 .data          0x00000000        0x0 d:/program files (x86)/atmel/studio/7.0/toolchain/avr32/avr32-gnu-toolchain/bin/../lib/gcc/avr32/4.4.7/../../../../avr32/lib/ucr2\libc.a(lib_a-impure.o)
 .bss           0x00000000        0x0 d:/program files (x86)/atmel/studio/7.0/toolchain/avr32/avr32-gnu-toolchain/bin/../lib/gcc/avr32/4.4.7/../../../../avr32/lib/ucr2\libc.a(lib_a-impure.o)
 .text          0x00000000        0x0 d:/program files (x86)/atmel/studio/7.0/toolchain/avr32/avr32-gnu-toolchain/bin/../lib/gcc/avr32/4.4.7/../../../../avr32/lib/ucr2\libc.a(lib_a-locale.o)
 .data          0x00000000        0x0 d:/program files (x86)/atmel/studio/7.0/toolchain/avr32/avr32-gnu-toolchain/bin/../lib/gcc/avr32/4.4.7/../../../../avr32/lib/ucr2\libc.a(lib_a-locale.o)
 .bss           0x00000000        0x0 d:/program files (x86)/atmel/studio/7.0/toolchain/avr32/avr32-gnu-toolchain/bin/../lib/gcc/avr32/4.4.7/../../../../avr32/lib/ucr2\libc.a(lib_a-locale.o)
 .text.__locale_charset
                0x00000000        0xc d:/program files (x86)/atmel/studio/7.0/toolchain/avr32/avr32-gnu-toolchain/bin/../lib/gcc/avr32/4.4.7/../../../../avr32/lib/ucr2\libc.a(lib_a-locale.o)
 .text.localeconv
                0x00000000        0x8 d:/program files (x86)/atmel/studio/7.0/toolchain/avr32/avr32-gnu-toolchain/bin/../lib/gcc/avr32/4.4.7/../../../../avr32/lib/ucr2\libc.a(lib_a-locale.o)
 .text._setlocale_r
                0x00000000       0x3c d:/program files (x86)/atmel/studio/7.0/toolchain/avr32/avr32-gnu-toolchain/bin/../lib/gcc/avr32/4.4.7/../../../../avr32/lib/ucr2\libc.a(lib_a-locale.o)
 .text.setlocale
                0x00000000       0x18 d:/program files (x86)/atmel/studio/7.0/toolchain/avr32/avr32-gnu-toolchain/bin/../lib/gcc/avr32/4.4.7/../../../../avr32/lib/ucr2\libc.a(lib_a-locale.o)
 .rodata.charset
                0x00000000        0x4 d:/program files (x86)/atmel/studio/7.0/toolchain/avr32/avr32-gnu-toolchain/bin/../lib/gcc/avr32/4.4.7/../../../../avr32/lib/ucr2\libc.a(lib_a-locale.o)
 .bss.__nlocale_changed
                0x00000000        0x4 d:/program files (x86)/atmel/studio/7.0/toolchain/avr32/avr32-gnu-toolchain/bin/../lib/gcc/avr32/4.4.7/../../../../avr32/lib/ucr2\libc.a(lib_a-locale.o)
 .bss.__mlocale_changed
                0x00000000        0x4 d:/program files (x86)/atmel/studio/7.0/toolchain/avr32/avr32-gnu-toolchain/bin/../lib/gcc/avr32/4.4.7/../../../../avr32/lib/ucr2\libc.a(lib_a-locale.o)
 .bss._PathLocale
                0x00000000        0x4 d:/program files (x86)/atmel/studio/7.0/toolchain/avr32/avr32-gnu-toolchain/bin/../lib/gcc/avr32/4.4.7/../../../../avr32/lib/ucr2\libc.a(lib_a-locale.o)
 .data.__lc_ctype
                0x00000000        0xc d:/program files (x86)/atmel/studio/7.0/toolchain/avr32/avr32-gnu-toolchain/bin/../lib/gcc/avr32/4.4.7/../../../../avr32/lib/ucr2\libc.a(lib_a-locale.o)
 .data.__mb_cur_max
                0x00000000        0x4 d:/program files (x86)/atmel/studio/7.0/toolchain/avr32/avr32-gnu-toolchain/bin/../lib/gcc/avr32/4.4.7/../../../../avr32/lib/ucr2\libc.a(lib_a-locale.o)
 .text          0x00000000        0x0 d:/program files (x86)/atmel/studio/7.0/toolchain/avr32/avr32-gnu-toolchain/bin/../lib/gcc/avr32/4.4.7/../../../../avr32/lib/ucr2\libc.a(lib_a-makebuf.o)
 .data          0x00000000        0x0 d:/program files (x86)/atmel/studio/7.0/toolchain/avr32/avr32-gnu-toolchain/bin/../lib/gcc/avr32/4.4.7/../../../../avr32/lib/ucr2\libc.a(lib_a-makebuf.o)
 .bss           0x00000000        0x0 d:/program files (x86)/atmel/studio/7.0/toolchain/avr32/avr32-gnu-toolchain/bin/../lib/gcc/avr32/4.4.7/../../../../avr32/lib/ucr2\libc.a(lib_a-makebuf.o)
 .text          0x00000000        0x0 d:/program files (x86)/atmel/studio/7.0/toolchain/avr32/avr32-gnu-toolchain/bin/../lib/gcc/avr32/4.4.7/../../../../avr32/lib/ucr2\libc.a(lib_a-memchr.o)
 .data          0x00000000        0x0 d:/program files (x86)/atmel/studio/7.0/toolchain/avr32/avr32-gnu-toolchain/bin/../lib/gcc/avr32/4.4.7/../../../../avr32/lib/ucr2\libc.a(lib_a-memchr.o)
 .bss           0x00000000        0x0 d:/program files (x86)/atmel/studio/7.0/toolchain/avr32/avr32-gnu-toolchain/bin/../lib/gcc/avr32/4.4.7/../../../../avr32/lib/ucr2\libc.a(lib_a-memchr.o)
 .text          0x00000000        0x0 d:/program files (x86)/atmel/studio/7.0/toolchain/avr32/avr32-gnu-toolchain/bin/../lib/gcc/avr32/4.4.7/../../../../avr32/lib/ucr2\libc.a(lib_a-memmove.o)
 .data          0x00000000        0x0 d:/program files (x86)/atmel/studio/7.0/toolchain/avr32/avr32-gnu-toolchain/bin/../lib/gcc/avr32/4.4.7/../../../../avr32/lib/ucr2\libc.a(lib_a-memmove.o)
 .bss           0x00000000        0x0 d:/program files (x86)/atmel/studio/7.0/toolchain/avr32/avr32-gnu-toolchain/bin/../lib/gcc/avr32/4.4.7/../../../../avr32/lib/ucr2\libc.a(lib_a-memmove.o)
 .text          0x00000000        0x0 d:/program files (x86)/atmel/studio/7.0/toolchain/avr32/avr32-gnu-toolchain/bin/../lib/gcc/avr32/4.4.7/../../../../avr32/lib/ucr2\libc.a(lib_a-mprec.o)
 .data          0x00000000        0x0 d:/program files (x86)/atmel/studio/7.0/toolchain/avr32/avr32-gnu-toolchain/bin/../lib/gcc/avr32/4.4.7/../../../../avr32/lib/ucr2\libc.a(lib_a-mprec.o)
 .bss           0x00000000        0x0 d:/program files (x86)/atmel/studio/7.0/toolchain/avr32/avr32-gnu-toolchain/bin/../lib/gcc/avr32/4.4.7/../../../../avr32/lib/ucr2\libc.a(lib_a-mprec.o)
 .text.__ulp    0x00000000       0x48 d:/program files (x86)/atmel/studio/7.0/toolchain/avr32/avr32-gnu-toolchain/bin/../lib/gcc/avr32/4.4.7/../../../../avr32/lib/ucr2\libc.a(lib_a-mprec.o)
 .text.__b2d    0x00000000       0xa0 d:/program files (x86)/atmel/studio/7.0/toolchain/avr32/avr32-gnu-toolchain/bin/../lib/gcc/avr32/4.4.7/../../../../avr32/lib/ucr2\libc.a(lib_a-mprec.o)
 .text.__ratio  0x00000000       0x5c d:/program files (x86)/atmel/studio/7.0/toolchain/avr32/avr32-gnu-toolchain/bin/../lib/gcc/avr32/4.4.7/../../../../avr32/lib/ucr2\libc.a(lib_a-mprec.o)
 .text._mprec_log10
                0x00000000       0x34 d:/program files (x86)/atmel/studio/7.0/toolchain/avr32/avr32-gnu-toolchain/bin/../lib/gcc/avr32/4.4.7/../../../../avr32/lib/ucr2\libc.a(lib_a-mprec.o)
 .text.__copybits
                0x00000000       0x2e d:/program files (x86)/atmel/studio/7.0/toolchain/avr32/avr32-gnu-toolchain/bin/../lib/gcc/avr32/4.4.7/../../../../avr32/lib/ucr2\libc.a(lib_a-mprec.o)
 .text.__any_on
                0x00000000       0x4c d:/program files (x86)/atmel/studio/7.0/toolchain/avr32/avr32-gnu-toolchain/bin/../lib/gcc/avr32/4.4.7/../../../../avr32/lib/ucr2\libc.a(lib_a-mprec.o)
 .text.__s2b    0x00000000       0x84 d:/program files (x86)/atmel/studio/7.0/toolchain/avr32/avr32-gnu-toolchain/bin/../lib/gcc/avr32/4.4.7/../../../../avr32/lib/ucr2\libc.a(lib_a-mprec.o)
 .rodata.__mprec_tinytens
                0x00000000       0x28 d:/program files (x86)/atmel/studio/7.0/toolchain/avr32/avr32-gnu-toolchain/bin/../lib/gcc/avr32/4.4.7/../../../../avr32/lib/ucr2\libc.a(lib_a-mprec.o)
 .text          0x00000000        0x0 d:/program files (x86)/atmel/studio/7.0/toolchain/avr32/avr32-gnu-toolchain/bin/../lib/gcc/avr32/4.4.7/../../../../avr32/lib/ucr2\libc.a(lib_a-reent.o)
 .data          0x00000000        0x0 d:/program files (x86)/atmel/studio/7.0/toolchain/avr32/avr32-gnu-toolchain/bin/../lib/gcc/avr32/4.4.7/../../../../avr32/lib/ucr2\libc.a(lib_a-reent.o)
 .bss           0x00000000        0x0 d:/program files (x86)/atmel/studio/7.0/toolchain/avr32/avr32-gnu-toolchain/bin/../lib/gcc/avr32/4.4.7/../../../../avr32/lib/ucr2\libc.a(lib_a-reent.o)
 .text._wrapup_reent
                0x00000000       0x3c d:/program files (x86)/atmel/studio/7.0/toolchain/avr32/avr32-gnu-toolchain/bin/../lib/gcc/avr32/4.4.7/../../../../avr32/lib/ucr2\libc.a(lib_a-reent.o)
 .text.cleanup_glue
                0x00000000       0x24 d:/program files (x86)/atmel/studio/7.0/toolchain/avr32/avr32-gnu-toolchain/bin/../lib/gcc/avr32/4.4.7/../../../../avr32/lib/ucr2\libc.a(lib_a-reent.o)
 .text._reclaim_reent
                0x00000000       0xd4 d:/program files (x86)/atmel/studio/7.0/toolchain/avr32/avr32-gnu-toolchain/bin/../lib/gcc/avr32/4.4.7/../../../../avr32/lib/ucr2\libc.a(lib_a-reent.o)
 .text          0x00000000        0x0 d:/program files (x86)/atmel/studio/7.0/toolchain/avr32/avr32-gnu-toolchain/bin/../lib/gcc/avr32/4.4.7/../../../../avr32/lib/ucr2\libc.a(lib_a-s_isinfd.o)
 .data          0x00000000        0x0 d:/program files (x86)/atmel/studio/7.0/toolchain/avr32/avr32-gnu-toolchain/bin/../lib/gcc/avr32/4.4.7/../../../../avr32/lib/ucr2\libc.a(lib_a-s_isinfd.o)
 .bss           0x00000000        0x0 d:/program files (x86)/atmel/studio/7.0/toolchain/avr32/avr32-gnu-toolchain/bin/../lib/gcc/avr32/4.4.7/../../../../avr32/lib/ucr2\libc.a(lib_a-s_isinfd.o)
 .text          0x00000000        0x0 d:/program files (x86)/atmel/studio/7.0/toolchain/avr32/avr32-gnu-toolchain/bin/../lib/gcc/avr32/4.4.7/../../../../avr32/lib/ucr2\libc.a(lib_a-s_isnand.o)
 .data          0x00000000        0x0 d:/program files (x86)/atmel/studio/7.0/toolchain/avr32/avr32-gnu-toolchain/bin/../lib/gcc/avr32/4.4.7/../../../../avr32/lib/ucr2\libc.a(lib_a-s_isnand.o)
 .bss           0x00000000        0x0 d:/program files (x86)/atmel/studio/7.0/toolchain/avr32/avr32-gnu-toolchain/bin/../lib/gcc/avr32/4.4.7/../../../../avr32/lib/ucr2\libc.a(lib_a-s_isnand.o)
 .text          0x00000000        0x0 d:/program files (x86)/atmel/studio/7.0/toolchain/avr32/avr32-gnu-toolchain/bin/../lib/gcc/avr32/4.4.7/../../../../avr32/lib/ucr2\libc.a(lib_a-stdio.o)
 .data          0x00000000        0x0 d:/program files (x86)/atmel/studio/7.0/toolchain/avr32/avr32-gnu-toolchain/bin/../lib/gcc/avr32/4.4.7/../../../../avr32/lib/ucr2\libc.a(lib_a-stdio.o)
 .bss           0x00000000        0x0 d:/program files (x86)/atmel/studio/7.0/toolchain/avr32/avr32-gnu-toolchain/bin/../lib/gcc/avr32/4.4.7/../../../../avr32/lib/ucr2\libc.a(lib_a-stdio.o)
 .text          0x00000000       0xa8 d:/program files (x86)/atmel/studio/7.0/toolchain/avr32/avr32-gnu-toolchain/bin/../lib/gcc/avr32/4.4.7/../../../../avr32/lib/ucr2\libc.a(lib_a-strcmp.o)
 .data          0x00000000        0x0 d:/program files (x86)/atmel/studio/7.0/toolchain/avr32/avr32-gnu-toolchain/bin/../lib/gcc/avr32/4.4.7/../../../../avr32/lib/ucr2\libc.a(lib_a-strcmp.o)
 .bss           0x00000000        0x0 d:/program files (x86)/atmel/studio/7.0/toolchain/avr32/avr32-gnu-toolchain/bin/../lib/gcc/avr32/4.4.7/../../../../avr32/lib/ucr2\libc.a(lib_a-strcmp.o)
 .text          0x00000000        0x0 d:/program files (x86)/atmel/studio/7.0/toolchain/avr32/avr32-gnu-toolchain/bin/../lib/gcc/avr32/4.4.7/../../../../avr32/lib/ucr2\libc.a(lib_a-writer.o)
 .data          0x00000000        0x0 d:/program files (x86)/atmel/studio/7.0/toolchain/avr32/avr32-gnu-toolchain/bin/../lib/gcc/avr32/4.4.7/../../../../avr32/lib/ucr2\libc.a(lib_a-writer.o)
 .bss           0x00000000        0x0 d:/program files (x86)/atmel/studio/7.0/toolchain/avr32/avr32-gnu-toolchain/bin/../lib/gcc/avr32/4.4.7/../../../../avr32/lib/ucr2\libc.a(lib_a-writer.o)
 .text          0x00000000        0x0 d:/program files (x86)/atmel/studio/7.0/toolchain/avr32/avr32-gnu-toolchain/bin/../lib/gcc/avr32/4.4.7/../../../../avr32/lib/ucr2\libc.a(lib_a-callocr.o)
 .data          0x00000000        0x0 d:/program files (x86)/atmel/studio/7.0/toolchain/avr32/avr32-gnu-toolchain/bin/../lib/gcc/avr32/4.4.7/../../../../avr32/lib/ucr2\libc.a(lib_a-callocr.o)
 .bss           0x00000000        0x0 d:/program files (x86)/atmel/studio/7.0/toolchain/avr32/avr32-gnu-toolchain/bin/../lib/gcc/avr32/4.4.7/../../../../avr32/lib/ucr2\libc.a(lib_a-callocr.o)
 .text          0x00000000        0x0 d:/program files (x86)/atmel/studio/7.0/toolchain/avr32/avr32-gnu-toolchain/bin/../lib/gcc/avr32/4.4.7/../../../../avr32/lib/ucr2\libc.a(lib_a-closer.o)
 .data          0x00000000        0x0 d:/program files (x86)/atmel/studio/7.0/toolchain/avr32/avr32-gnu-toolchain/bin/../lib/gcc/avr32/4.4.7/../../../../avr32/lib/ucr2\libc.a(lib_a-closer.o)
 .bss           0x00000000        0x0 d:/program files (x86)/atmel/studio/7.0/toolchain/avr32/avr32-gnu-toolchain/bin/../lib/gcc/avr32/4.4.7/../../../../avr32/lib/ucr2\libc.a(lib_a-closer.o)
 .text          0x00000000        0x0 d:/program files (x86)/atmel/studio/7.0/toolchain/avr32/avr32-gnu-toolchain/bin/../lib/gcc/avr32/4.4.7/../../../../avr32/lib/ucr2\libc.a(lib_a-fclose.o)
 .data          0x00000000        0x0 d:/program files (x86)/atmel/studio/7.0/toolchain/avr32/avr32-gnu-toolchain/bin/../lib/gcc/avr32/4.4.7/../../../../avr32/lib/ucr2\libc.a(lib_a-fclose.o)
 .bss           0x00000000        0x0 d:/program files (x86)/atmel/studio/7.0/toolchain/avr32/avr32-gnu-toolchain/bin/../lib/gcc/avr32/4.4.7/../../../../avr32/lib/ucr2\libc.a(lib_a-fclose.o)
 .text          0x00000000        0x0 d:/program files (x86)/atmel/studio/7.0/toolchain/avr32/avr32-gnu-toolchain/bin/../lib/gcc/avr32/4.4.7/../../../../avr32/lib/ucr2\libc.a(lib_a-fstatr.o)
 .data          0x00000000        0x0 d:/program files (x86)/atmel/studio/7.0/toolchain/avr32/avr32-gnu-toolchain/bin/../lib/gcc/avr32/4.4.7/../../../../avr32/lib/ucr2\libc.a(lib_a-fstatr.o)
 .bss           0x00000000        0x0 d:/program files (x86)/atmel/studio/7.0/toolchain/avr32/avr32-gnu-toolchain/bin/../lib/gcc/avr32/4.4.7/../../../../avr32/lib/ucr2\libc.a(lib_a-fstatr.o)
 .text          0x00000000        0x0 d:/program files (x86)/atmel/studio/7.0/toolchain/avr32/avr32-gnu-toolchain/bin/../lib/gcc/avr32/4.4.7/../../../../avr32/lib/ucr2\libc.a(lib_a-lseekr.o)
 .data          0x00000000        0x0 d:/program files (x86)/atmel/studio/7.0/toolchain/avr32/avr32-gnu-toolchain/bin/../lib/gcc/avr32/4.4.7/../../../../avr32/lib/ucr2\libc.a(lib_a-lseekr.o)
 .bss           0x00000000        0x0 d:/program files (x86)/atmel/studio/7.0/toolchain/avr32/avr32-gnu-toolchain/bin/../lib/gcc/avr32/4.4.7/../../../../avr32/lib/ucr2\libc.a(lib_a-lseekr.o)
 .text          0x00000000        0x0 d:/program files (x86)/atmel/studio/7.0/toolchain/avr32/avr32-gnu-toolchain/bin/../lib/gcc/avr32/4.4.7/../../../../avr32/lib/ucr2\libc.a(lib_a-readr.o)
 .data          0x00000000        0x0 d:/program files (x86)/atmel/studio/7.0/toolchain/avr32/avr32-gnu-toolchain/bin/../lib/gcc/avr32/4.4.7/../../../../avr32/lib/ucr2\libc.a(lib_a-readr.o)
 .bss           0x00000000        0x0 d:/program files (x86)/atmel/studio/7.0/toolchain/avr32/avr32-gnu-toolchain/bin/../lib/gcc/avr32/4.4.7/../../../../avr32/lib/ucr2\libc.a(lib_a-readr.o)
 .data          0x00000000        0x0 d:/program files (x86)/atmel/studio/7.0/toolchain/avr32/avr32-gnu-toolchain/bin/../lib/gcc/avr32/4.4.7/ucr2\libgcc.a(_avr32_f64_mul.o)
 .bss           0x00000000        0x0 d:/program files (x86)/atmel/studio/7.0/toolchain/avr32/avr32-gnu-toolchain/bin/../lib/gcc/avr32/4.4.7/ucr2\libgcc.a(_avr32_f64_mul.o)
 .data          0x00000000        0x0 d:/program files (x86)/atmel/studio/7.0/toolchain/avr32/avr32-gnu-toolchain/bin/../lib/gcc/avr32/4.4.7/ucr2\libgcc.a(_avr32_f64_addsub.o)
 .bss           0x00000000        0x0 d:/program files (x86)/atmel/studio/7.0/toolchain/avr32/avr32-gnu-toolchain/bin/../lib/gcc/avr32/4.4.7/ucr2\libgcc.a(_avr32_f64_addsub.o)
 .data          0x00000000        0x0 d:/program files (x86)/atmel/studio/7.0/toolchain/avr32/avr32-gnu-toolchain/bin/../lib/gcc/avr32/4.4.7/ucr2\libgcc.a(_avr32_f64_to_s32.o)
 .bss           0x00000000        0x0 d:/program files (x86)/atmel/studio/7.0/toolchain/avr32/avr32-gnu-toolchain/bin/../lib/gcc/avr32/4.4.7/ucr2\libgcc.a(_avr32_f64_to_s32.o)
 .data          0x00000000        0x0 d:/program files (x86)/atmel/studio/7.0/toolchain/avr32/avr32-gnu-toolchain/bin/../lib/gcc/avr32/4.4.7/ucr2\libgcc.a(_avr32_s32_to_f64.o)
 .bss           0x00000000        0x0 d:/program files (x86)/atmel/studio/7.0/toolchain/avr32/avr32-gnu-toolchain/bin/../lib/gcc/avr32/4.4.7/ucr2\libgcc.a(_avr32_s32_to_f64.o)
 .data          0x00000000        0x0 d:/program files (x86)/atmel/studio/7.0/toolchain/avr32/avr32-gnu-toolchain/bin/../lib/gcc/avr32/4.4.7/ucr2\libgcc.a(_avr32_f64_cmp_eq.o)
 .bss           0x00000000        0x0 d:/program files (x86)/atmel/studio/7.0/toolchain/avr32/avr32-gnu-toolchain/bin/../lib/gcc/avr32/4.4.7/ucr2\libgcc.a(_avr32_f64_cmp_eq.o)
 .data          0x00000000        0x0 d:/program files (x86)/atmel/studio/7.0/toolchain/avr32/avr32-gnu-toolchain/bin/../lib/gcc/avr32/4.4.7/ucr2\libgcc.a(_avr32_f64_cmp_ge.o)
 .bss           0x00000000        0x0 d:/program files (x86)/atmel/studio/7.0/toolchain/avr32/avr32-gnu-toolchain/bin/../lib/gcc/avr32/4.4.7/ucr2\libgcc.a(_avr32_f64_cmp_ge.o)
 .data          0x00000000        0x0 d:/program files (x86)/atmel/studio/7.0/toolchain/avr32/avr32-gnu-toolchain/bin/../lib/gcc/avr32/4.4.7/ucr2\libgcc.a(_avr32_f64_cmp_lt.o)
 .bss           0x00000000        0x0 d:/program files (x86)/atmel/studio/7.0/toolchain/avr32/avr32-gnu-toolchain/bin/../lib/gcc/avr32/4.4.7/ucr2\libgcc.a(_avr32_f64_cmp_lt.o)
 .data          0x00000000        0x0 d:/program files (x86)/atmel/studio/7.0/toolchain/avr32/avr32-gnu-toolchain/bin/../lib/gcc/avr32/4.4.7/ucr2\libgcc.a(_avr32_f64_div.o)
 .bss           0x00000000        0x0 d:/program files (x86)/atmel/studio/7.0/toolchain/avr32/avr32-gnu-toolchain/bin/../lib/gcc/avr32/4.4.7/ucr2\libgcc.a(_avr32_f64_div.o)
 .data          0x00000000        0x0 d:/program files (x86)/atmel/studio/7.0/toolchain/avr32/avr32-gnu-toolchain/bin/../lib/gcc/avr32/4.4.7/ucr2\libgcc.a(_udivdi3.o)
 .bss           0x00000000        0x0 d:/program files (x86)/atmel/studio/7.0/toolchain/avr32/avr32-gnu-toolchain/bin/../lib/gcc/avr32/4.4.7/ucr2\libgcc.a(_udivdi3.o)
 .data          0x00000000        0x0 d:/program files (x86)/atmel/studio/7.0/toolchain/avr32/avr32-gnu-toolchain/bin/../lib/gcc/avr32/4.4.7/ucr2\libgcc.a(_umoddi3.o)
 .bss           0x00000000        0x0 d:/program files (x86)/atmel/studio/7.0/toolchain/avr32/avr32-gnu-toolchain/bin/../lib/gcc/avr32/4.4.7/ucr2\libgcc.a(_umoddi3.o)

Memory Configuration

Name             Origin             Length             Attributes
FLASH            0x80000000         0x00080000         axrl !w
INTRAM           0x00000004         0x00017ffc         axw !rl
USERPAGE         0x80800000         0x00000200
*default*        0x00000000         0xffffffff

Linker script and memory map

                0x00001000                _stack_size = 0x1000
LOAD Srouce/Application/app/app.o
LOAD Srouce/Application/fs/avr_spi_sd.o
LOAD Srouce/Application/fs/mal_sd.o
LOAD Srouce/Application/fs/fs.o
LOAD Srouce/Application/radio/ambe.o
LOAD Srouce/Application/radio/AMBE_audio.o
LOAD Srouce/Application/radio/AMBE_audio_2.o
LOAD Srouce/Application/radio/payload.o
LOAD Srouce/Application/radio/audio.o
LOAD Srouce/Application/radio/physical.o
LOAD Srouce/Application/radio/ssc.o
LOAD Srouce/Application/radio/xcmp.o
LOAD Srouce/Application/radio/xnl.o
LOAD Srouce/Application/rtc/rtc.o
LOAD Srouce/Application/timers/timer.o
LOAD Srouce/ASF/avr32/drivers/intc/intc.o
LOAD Srouce/ASF/avr32/drivers/pm/pm.o
LOAD Srouce/ASF/avr32/drivers/pm/pm_conf_clocks.o
LOAD Srouce/ASF/avr32/drivers/pm/power_clocks_lib.o
LOAD Srouce/ASF/avr32/drivers/spi/spi.o
LOAD Srouce/ASF/avr32/drivers/tc/tc.o
LOAD Srouce/ASF/avr32/drivers/twi/twi.o
LOAD Srouce/ASF/avr32/drivers/usart/usart.o
LOAD Srouce/ASF/thirdparty/ff11a/diskio.o
LOAD Srouce/ASF/thirdparty/ff11a/ff.o
LOAD Srouce/ASF/thirdparty/freertos/freertos-7.0.0/source/croutine.o
LOAD Srouce/ASF/thirdparty/freertos/freertos-7.0.0/source/list.o
LOAD Srouce/ASF/thirdparty/freertos/freertos-7.0.0/source/portable/gcc/avr32_uc3/exception.o
LOAD Srouce/ASF/thirdparty/freertos/freertos-7.0.0/source/portable/gcc/avr32_uc3/port.o
LOAD Srouce/ASF/thirdparty/freertos/freertos-7.0.0/source/portable/gcc/avr32_uc3/read.o
LOAD Srouce/ASF/thirdparty/freertos/freertos-7.0.0/source/portable/gcc/avr32_uc3/write.o
LOAD Srouce/ASF/thirdparty/freertos/freertos-7.0.0/source/portable/memmang/heap_3.o
LOAD Srouce/ASF/thirdparty/freertos/freertos-7.0.0/source/queue.o
LOAD Srouce/ASF/thirdparty/freertos/freertos-7.0.0/source/tasks.o
LOAD Srouce/Log/log.o
LOAD Srouce/main.o
LOAD Srouce/ASF/avr32/drivers/gpio/gpio.o
LOAD Srouce/ASF/avr32/utils/startup/startup_uc3.o
LOAD Srouce/ASF/avr32/utils/startup/trampoline_uc3.o
LOAD Srouce/ASF/common/boards/user_board/init.o
START GROUP
LOAD d:/program files (x86)/atmel/studio/7.0/toolchain/avr32/avr32-gnu-toolchain/bin/../lib/gcc/avr32/4.4.7/../../../../avr32/lib/ucr2\libm.a
END GROUP
LOAD d:/program files (x86)/atmel/studio/7.0/toolchain/avr32/avr32-gnu-toolchain/bin/../lib/gcc/avr32/4.4.7/ucr2\libgcc.a
LOAD d:/program files (x86)/atmel/studio/7.0/toolchain/avr32/avr32-gnu-toolchain/bin/../lib/gcc/avr32/4.4.7/../../../../avr32/lib/ucr2\libc.a
LOAD d:/program files (x86)/atmel/studio/7.0/toolchain/avr32/avr32-gnu-toolchain/bin/../lib/gcc/avr32/4.4.7/ucr2\libgcc.a
                0xffffffff                __max_heap_size__ = 0xffffffff
                [0xffffffff]                __heap_size__ = DEFINED (__heap_size__)?__heap_size__:__max_heap_size__
                [0x00001000]                __stack_size__ = DEFINED (__stack_size__)?__stack_size__:0x1000
                0x80000000                PROVIDE (__executable_start, 0x80000000)
                0x80000000                . = 0x80000000

.interp
 *(.interp)

.reset          0x80000000     0x2008
 *(.reset)
 .reset         0x80000000        0x4 Srouce/ASF/avr32/utils/startup/startup_uc3.o
                                  0x8 (size before relaxing)
                0x80000000                _start
 .reset         0x80000004     0x2004 Srouce/ASF/avr32/utils/startup/trampoline_uc3.o
                               0x2008 (size before relaxing)
                0x80000004                _trampoline

.hash
 *(.hash)

.dynsym
 *(.dynsym)

.dynstr
 *(.dynstr)

.gnu.version
 *(.gnu.version)

.gnu.version_d
 *(.gnu.version_d)

.gnu.version_r
 *(.gnu.version_r)

.rel.init
 *(.rel.init)

.rela.init
 *(.rela.init)

.rel.text
 *(.rel.text .rel.text.* .rel.gnu.linkonce.t.*)

.rela.text
 *(.rela.text .rela.text.* .rela.gnu.linkonce.t.*)

.rel.fini
 *(.rel.fini)

.rela.fini
 *(.rela.fini)

.rel.rodata
 *(.rel.rodata .rel.rodata.* .rel.gnu.linkonce.r.*)

.rela.rodata
 *(.rela.rodata .rela.rodata.* .rela.gnu.linkonce.r.*)

.rel.data.rel.ro
 *(.rel.data.rel.ro*)

.rela.data.rel.ro
 *(.rel.data.rel.ro*)

.rel.data
 *(.rel.data .rel.data.* .rel.gnu.linkonce.d.*)

.rela.data
 *(.rela.data .rela.data.* .rela.gnu.linkonce.d.*)

.rel.tdata
 *(.rel.tdata .rel.tdata.* .rel.gnu.linkonce.td.*)

.rela.tdata
 *(.rela.tdata .rela.tdata.* .rela.gnu.linkonce.td.*)

.rel.tbss
 *(.rel.tbss .rel.tbss.* .rel.gnu.linkonce.tb.*)

.rela.tbss
 *(.rela.tbss .rela.tbss.* .rela.gnu.linkonce.tb.*)

.rel.ctors
 *(.rel.ctors)

.rela.ctors
 *(.rela.ctors)

.rel.dtors
 *(.rel.dtors)

.rela.dtors
 *(.rela.dtors)

.rel.got
 *(.rel.got)

.rela.got       0x80002008        0x0
 *(.rela.got)
 .rela.got      0x80002008        0x0 Srouce/Application/app/app.o

.rel.bss
 *(.rel.bss .rel.bss.* .rel.gnu.linkonce.b.*)

.rela.bss
 *(.rela.bss .rela.bss.* .rela.gnu.linkonce.b.*)

.rel.plt
 *(.rel.plt)

.rela.plt
 *(.rela.plt)

.init
 *(.init)

.plt
 *(.plt)

.text           0x80002008     0xa4c4
 *(.text .stub .text.* .gnu.linkonce.t.*)
 .text.DeviceManagement_brdcst_func
                0x80002008       0x24 Srouce/Application/app/app.o
                0x80002008                DeviceManagement_brdcst_func
 .text.Volume_brdcst_func
                0x8000202c        0x2 Srouce/Application/app/app.o
                0x8000202c                Volume_brdcst_func
 .text.AudioRoutingControl_brdcst_func
                0x8000202e        0x2 Srouce/Application/app/app.o
                0x8000202e                AudioRoutingControl_brdcst_func
 .text.vApplicationIdleHook
                0x80002030       0x10 Srouce/Application/app/app.o
                0x80002030                vApplicationIdleHook
 .text.app_init
                0x80002040       0x54 Srouce/Application/app/app.o
                0x80002040                app_init
 .text.app_cfg  0x80002094       0x74 Srouce/Application/app/app.o
 .text.app_payload_tx_proc
                0x80002108       0x14 Srouce/Application/app/app.o
 .text.FD_brdcst_func
                0x8000211c       0x14 Srouce/Application/app/app.o
                0x8000211c                FD_brdcst_func
 .text.FD_reply_func
                0x80002130       0x14 Srouce/Application/app/app.o
                0x80002130                FD_reply_func
 .text.FD_request_func
                0x80002144       0x14 Srouce/Application/app/app.o
                0x80002144                FD_request_func
 .text.EnOB_brdcst_func
                0x80002158       0x14 Srouce/Application/app/app.o
                0x80002158                EnOB_brdcst_func
 .text.EnOB_reply_func
                0x8000216c       0x70 Srouce/Application/app/app.o
                0x8000216c                EnOB_reply_func
 .text.SingleDetection_brdcst_func
                0x800021dc       0x40 Srouce/Application/app/app.o
                0x800021dc                SingleDetection_brdcst_func
 .text.ButtonConfig_brdcst_func
                0x8000221c       0xdc Srouce/Application/app/app.o
                0x8000221c                ButtonConfig_brdcst_func
 .text.Phyuserinput_brdcst_func
                0x800022f8       0x78 Srouce/Application/app/app.o
                0x800022f8                Phyuserinput_brdcst_func
 .text.ButtonConfig_reply_func
                0x80002370       0x44 Srouce/Application/app/app.o
                0x80002370                ButtonConfig_reply_func
 .text.DataSession_brdcst_func
                0x800023b4       0x84 Srouce/Application/app/app.o
                0x800023b4                DataSession_brdcst_func
 .text.DataSession_reply_func
                0x80002438       0x58 Srouce/Application/app/app.o
                0x80002438                DataSession_reply_func
 .text.TransmitControl_brdcst_func
                0x80002490       0x48 Srouce/Application/app/app.o
                0x80002490                TransmitControl_brdcst_func
 .text.TransmitControl_reply_func
                0x800024d8       0x7c Srouce/Application/app/app.o
                0x800024d8                TransmitControl_reply_func
 .text.Volume_reply_func
                0x80002554       0x64 Srouce/Application/app/app.o
                0x80002554                Volume_reply_func
 .text.spk_brdcst_func
                0x800025b8       0x40 Srouce/Application/app/app.o
                0x800025b8                spk_brdcst_func
 .text.spk_reply_func
                0x800025f8       0x40 Srouce/Application/app/app.o
                0x800025f8                spk_reply_func
 .text.mic_brdcst_func
                0x80002638       0x48 Srouce/Application/app/app.o
                0x80002638                mic_brdcst_func
 .text.mic_reply_func
                0x80002680       0x94 Srouce/Application/app/app.o
                0x80002680                mic_reply_func
 .text.dcm_brdcst_func
                0x80002714       0x48 Srouce/Application/app/app.o
                0x80002714                dcm_brdcst_func
 .text.dcm_reply_func
                0x8000275c       0x68 Srouce/Application/app/app.o
                0x8000275c                dcm_reply_func
 .text.ToneControl_reply_func
                0x800027c4       0x28 Srouce/Application/app/app.o
                0x800027c4                ToneControl_reply_func
 .text.app_payload_rx_proc
                0x800027ec       0x44 Srouce/Application/app/app.o
 .text.AudioRoutingControl_reply_func
                0x80002830       0x50 Srouce/Application/app/app.o
                0x80002830                AudioRoutingControl_reply_func
 .text.DeviceInitializationStatus_brdcst_func
                0x80002880       0x38 Srouce/Application/app/app.o
                0x80002880                DeviceInitializationStatus_brdcst_func
 .text.CalculateBurst
                0x800028b8       0x1c Srouce/Application/radio/ambe.o
                0x800028b8                CalculateBurst
 .text.payload_init
                0x800028d4       0x38 Srouce/Application/radio/payload.o
                0x800028d4                payload_init
 .text.payload_rx_process
                0x8000290c       0x4c Srouce/Application/radio/payload.o
 .text.set_idle_store_isr
                0x80002958       0x1c Srouce/Application/radio/physical.o
                0x80002958                set_idle_store_isr
 .text.phy_rx   0x80002974       0x38 Srouce/Application/radio/physical.o
                0x80002974                phy_rx
 .text.set_idle_store
                0x800029ac       0x20 Srouce/Application/radio/physical.o
                0x800029ac                set_idle_store
 .text.phy_tx   0x800029cc       0x5c Srouce/Application/radio/physical.o
                0x800029cc                phy_tx
 .text.get_idle_store_isr
                0x80002a28       0x28 Srouce/Application/radio/physical.o
                0x80002a28                get_idle_store_isr
 .text.phy_tx_func
                0x80002a50      0x778 Srouce/Application/radio/physical.o
 .text.get_idle_store
                0x800031c8       0x28 Srouce/Application/radio/physical.o
                0x800031c8                get_idle_store
 .text.phy_init
                0x800031f0       0xbc Srouce/Application/radio/physical.o
                0x800031f0                phy_init
 .text.payload_rx
                0x800032ac       0x60 Srouce/Application/radio/physical.o
 .text.phy_rx_func
                0x8000330c      0xe90 Srouce/Application/radio/physical.o
 .text.pdca_int_handler
                0x8000419c       0x74 Srouce/Application/radio/ssc.o
 .text.local_start_SSC
                0x80004210       0x44 Srouce/Application/radio/ssc.o
                0x80004210                local_start_SSC
 .text.local_start_PDC
                0x80004254       0x6c Srouce/Application/radio/ssc.o
                0x80004254                local_start_PDC
 .text.register_rx_tx_func
                0x800042c0       0x14 Srouce/Application/radio/ssc.o
                0x800042c0                register_rx_tx_func
 .text.ssc_init
                0x800042d4       0x68 Srouce/Application/radio/ssc.o
                0x800042d4                ssc_init
 .text.xcmp_register_app_list
                0x8000433c        0xc Srouce/Application/radio/xcmp.o
                0x8000433c                xcmp_register_app_list
 .text.xcmp_tx  0x80004348       0x48 Srouce/Application/radio/xcmp.o
 .text.xcmp_audio_route_mic
                0x80004390       0x3c Srouce/Application/radio/xcmp.o
                0x80004390                xcmp_audio_route_mic
 .text.xcmp_DeviceInitializationStatus_request
                0x800043cc       0x40 Srouce/Application/radio/xcmp.o
                0x800043cc                xcmp_DeviceInitializationStatus_request
 .text.xcmp_opcode_not_supported
                0x8000440c       0x24 Srouce/Application/radio/xcmp.o
                0x8000440c                xcmp_opcode_not_supported
 .text.xcmp_exec_func
                0x80004430       0x48 Srouce/Application/radio/xcmp.o
 .text.xcmp_IdleTestTone
                0x80004478       0x60 Srouce/Application/radio/xcmp.o
                0x80004478                xcmp_IdleTestTone
 .text.xcmp_init
                0x800044d8       0x54 Srouce/Application/radio/xcmp.o
                0x800044d8                xcmp_init
 .text.xcmp_rx_process
                0x8000452c       0xfc Srouce/Application/radio/xcmp.o
 .text.xcmp_rx  0x80004628       0x4c Srouce/Application/radio/xcmp.o
 .text.xnl_register_xcmp_func
                0x80004674        0xc Srouce/Application/radio/xnl.o
                0x80004674                xnl_register_xcmp_func
 .text.xnl_get_msg_ack_func
                0x80004680       0x2c Srouce/Application/radio/xnl.o
                0x80004680                xnl_get_msg_ack_func
 .text.xnl_tx_process
                0x800046ac       0xc8 Srouce/Application/radio/xnl.o
 .text.xnl_rx_process
                0x80004774       0x60 Srouce/Application/radio/xnl.o
 .text.xnl_tx   0x800047d4       0xe4 Srouce/Application/radio/xnl.o
                0x800047d4                xnl_tx
 .text.xnl_init
                0x800048b8       0xd4 Srouce/Application/radio/xnl.o
                0x800048b8                xnl_init
 .text.xnl_data_msg_func
                0x8000498c       0x60 Srouce/Application/radio/xnl.o
                0x8000498c                xnl_data_msg_func
 .text.xnl_device_auth_reply_func
                0x800049ec      0x120 Srouce/Application/radio/xnl.o
                0x800049ec                xnl_device_auth_reply_func
 .text.xnl_master_status_brdcst_func
                0x80004b0c       0x60 Srouce/Application/radio/xnl.o
                0x80004b0c                xnl_master_status_brdcst_func
 .text.xnl_device_conn_reply_func
                0x80004b6c       0x68 Srouce/Application/radio/xnl.o
                0x80004b6c                xnl_device_conn_reply_func
 .text.local_start_pll0
                0x80004bd4       0x50 Srouce/Application/rtc/rtc.o
                0x80004bd4                local_start_pll0
 .text.rtc_init
                0x80004c24       0x8c Srouce/Application/rtc/rtc.o
                0x80004c24                rtc_init
 .text.local_start_timer
                0x80004cb0       0x3a Srouce/Application/timers/timer.o
                0x80004cb0                local_start_timer
 *fill*         0x80004cea        0x2 d703d703
 .text.tc_init  0x80004cec       0x60 Srouce/Application/timers/timer.o
                0x80004cec                tc_init
 .text._tc_interrupt
                0x80004d4c       0x20 Srouce/Application/timers/timer.o
 .text._unhandled_interrupt
                0x80004d6c        0x2 Srouce/ASF/avr32/drivers/intc/intc.o
 *fill*         0x80004d6e        0x2 d703d703
 .text.INTC_register_interrupt
                0x80004d70       0x80 Srouce/ASF/avr32/drivers/intc/intc.o
                0x80004d70                INTC_register_interrupt
 .text.INTC_init_interrupts
                0x80004df0       0x54 Srouce/ASF/avr32/drivers/intc/intc.o
                0x80004df0                INTC_init_interrupts
 .text._get_interrupt_handler
                0x80004e44       0x38 Srouce/ASF/avr32/drivers/intc/intc.o
                0x80004e44                _get_interrupt_handler
 .text.tc_init_waveform
                0x80004e7c       0x9c Srouce/ASF/avr32/drivers/tc/tc.o
                0x80004e7c                tc_init_waveform
 .text.tc_start
                0x80004f18       0x12 Srouce/ASF/avr32/drivers/tc/tc.o
                0x80004f18                tc_start
 .text.tc_read_sr
                0x80004f2a       0x12 Srouce/ASF/avr32/drivers/tc/tc.o
                0x80004f2a                tc_read_sr
 .text.tc_write_rc
                0x80004f3c       0x34 Srouce/ASF/avr32/drivers/tc/tc.o
                0x80004f3c                tc_write_rc
 .text.tc_configure_interrupts
                0x80004f70      0x108 Srouce/ASF/avr32/drivers/tc/tc.o
                0x80004f70                tc_configure_interrupts
 .text.twi_master_interrupt_handler
                0x80005078       0xbc Srouce/ASF/avr32/drivers/twi/twi.o
 .text.twi_master_init
                0x80005134       0x94 Srouce/ASF/avr32/drivers/twi/twi.o
                0x80005134                twi_master_init
 .text.usart_set_async_baudrate
                0x800051c8       0x5a Srouce/ASF/avr32/drivers/usart/usart.o
 .text.usart_write_char
                0x80005222       0x14 Srouce/ASF/avr32/drivers/usart/usart.o
                0x80005222                usart_write_char
 *fill*         0x80005236        0x2 d703d703
 .text.usart_putchar
                0x80005238       0x2c Srouce/ASF/avr32/drivers/usart/usart.o
                0x80005238                usart_putchar
 .text.usart_read_char
                0x80005264       0x22 Srouce/ASF/avr32/drivers/usart/usart.o
                0x80005264                usart_read_char
 *fill*         0x80005286        0x2 d703d703
 .text.usart_getchar
                0x80005288       0x2c Srouce/ASF/avr32/drivers/usart/usart.o
                0x80005288                usart_getchar
 .text.usart_write_line
                0x800052b4       0x24 Srouce/ASF/avr32/drivers/usart/usart.o
                0x800052b4                usart_write_line
 .text.usart_reset
                0x800052d8       0x2c Srouce/ASF/avr32/drivers/usart/usart.o
                0x800052d8                usart_reset
 .text.usart_init_rs232
                0x80005304       0xcc Srouce/ASF/avr32/drivers/usart/usart.o
                0x80005304                usart_init_rs232
 .text.vListInitialise
                0x800053d0       0x14 Srouce/ASF/thirdparty/freertos/freertos-7.0.0/source/list.o
                0x800053d0                vListInitialise
 .text.vListInitialiseItem
                0x800053e4        0x6 Srouce/ASF/thirdparty/freertos/freertos-7.0.0/source/list.o
                0x800053e4                vListInitialiseItem
 .text.vListInsertEnd
                0x800053ea       0x1c Srouce/ASF/thirdparty/freertos/freertos-7.0.0/source/list.o
                0x800053ea                vListInsertEnd
 .text.vListInsert
                0x80005406       0x34 Srouce/ASF/thirdparty/freertos/freertos-7.0.0/source/list.o
                0x80005406                vListInsert
 .text.vListRemove
                0x8000543a       0x26 Srouce/ASF/thirdparty/freertos/freertos-7.0.0/source/list.o
                0x8000543a                vListRemove
 .text.pxPortInitialiseStack
                0x80005460       0x92 Srouce/ASF/thirdparty/freertos/freertos-7.0.0/source/portable/gcc/avr32_uc3/port.o
                0x80005460                pxPortInitialiseStack
 *fill*         0x800054f2        0x2 d703d703
 .text.vPortEnterCritical
                0x800054f4       0x10 Srouce/ASF/thirdparty/freertos/freertos-7.0.0/source/portable/gcc/avr32_uc3/port.o
                0x800054f4                vPortEnterCritical
 .text.xPortStartScheduler
                0x80005504       0x58 Srouce/ASF/thirdparty/freertos/freertos-7.0.0/source/portable/gcc/avr32_uc3/port.o
                0x80005504                xPortStartScheduler
 .text.SCALLYield
                0x8000555c       0x98 Srouce/ASF/thirdparty/freertos/freertos-7.0.0/source/portable/gcc/avr32_uc3/port.o
                0x8000555c                SCALLYield
 .text.prvClearCcInt
                0x800055f4        0xa Srouce/ASF/thirdparty/freertos/freertos-7.0.0/source/portable/gcc/avr32_uc3/port.o
 *fill*         0x800055fe        0x2 d703d703
 .text.vPortExitCritical
                0x80005600       0x20 Srouce/ASF/thirdparty/freertos/freertos-7.0.0/source/portable/gcc/avr32_uc3/port.o
                0x80005600                vPortExitCritical
 .text.vTick    0x80005620       0x84 Srouce/ASF/thirdparty/freertos/freertos-7.0.0/source/portable/gcc/avr32_uc3/port.o
 .text.__malloc_lock
                0x800056a4        0xc Srouce/ASF/thirdparty/freertos/freertos-7.0.0/source/portable/gcc/avr32_uc3/port.o
                0x800056a4                __malloc_lock
 .text.__malloc_unlock
                0x800056b0        0xc Srouce/ASF/thirdparty/freertos/freertos-7.0.0/source/portable/gcc/avr32_uc3/port.o
                0x800056b0                __malloc_unlock
 .text._read    0x800056bc       0x40 Srouce/ASF/thirdparty/freertos/freertos-7.0.0/source/portable/gcc/avr32_uc3/read.o
                0x800056bc                _read
 .text._write   0x800056fc       0x3c Srouce/ASF/thirdparty/freertos/freertos-7.0.0/source/portable/gcc/avr32_uc3/write.o
                0x800056fc                _write
 .text.vPortFree
                0x80005738       0x28 Srouce/ASF/thirdparty/freertos/freertos-7.0.0/source/portable/memmang/heap_3.o
                0x80005738                vPortFree
 .text.pvPortMalloc
                0x80005760       0x28 Srouce/ASF/thirdparty/freertos/freertos-7.0.0/source/portable/memmang/heap_3.o
                0x80005760                pvPortMalloc
 .text.prvCopyDataFromQueue
                0x80005788       0x30 Srouce/ASF/thirdparty/freertos/freertos-7.0.0/source/queue.o
 .text.xQueueReceiveFromISR
                0x800057b8       0x50 Srouce/ASF/thirdparty/freertos/freertos-7.0.0/source/queue.o
                0x800057b8                xQueueReceiveFromISR
 .text.prvUnlockQueue
                0x80005808       0xa0 Srouce/ASF/thirdparty/freertos/freertos-7.0.0/source/queue.o
 .text.xQueueGenericReceive
                0x800058a8      0x144 Srouce/ASF/thirdparty/freertos/freertos-7.0.0/source/queue.o
                0x800058a8                xQueueGenericReceive
 .text.prvCopyDataToQueue
                0x800059ec       0x78 Srouce/ASF/thirdparty/freertos/freertos-7.0.0/source/queue.o
 .text.xQueueGenericSendFromISR
                0x80005a64       0x50 Srouce/ASF/thirdparty/freertos/freertos-7.0.0/source/queue.o
                0x80005a64                xQueueGenericSendFromISR
 .text.xQueueGenericSend
                0x80005ab4      0x100 Srouce/ASF/thirdparty/freertos/freertos-7.0.0/source/queue.o
                0x80005ab4                xQueueGenericSend
 .text.xQueueCreateMutex
                0x80005bb4       0x58 Srouce/ASF/thirdparty/freertos/freertos-7.0.0/source/queue.o
                0x80005bb4                xQueueCreateMutex
 .text.xQueueCreate
                0x80005c0c       0x74 Srouce/ASF/thirdparty/freertos/freertos-7.0.0/source/queue.o
                0x80005c0c                xQueueCreate
 .text.vTaskSuspendAll
                0x80005c80       0x10 Srouce/ASF/thirdparty/freertos/freertos-7.0.0/source/tasks.o
                0x80005c80                vTaskSuspendAll
 .text.vTaskSwitchContext
                0x80005c90       0x7c Srouce/ASF/thirdparty/freertos/freertos-7.0.0/source/tasks.o
                0x80005c90                vTaskSwitchContext
 .text.vTaskSetTimeOutState
                0x80005d0c       0x18 Srouce/ASF/thirdparty/freertos/freertos-7.0.0/source/tasks.o
                0x80005d0c                vTaskSetTimeOutState
 .text.vTaskMissedYield
                0x80005d24        0xc Srouce/ASF/thirdparty/freertos/freertos-7.0.0/source/tasks.o
                0x80005d24                vTaskMissedYield
 .text.xTaskGetCurrentTaskHandle
                0x80005d30        0xc Srouce/ASF/thirdparty/freertos/freertos-7.0.0/source/tasks.o
                0x80005d30                xTaskGetCurrentTaskHandle
 .text.vTaskPriorityDisinherit
                0x80005d3c       0x58 Srouce/ASF/thirdparty/freertos/freertos-7.0.0/source/tasks.o
                0x80005d3c                vTaskPriorityDisinherit
 .text.vTaskPriorityInherit
                0x80005d94       0x84 Srouce/ASF/thirdparty/freertos/freertos-7.0.0/source/tasks.o
                0x80005d94                vTaskPriorityInherit
 .text.xTaskRemoveFromEventList
                0x80005e18       0x7c Srouce/ASF/thirdparty/freertos/freertos-7.0.0/source/tasks.o
                0x80005e18                xTaskRemoveFromEventList
 .text.vTaskIncrementTick
                0x80005e94      0x114 Srouce/ASF/thirdparty/freertos/freertos-7.0.0/source/tasks.o
                0x80005e94                vTaskIncrementTick
 .text.xTaskCheckForTimeOut
                0x80005fa8       0x70 Srouce/ASF/thirdparty/freertos/freertos-7.0.0/source/tasks.o
                0x80005fa8                xTaskCheckForTimeOut
 .text.xTaskGetTickCount
                0x80006018       0x24 Srouce/ASF/thirdparty/freertos/freertos-7.0.0/source/tasks.o
                0x80006018                xTaskGetTickCount
 .text.xTaskResumeAll
                0x8000603c       0xe8 Srouce/ASF/thirdparty/freertos/freertos-7.0.0/source/tasks.o
                0x8000603c                xTaskResumeAll
 .text.prvAddCurrentTaskToDelayedList
                0x80006124       0x5c Srouce/ASF/thirdparty/freertos/freertos-7.0.0/source/tasks.o
 .text.vTaskDelayUntil
                0x80006180       0x80 Srouce/ASF/thirdparty/freertos/freertos-7.0.0/source/tasks.o
                0x80006180                vTaskDelayUntil
 .text.vTaskPlaceOnEventList
                0x80006200       0x58 Srouce/ASF/thirdparty/freertos/freertos-7.0.0/source/tasks.o
                0x80006200                vTaskPlaceOnEventList
 .text.prvIdleTask
                0x80006258       0x88 Srouce/ASF/thirdparty/freertos/freertos-7.0.0/source/tasks.o
 .text.xTaskGenericCreate
                0x800062e0      0x1e8 Srouce/ASF/thirdparty/freertos/freertos-7.0.0/source/tasks.o
                0x800062e0                xTaskGenericCreate
 .text.vTaskStartScheduler
                0x800064c8       0x4c Srouce/ASF/thirdparty/freertos/freertos-7.0.0/source/tasks.o
                0x800064c8                vTaskStartScheduler
 .text.PrintChar
                0x80006514        0x4 Srouce/Log/log.o
                0x80006514                PrintChar
 .text.PrintHex
                0x80006518       0xb2 Srouce/Log/log.o
                0x80006518                PrintHex
 .text.PrintDec
                0x800065ca       0xda Srouce/Log/log.o
                0x800065ca                PrintDec
 .text.log      0x800066a4      0x18c Srouce/Log/log.o
                0x800066a4                log
 .text.logFromISR
                0x80006830      0x180 Srouce/Log/log.o
                0x80006830                logFromISR
 .text.log_init
                0x800069b0       0x68 Srouce/Log/log.o
                0x800069b0                log_init
 .text.task_log
                0x80006a18       0x44 Srouce/Log/log.o
 .text.main     0x80006a5c       0x8c Srouce/main.o
                0x80006a5c                main
 .text.gpio_enable_module_pin
                0x80006ae8       0x52 Srouce/ASF/avr32/drivers/gpio/gpio.o
                0x80006ae8                gpio_enable_module_pin
 *fill*         0x80006b3a        0x2 d703d703
 .text.gpio_enable_module
                0x80006b3c       0x30 Srouce/ASF/avr32/drivers/gpio/gpio.o
                0x80006b3c                gpio_enable_module
 .text._stext   0x80006b6c       0x40 Srouce/ASF/avr32/utils/startup/startup_uc3.o
                                 0x50 (size before relaxing)
                0x80006b6c                _stext
 .text.free     0x80006bac       0x10 d:/program files (x86)/atmel/studio/7.0/toolchain/avr32/avr32-gnu-toolchain/bin/../lib/gcc/avr32/4.4.7/../../../../avr32/lib/ucr2\libc.a(lib_a-malloc.o)
                                 0x18 (size before relaxing)
                0x80006bac                free
 .text.malloc   0x80006bbc       0x10 d:/program files (x86)/atmel/studio/7.0/toolchain/avr32/avr32-gnu-toolchain/bin/../lib/gcc/avr32/4.4.7/../../../../avr32/lib/ucr2\libc.a(lib_a-malloc.o)
                                 0x18 (size before relaxing)
                0x80006bbc                malloc
 .text._malloc_r
                0x80006bcc      0x438 d:/program files (x86)/atmel/studio/7.0/toolchain/avr32/avr32-gnu-toolchain/bin/../lib/gcc/avr32/4.4.7/../../../../avr32/lib/ucr2\libc.a(lib_a-mallocr.o)
                                0x450 (size before relaxing)
                0x80006bcc                _malloc_r
 .text          0x80007004      0x148 d:/program files (x86)/atmel/studio/7.0/toolchain/avr32/avr32-gnu-toolchain/bin/../lib/gcc/avr32/4.4.7/../../../../avr32/lib/ucr2\libc.a(lib_a-memcpy.o)
                0x80007004                memcpy
 .text.memset   0x8000714c        0xe d:/program files (x86)/atmel/studio/7.0/toolchain/avr32/avr32-gnu-toolchain/bin/../lib/gcc/avr32/4.4.7/../../../../avr32/lib/ucr2\libc.a(lib_a-memset.o)
                0x8000714c                memset
 *fill*         0x8000715a        0x2 d703d703
 .text._realloc_r
                0x8000715c      0x2c0 d:/program files (x86)/atmel/studio/7.0/toolchain/avr32/avr32-gnu-toolchain/bin/../lib/gcc/avr32/4.4.7/../../../../avr32/lib/ucr2\libc.a(lib_a-reallocr.o)
                                0x2e0 (size before relaxing)
                0x8000715c                _realloc_r
 .text._sbrk_r  0x8000741c       0x20 d:/program files (x86)/atmel/studio/7.0/toolchain/avr32/avr32-gnu-toolchain/bin/../lib/gcc/avr32/4.4.7/../../../../avr32/lib/ucr2\libc.a(lib_a-sbrkr.o)
                                 0x28 (size before relaxing)
                0x8000741c                _sbrk_r
 .text.sprintf  0x8000743c       0x3c d:/program files (x86)/atmel/studio/7.0/toolchain/avr32/avr32-gnu-toolchain/bin/../lib/gcc/avr32/4.4.7/../../../../avr32/lib/ucr2\libc.a(lib_a-sprintf.o)
                                 0x40 (size before relaxing)
                0x8000743c                sprintf
 .text.strlen   0x80007478       0x16 d:/program files (x86)/atmel/studio/7.0/toolchain/avr32/avr32-gnu-toolchain/bin/../lib/gcc/avr32/4.4.7/../../../../avr32/lib/ucr2\libc.a(lib_a-strlen.o)
                0x80007478                strlen
 *fill*         0x8000748e        0x2 d703d703
 .text          0x80007490       0x20 d:/program files (x86)/atmel/studio/7.0/toolchain/avr32/avr32-gnu-toolchain/bin/../lib/gcc/avr32/4.4.7/../../../../avr32/lib/ucr2\libc.a(lib_a-strncpy.o)
                0x80007490                strncpy
 .text._close   0x800074b0       0x14 d:/program files (x86)/atmel/studio/7.0/toolchain/avr32/avr32-gnu-toolchain/bin/../lib/gcc/avr32/4.4.7/../../../../avr32/lib/ucr2\libc.a(lib_a-syscalls.o)
                                 0x18 (size before relaxing)
                0x800074b0                _close
 .text._lseek   0x800074c4       0x14 d:/program files (x86)/atmel/studio/7.0/toolchain/avr32/avr32-gnu-toolchain/bin/../lib/gcc/avr32/4.4.7/../../../../avr32/lib/ucr2\libc.a(lib_a-syscalls.o)
                                 0x18 (size before relaxing)
                0x800074c4                _lseek
 .text.isatty   0x800074d8       0x14 d:/program files (x86)/atmel/studio/7.0/toolchain/avr32/avr32-gnu-toolchain/bin/../lib/gcc/avr32/4.4.7/../../../../avr32/lib/ucr2\libc.a(lib_a-syscalls.o)
                                 0x18 (size before relaxing)
                0x800074d8                isatty
 .text._fstat_host
                0x800074ec       0x14 d:/program files (x86)/atmel/studio/7.0/toolchain/avr32/avr32-gnu-toolchain/bin/../lib/gcc/avr32/4.4.7/../../../../avr32/lib/ucr2\libc.a(lib_a-syscalls.o)
                                 0x18 (size before relaxing)
                0x800074ec                _fstat_host
 .text._fstat   0x80007500       0x4c d:/program files (x86)/atmel/studio/7.0/toolchain/avr32/avr32-gnu-toolchain/bin/../lib/gcc/avr32/4.4.7/../../../../avr32/lib/ucr2\libc.a(lib_a-syscalls.o)
                                 0x50 (size before relaxing)
                0x80007500                _fstat
 .text._sbrk    0x8000754c       0x38 d:/program files (x86)/atmel/studio/7.0/toolchain/avr32/avr32-gnu-toolchain/bin/../lib/gcc/avr32/4.4.7/../../../../avr32/lib/ucr2\libc.a(lib_a-syscalls.o)
                                 0x40 (size before relaxing)
                0x8000754c                _sbrk
 .text.get_arg  0x80007584      0x320 d:/program files (x86)/atmel/studio/7.0/toolchain/avr32/avr32-gnu-toolchain/bin/../lib/gcc/avr32/4.4.7/../../../../avr32/lib/ucr2\libc.a(lib_a-vfprintf.o)
                                0x324 (size before relaxing)
 .text.__sprint_r
                0x800078a4       0x1c d:/program files (x86)/atmel/studio/7.0/toolchain/avr32/avr32-gnu-toolchain/bin/../lib/gcc/avr32/4.4.7/../../../../avr32/lib/ucr2\libc.a(lib_a-vfprintf.o)
                                 0x20 (size before relaxing)
 .text._vfprintf_r
                0x800078c0     0x1f2c d:/program files (x86)/atmel/studio/7.0/toolchain/avr32/avr32-gnu-toolchain/bin/../lib/gcc/avr32/4.4.7/../../../../avr32/lib/ucr2\libc.a(lib_a-vfprintf.o)
                               0x1f9c (size before relaxing)
                0x800078c0                _vfprintf_r
 .text.__swsetup_r
                0x800097ec       0xe0 d:/program files (x86)/atmel/studio/7.0/toolchain/avr32/avr32-gnu-toolchain/bin/../lib/gcc/avr32/4.4.7/../../../../avr32/lib/ucr2\libc.a(lib_a-wsetup.o)
                                 0xe8 (size before relaxing)
                0x800097ec                __swsetup_r
 .text.quorem   0x800098cc      0x120 d:/program files (x86)/atmel/studio/7.0/toolchain/avr32/avr32-gnu-toolchain/bin/../lib/gcc/avr32/4.4.7/../../../../avr32/lib/ucr2\libc.a(lib_a-dtoa.o)
                                0x124 (size before relaxing)
 .text._dtoa_r  0x800099ec      0xbe0 d:/program files (x86)/atmel/studio/7.0/toolchain/avr32/avr32-gnu-toolchain/bin/../lib/gcc/avr32/4.4.7/../../../../avr32/lib/ucr2\libc.a(lib_a-dtoa.o)
                                0xc90 (size before relaxing)
                0x800099ec                _dtoa_r
 .text.__errno  0x8000a5cc        0xc d:/program files (x86)/atmel/studio/7.0/toolchain/avr32/avr32-gnu-toolchain/bin/../lib/gcc/avr32/4.4.7/../../../../avr32/lib/ucr2\libc.a(lib_a-errno.o)
                0x8000a5cc                __errno
 .text._fflush_r
                0x8000a5d8      0x110 d:/program files (x86)/atmel/studio/7.0/toolchain/avr32/avr32-gnu-toolchain/bin/../lib/gcc/avr32/4.4.7/../../../../avr32/lib/ucr2\libc.a(lib_a-fflush.o)
                                0x118 (size before relaxing)
                0x8000a5d8                _fflush_r
 .text.__sfp_lock_acquire
                0x8000a6e8        0x2 d:/program files (x86)/atmel/studio/7.0/toolchain/avr32/avr32-gnu-toolchain/bin/../lib/gcc/avr32/4.4.7/../../../../avr32/lib/ucr2\libc.a(lib_a-findfp.o)
                0x8000a6e8                __sfp_lock_acquire
 .text.__sfp_lock_release
                0x8000a6ea        0x2 d:/program files (x86)/atmel/studio/7.0/toolchain/avr32/avr32-gnu-toolchain/bin/../lib/gcc/avr32/4.4.7/../../../../avr32/lib/ucr2\libc.a(lib_a-findfp.o)
                0x8000a6ea                __sfp_lock_release
 .text._cleanup_r
                0x8000a6ec        0xc d:/program files (x86)/atmel/studio/7.0/toolchain/avr32/avr32-gnu-toolchain/bin/../lib/gcc/avr32/4.4.7/../../../../avr32/lib/ucr2\libc.a(lib_a-findfp.o)
                                 0x14 (size before relaxing)
                0x8000a6ec                _cleanup_r
 .text.__sfmoreglue
                0x8000a6f8       0x28 d:/program files (x86)/atmel/studio/7.0/toolchain/avr32/avr32-gnu-toolchain/bin/../lib/gcc/avr32/4.4.7/../../../../avr32/lib/ucr2\libc.a(lib_a-findfp.o)
                                 0x30 (size before relaxing)
                0x8000a6f8                __sfmoreglue
 .text.__sfp    0x8000a720       0x70 d:/program files (x86)/atmel/studio/7.0/toolchain/avr32/avr32-gnu-toolchain/bin/../lib/gcc/avr32/4.4.7/../../../../avr32/lib/ucr2\libc.a(lib_a-findfp.o)
                                 0x7c (size before relaxing)
                0x8000a720                __sfp
 .text.__sinit  0x8000a790       0x9c d:/program files (x86)/atmel/studio/7.0/toolchain/avr32/avr32-gnu-toolchain/bin/../lib/gcc/avr32/4.4.7/../../../../avr32/lib/ucr2\libc.a(lib_a-findfp.o)
                                 0xb0 (size before relaxing)
                0x8000a790                __sinit
 .text._malloc_trim_r
                0x8000a82c       0x98 d:/program files (x86)/atmel/studio/7.0/toolchain/avr32/avr32-gnu-toolchain/bin/../lib/gcc/avr32/4.4.7/../../../../avr32/lib/ucr2\libc.a(lib_a-freer.o)
                                 0xa8 (size before relaxing)
                0x8000a82c                _malloc_trim_r
 .text._free_r  0x8000a8c4      0x18c d:/program files (x86)/atmel/studio/7.0/toolchain/avr32/avr32-gnu-toolchain/bin/../lib/gcc/avr32/4.4.7/../../../../avr32/lib/ucr2\libc.a(lib_a-freer.o)
                                0x1a0 (size before relaxing)
                0x8000a8c4                _free_r
 .text.__sfvwrite_r
                0x8000aa50      0x294 d:/program files (x86)/atmel/studio/7.0/toolchain/avr32/avr32-gnu-toolchain/bin/../lib/gcc/avr32/4.4.7/../../../../avr32/lib/ucr2\libc.a(lib_a-fvwrite.o)
                                0x2c4 (size before relaxing)
                0x8000aa50                __sfvwrite_r
 .text._fwalk   0x8000ace4       0x4c d:/program files (x86)/atmel/studio/7.0/toolchain/avr32/avr32-gnu-toolchain/bin/../lib/gcc/avr32/4.4.7/../../../../avr32/lib/ucr2\libc.a(lib_a-fwalk.o)
                                 0x54 (size before relaxing)
                0x8000ace4                _fwalk
 .text._localeconv_r
                0x8000ad30        0x8 d:/program files (x86)/atmel/studio/7.0/toolchain/avr32/avr32-gnu-toolchain/bin/../lib/gcc/avr32/4.4.7/../../../../avr32/lib/ucr2\libc.a(lib_a-locale.o)
                0x8000ad30                _localeconv_r
 .text.__smakebuf_r
                0x8000ad38       0xbc d:/program files (x86)/atmel/studio/7.0/toolchain/avr32/avr32-gnu-toolchain/bin/../lib/gcc/avr32/4.4.7/../../../../avr32/lib/ucr2\libc.a(lib_a-makebuf.o)
                                 0xcc (size before relaxing)
                0x8000ad38                __smakebuf_r
 .text.memchr   0x8000adf4       0x16 d:/program files (x86)/atmel/studio/7.0/toolchain/avr32/avr32-gnu-toolchain/bin/../lib/gcc/avr32/4.4.7/../../../../avr32/lib/ucr2\libc.a(lib_a-memchr.o)
                0x8000adf4                memchr
 .text.memmove  0x8000ae0a       0x3e d:/program files (x86)/atmel/studio/7.0/toolchain/avr32/avr32-gnu-toolchain/bin/../lib/gcc/avr32/4.4.7/../../../../avr32/lib/ucr2\libc.a(lib_a-memmove.o)
                0x8000ae0a                memmove
 .text.__hi0bits
                0x8000ae48       0x60 d:/program files (x86)/atmel/studio/7.0/toolchain/avr32/avr32-gnu-toolchain/bin/../lib/gcc/avr32/4.4.7/../../../../avr32/lib/ucr2\libc.a(lib_a-mprec.o)
                0x8000ae48                __hi0bits
 .text.__lo0bits
                0x8000aea8       0x8e d:/program files (x86)/atmel/studio/7.0/toolchain/avr32/avr32-gnu-toolchain/bin/../lib/gcc/avr32/4.4.7/../../../../avr32/lib/ucr2\libc.a(lib_a-mprec.o)
                0x8000aea8                __lo0bits
 .text.__mcmp   0x8000af36       0x32 d:/program files (x86)/atmel/studio/7.0/toolchain/avr32/avr32-gnu-toolchain/bin/../lib/gcc/avr32/4.4.7/../../../../avr32/lib/ucr2\libc.a(lib_a-mprec.o)
                0x8000af36                __mcmp
 .text._Bfree   0x8000af68       0x34 d:/program files (x86)/atmel/studio/7.0/toolchain/avr32/avr32-gnu-toolchain/bin/../lib/gcc/avr32/4.4.7/../../../../avr32/lib/ucr2\libc.a(lib_a-mprec.o)
                                 0x38 (size before relaxing)
                0x8000af68                _Bfree
 .text._Balloc  0x8000af9c       0x70 d:/program files (x86)/atmel/studio/7.0/toolchain/avr32/avr32-gnu-toolchain/bin/../lib/gcc/avr32/4.4.7/../../../../avr32/lib/ucr2\libc.a(lib_a-mprec.o)
                                 0x78 (size before relaxing)
                0x8000af9c                _Balloc
 .text.__d2b    0x8000b00c       0xa0 d:/program files (x86)/atmel/studio/7.0/toolchain/avr32/avr32-gnu-toolchain/bin/../lib/gcc/avr32/4.4.7/../../../../avr32/lib/ucr2\libc.a(lib_a-mprec.o)
                                 0xb4 (size before relaxing)
                0x8000b00c                __d2b
 .text.__mdiff  0x8000b0ac       0xd0 d:/program files (x86)/atmel/studio/7.0/toolchain/avr32/avr32-gnu-toolchain/bin/../lib/gcc/avr32/4.4.7/../../../../avr32/lib/ucr2\libc.a(lib_a-mprec.o)
                                 0xd8 (size before relaxing)
                0x8000b0ac                __mdiff
 .text.__lshift
                0x8000b17c       0x88 d:/program files (x86)/atmel/studio/7.0/toolchain/avr32/avr32-gnu-toolchain/bin/../lib/gcc/avr32/4.4.7/../../../../avr32/lib/ucr2\libc.a(lib_a-mprec.o)
                                 0x94 (size before relaxing)
                0x8000b17c                __lshift
 .text.__multiply
                0x8000b204      0x100 d:/program files (x86)/atmel/studio/7.0/toolchain/avr32/avr32-gnu-toolchain/bin/../lib/gcc/avr32/4.4.7/../../../../avr32/lib/ucr2\libc.a(lib_a-mprec.o)
                                0x108 (size before relaxing)
                0x8000b204                __multiply
 .text.__i2b    0x8000b304       0x10 d:/program files (x86)/atmel/studio/7.0/toolchain/avr32/avr32-gnu-toolchain/bin/../lib/gcc/avr32/4.4.7/../../../../avr32/lib/ucr2\libc.a(lib_a-mprec.o)
                                 0x18 (size before relaxing)
                0x8000b304                __i2b
 .text.__multadd
                0x8000b314       0x7c d:/program files (x86)/atmel/studio/7.0/toolchain/avr32/avr32-gnu-toolchain/bin/../lib/gcc/avr32/4.4.7/../../../../avr32/lib/ucr2\libc.a(lib_a-mprec.o)
                                 0x88 (size before relaxing)
                0x8000b314                __multadd
 .text.__pow5mult
                0x8000b390       0x90 d:/program files (x86)/atmel/studio/7.0/toolchain/avr32/avr32-gnu-toolchain/bin/../lib/gcc/avr32/4.4.7/../../../../avr32/lib/ucr2\libc.a(lib_a-mprec.o)
                                 0xac (size before relaxing)
                0x8000b390                __pow5mult
 .text.__isinfd
                0x8000b420       0x2a d:/program files (x86)/atmel/studio/7.0/toolchain/avr32/avr32-gnu-toolchain/bin/../lib/gcc/avr32/4.4.7/../../../../avr32/lib/ucr2\libc.a(lib_a-s_isinfd.o)
                0x8000b420                __isinfd
 .text.__isnand
                0x8000b44a       0x1c d:/program files (x86)/atmel/studio/7.0/toolchain/avr32/avr32-gnu-toolchain/bin/../lib/gcc/avr32/4.4.7/../../../../avr32/lib/ucr2\libc.a(lib_a-s_isnand.o)
                0x8000b44a                __isnand
 *fill*         0x8000b466        0x2 d703d703
 .text.__sclose
                0x8000b468        0x8 d:/program files (x86)/atmel/studio/7.0/toolchain/avr32/avr32-gnu-toolchain/bin/../lib/gcc/avr32/4.4.7/../../../../avr32/lib/ucr2\libc.a(lib_a-stdio.o)
                                 0x10 (size before relaxing)
                0x8000b468                __sclose
 .text.__sseek  0x8000b470       0x20 d:/program files (x86)/atmel/studio/7.0/toolchain/avr32/avr32-gnu-toolchain/bin/../lib/gcc/avr32/4.4.7/../../../../avr32/lib/ucr2\libc.a(lib_a-stdio.o)
                                 0x28 (size before relaxing)
                0x8000b470                __sseek
 .text.__swrite
                0x8000b490       0x2c d:/program files (x86)/atmel/studio/7.0/toolchain/avr32/avr32-gnu-toolchain/bin/../lib/gcc/avr32/4.4.7/../../../../avr32/lib/ucr2\libc.a(lib_a-stdio.o)
                                 0x38 (size before relaxing)
                0x8000b490                __swrite
 .text.__sread  0x8000b4bc       0x1c d:/program files (x86)/atmel/studio/7.0/toolchain/avr32/avr32-gnu-toolchain/bin/../lib/gcc/avr32/4.4.7/../../../../avr32/lib/ucr2\libc.a(lib_a-stdio.o)
                                 0x24 (size before relaxing)
                0x8000b4bc                __sread
 .text._write_r
                0x8000b4d8       0x28 d:/program files (x86)/atmel/studio/7.0/toolchain/avr32/avr32-gnu-toolchain/bin/../lib/gcc/avr32/4.4.7/../../../../avr32/lib/ucr2\libc.a(lib_a-writer.o)
                                 0x2c (size before relaxing)
                0x8000b4d8                _write_r
 .text._calloc_r
                0x8000b500       0x58 d:/program files (x86)/atmel/studio/7.0/toolchain/avr32/avr32-gnu-toolchain/bin/../lib/gcc/avr32/4.4.7/../../../../avr32/lib/ucr2\libc.a(lib_a-callocr.o)
                                 0x60 (size before relaxing)
                0x8000b500                _calloc_r
 .text._close_r
                0x8000b558       0x20 d:/program files (x86)/atmel/studio/7.0/toolchain/avr32/avr32-gnu-toolchain/bin/../lib/gcc/avr32/4.4.7/../../../../avr32/lib/ucr2\libc.a(lib_a-closer.o)
                                 0x28 (size before relaxing)
                0x8000b558                _close_r
 .text._fclose_r
                0x8000b578       0xbc d:/program files (x86)/atmel/studio/7.0/toolchain/avr32/avr32-gnu-toolchain/bin/../lib/gcc/avr32/4.4.7/../../../../avr32/lib/ucr2\libc.a(lib_a-fclose.o)
                                 0xd0 (size before relaxing)
                0x8000b578                _fclose_r
 .text.fclose   0x8000b634       0x10 d:/program files (x86)/atmel/studio/7.0/toolchain/avr32/avr32-gnu-toolchain/bin/../lib/gcc/avr32/4.4.7/../../../../avr32/lib/ucr2\libc.a(lib_a-fclose.o)
                                 0x18 (size before relaxing)
                0x8000b634                fclose
 .text._fstat_r
                0x8000b644       0x24 d:/program files (x86)/atmel/studio/7.0/toolchain/avr32/avr32-gnu-toolchain/bin/../lib/gcc/avr32/4.4.7/../../../../avr32/lib/ucr2\libc.a(lib_a-fstatr.o)
                                 0x2c (size before relaxing)
                0x8000b644                _fstat_r
 .text._lseek_r
                0x8000b668       0x28 d:/program files (x86)/atmel/studio/7.0/toolchain/avr32/avr32-gnu-toolchain/bin/../lib/gcc/avr32/4.4.7/../../../../avr32/lib/ucr2\libc.a(lib_a-lseekr.o)
                                 0x2c (size before relaxing)
                0x8000b668                _lseek_r
 .text._read_r  0x8000b690       0x28 d:/program files (x86)/atmel/studio/7.0/toolchain/avr32/avr32-gnu-toolchain/bin/../lib/gcc/avr32/4.4.7/../../../../avr32/lib/ucr2\libc.a(lib_a-readr.o)
                                 0x2c (size before relaxing)
                0x8000b690                _read_r
 .text          0x8000b6b8      0x1d4 d:/program files (x86)/atmel/studio/7.0/toolchain/avr32/avr32-gnu-toolchain/bin/../lib/gcc/avr32/4.4.7/ucr2\libgcc.a(_avr32_f64_mul.o)
                0x8000b6b8                __avr32_f64_mul
 .text          0x8000b88c      0x2b0 d:/program files (x86)/atmel/studio/7.0/toolchain/avr32/avr32-gnu-toolchain/bin/../lib/gcc/avr32/4.4.7/ucr2\libgcc.a(_avr32_f64_addsub.o)
                0x8000b890                __avr32_f64_sub
                0x8000ba2c                __avr32_f64_add
 .text          0x8000bb3c       0x2a d:/program files (x86)/atmel/studio/7.0/toolchain/avr32/avr32-gnu-toolchain/bin/../lib/gcc/avr32/4.4.7/ucr2\libgcc.a(_avr32_f64_to_s32.o)
                0x8000bb3c                __avr32_f64_to_u32
                0x8000bb40                __avr32_f64_to_s32
 .text          0x8000bb66       0xe8 d:/program files (x86)/atmel/studio/7.0/toolchain/avr32/avr32-gnu-toolchain/bin/../lib/gcc/avr32/4.4.7/ucr2\libgcc.a(_avr32_s32_to_f64.o)
                0x8000bb66                __avr32_u32_to_f64
                0x8000bb6e                __avr32_s32_to_f64
 .text          0x8000bc4e       0x26 d:/program files (x86)/atmel/studio/7.0/toolchain/avr32/avr32-gnu-toolchain/bin/../lib/gcc/avr32/4.4.7/ucr2\libgcc.a(_avr32_f64_cmp_eq.o)
                0x8000bc4e                __avr32_f64_cmp_eq
 .text          0x8000bc74       0x68 d:/program files (x86)/atmel/studio/7.0/toolchain/avr32/avr32-gnu-toolchain/bin/../lib/gcc/avr32/4.4.7/ucr2\libgcc.a(_avr32_f64_cmp_ge.o)
                0x8000bc74                __avr32_f64_cmp_ge
 .text          0x8000bcdc       0x68 d:/program files (x86)/atmel/studio/7.0/toolchain/avr32/avr32-gnu-toolchain/bin/../lib/gcc/avr32/4.4.7/ucr2\libgcc.a(_avr32_f64_cmp_lt.o)
                0x8000bcdc                __avr32_f64_cmp_lt
 .text          0x8000bd44      0x318 d:/program files (x86)/atmel/studio/7.0/toolchain/avr32/avr32-gnu-toolchain/bin/../lib/gcc/avr32/4.4.7/ucr2\libgcc.a(_avr32_f64_div.o)
                0x8000bd44                __avr32_f64_div
 .text          0x8000c05c      0x264 d:/program files (x86)/atmel/studio/7.0/toolchain/avr32/avr32-gnu-toolchain/bin/../lib/gcc/avr32/4.4.7/ucr2\libgcc.a(_udivdi3.o)
                0x8000c05c                __avr32_udiv64
                0x8000c05c                __udivdi3
 .text          0x8000c2c0      0x20c d:/program files (x86)/atmel/studio/7.0/toolchain/avr32/avr32-gnu-toolchain/bin/../lib/gcc/avr32/4.4.7/ucr2\libgcc.a(_umoddi3.o)
                0x8000c2c0                __avr32_umod64
                0x8000c2c0                __umoddi3
 *(.text.*personality*)
 *(.gnu.warning)

.exception      0x8000c600      0x200
 .exception     0x8000c600      0x200 Srouce/ASF/thirdparty/freertos/freertos-7.0.0/source/portable/gcc/avr32_uc3/exception.o
                0x8000c600                _evba
                0x8000c704                _int0
                0x8000c712                _int1
                0x8000c720                _int2
                0x8000c72e                _int3
                0x8000c73c                ipr_val

.fini
 *(.fini)
                0x8000c800                PROVIDE (__etext, .)
                0x8000c800                PROVIDE (_etext, .)
                0x8000c800                PROVIDE (etext, .)

.rodata         0x8000c800     0x9ab8
 *(.rodata .rodata.* .gnu.linkonce.r.*)
 .rodata.str1.4
                0x8000c800      0x736 Srouce/Application/app/app.o
                                0x738 (size before relaxing)
 *fill*         0x8000cf36        0x2 
 .rodata.CSWTCH.35
                0x8000cf38       0x48 Srouce/Application/radio/ambe.o
 .rodata.AMBE_AudioData
                0x8000cf80      0x5b0 Srouce/Application/radio/AMBE_audio_2.o
                0x8000cf80                AMBE_AudioData
 .rodata.str1.4
                0x8000d530        0xb Srouce/Application/radio/payload.o
                                  0xc (size before relaxing)
 *fill*         0x8000d53b        0x1 
 .rodata.AudioData
                0x8000d53c     0x83b0 Srouce/Application/radio/audio.o
                0x8000d53c                AudioData
 .rodata.str1.4
                0x800158ec       0x5c Srouce/Application/radio/physical.o
 .rodata.str1.4
                0x80015948        0x8 Srouce/Application/radio/xcmp.o
 .rodata.str1.4
                0x80015950       0x19 Srouce/Application/radio/xnl.o
                                 0x24 (size before relaxing)
 *fill*         0x80015969        0x3 
 .rodata.TWI_GPIO_MAP.10354
                0x8001596c       0x10 Srouce/Application/rtc/rtc.o
 .rodata.tc_interrupt.10158
                0x8001597c        0x4 Srouce/Application/timers/timer.o
 .rodata.waveform_opt.10157
                0x80015980        0x8 Srouce/Application/timers/timer.o
 .rodata._int_handler_table
                0x80015988       0x98 Srouce/ASF/avr32/drivers/intc/intc.o
 .rodata.str1.4
                0x80015a20        0x5 Srouce/ASF/thirdparty/freertos/freertos-7.0.0/source/tasks.o
                                  0x8 (size before relaxing)
 *fill*         0x80015a25        0x3 
 .rodata.log    0x80015a28      0x150 Srouce/Log/log.o
 .rodata.logFromISR
                0x80015b78      0x150 Srouce/Log/log.o
 .rodata.USART_OPTIONS.11277
                0x80015cc8        0xc Srouce/Log/log.o
 .rodata.str1.4
                0x80015cd4       0x3c Srouce/Log/log.o
 .rodata.USART_GPIO_MAP.11276
                0x80015d10       0x10 Srouce/Log/log.o
 .rodata.str1.4
                0x80015d20       0x14 Srouce/main.o
 .rodata.get_arg
                0x80015d34       0x3c d:/program files (x86)/atmel/studio/7.0/toolchain/avr32/avr32-gnu-toolchain/bin/../lib/gcc/avr32/4.4.7/../../../../avr32/lib/ucr2\libc.a(lib_a-vfprintf.o)
 .rodata._vfprintf_r
                0x80015d70      0x164 d:/program files (x86)/atmel/studio/7.0/toolchain/avr32/avr32-gnu-toolchain/bin/../lib/gcc/avr32/4.4.7/../../../../avr32/lib/ucr2\libc.a(lib_a-vfprintf.o)
 .rodata.state_table
                0x80015ed4       0x6c d:/program files (x86)/atmel/studio/7.0/toolchain/avr32/avr32-gnu-toolchain/bin/../lib/gcc/avr32/4.4.7/../../../../avr32/lib/ucr2\libc.a(lib_a-vfprintf.o)
 .rodata.action_table
                0x80015f40       0x6c d:/program files (x86)/atmel/studio/7.0/toolchain/avr32/avr32-gnu-toolchain/bin/../lib/gcc/avr32/4.4.7/../../../../avr32/lib/ucr2\libc.a(lib_a-vfprintf.o)
 .rodata.str1.4
                0x80015fac       0x3a d:/program files (x86)/atmel/studio/7.0/toolchain/avr32/avr32-gnu-toolchain/bin/../lib/gcc/avr32/4.4.7/../../../../avr32/lib/ucr2\libc.a(lib_a-vfprintf.o)
                                 0x3c (size before relaxing)
 *fill*         0x80015fe6        0x2 
 .rodata.blanks.3430
                0x80015fe8       0x10 d:/program files (x86)/atmel/studio/7.0/toolchain/avr32/avr32-gnu-toolchain/bin/../lib/gcc/avr32/4.4.7/../../../../avr32/lib/ucr2\libc.a(lib_a-vfprintf.o)
 .rodata.zeroes.3431
                0x80015ff8       0x10 d:/program files (x86)/atmel/studio/7.0/toolchain/avr32/avr32-gnu-toolchain/bin/../lib/gcc/avr32/4.4.7/../../../../avr32/lib/ucr2\libc.a(lib_a-vfprintf.o)
 .rodata.chclass
                0x80016008      0x100 d:/program files (x86)/atmel/studio/7.0/toolchain/avr32/avr32-gnu-toolchain/bin/../lib/gcc/avr32/4.4.7/../../../../avr32/lib/ucr2\libc.a(lib_a-vfprintf.o)
 .rodata.str1.4
                0x80016108       0x10 d:/program files (x86)/atmel/studio/7.0/toolchain/avr32/avr32-gnu-toolchain/bin/../lib/gcc/avr32/4.4.7/../../../../avr32/lib/ucr2\libc.a(lib_a-dtoa.o)
                                 0x14 (size before relaxing)
 .rodata.__sf_fake_stdin
                0x80016118       0x20 d:/program files (x86)/atmel/studio/7.0/toolchain/avr32/avr32-gnu-toolchain/bin/../lib/gcc/avr32/4.4.7/../../../../avr32/lib/ucr2\libc.a(lib_a-findfp.o)
                0x80016118                __sf_fake_stdin
 .rodata.__sf_fake_stdout
                0x80016138       0x20 d:/program files (x86)/atmel/studio/7.0/toolchain/avr32/avr32-gnu-toolchain/bin/../lib/gcc/avr32/4.4.7/../../../../avr32/lib/ucr2\libc.a(lib_a-findfp.o)
                0x80016138                __sf_fake_stdout
 .rodata.__sf_fake_stderr
                0x80016158       0x20 d:/program files (x86)/atmel/studio/7.0/toolchain/avr32/avr32-gnu-toolchain/bin/../lib/gcc/avr32/4.4.7/../../../../avr32/lib/ucr2\libc.a(lib_a-findfp.o)
                0x80016158                __sf_fake_stderr
 .rodata.str1.4
                0x80016178        0x2 d:/program files (x86)/atmel/studio/7.0/toolchain/avr32/avr32-gnu-toolchain/bin/../lib/gcc/avr32/4.4.7/../../../../avr32/lib/ucr2\libc.a(lib_a-impure.o)
                                  0x4 (size before relaxing)
 *fill*         0x8001617a        0x2 
 .rodata._global_impure_ptr
                0x8001617c        0x4 d:/program files (x86)/atmel/studio/7.0/toolchain/avr32/avr32-gnu-toolchain/bin/../lib/gcc/avr32/4.4.7/../../../../avr32/lib/ucr2\libc.a(lib_a-impure.o)
                0x8001617c                _global_impure_ptr
 .rodata.lconv  0x80016180       0x30 d:/program files (x86)/atmel/studio/7.0/toolchain/avr32/avr32-gnu-toolchain/bin/../lib/gcc/avr32/4.4.7/../../../../avr32/lib/ucr2\libc.a(lib_a-locale.o)
 .rodata.str1.4
                0x800161b0        0xc d:/program files (x86)/atmel/studio/7.0/toolchain/avr32/avr32-gnu-toolchain/bin/../lib/gcc/avr32/4.4.7/../../../../avr32/lib/ucr2\libc.a(lib_a-locale.o)
                                 0x18 (size before relaxing)
 .rodata.p05.2471
                0x800161bc        0xc d:/program files (x86)/atmel/studio/7.0/toolchain/avr32/avr32-gnu-toolchain/bin/../lib/gcc/avr32/4.4.7/../../../../avr32/lib/ucr2\libc.a(lib_a-mprec.o)
 .rodata.__mprec_tens
                0x800161c8       0xc8 d:/program files (x86)/atmel/studio/7.0/toolchain/avr32/avr32-gnu-toolchain/bin/../lib/gcc/avr32/4.4.7/../../../../avr32/lib/ucr2\libc.a(lib_a-mprec.o)
                0x800161c8                __mprec_tens
 .rodata.__mprec_bigtens
                0x80016290       0x28 d:/program files (x86)/atmel/studio/7.0/toolchain/avr32/avr32-gnu-toolchain/bin/../lib/gcc/avr32/4.4.7/../../../../avr32/lib/ucr2\libc.a(lib_a-mprec.o)
                0x80016290                __mprec_bigtens

.rodata1
 *(.rodata1)

.eh_frame_hdr
 *(.eh_frame_hdr)

.eh_frame
 *(.eh_frame)

.gcc_except_table
 *(.gcc_except_table)
 *(.gcc_except_table.*)

.lalign         0x800162b8        0x0
                0x800162b8                . = ALIGN (0x8)
                0x800162b8                PROVIDE (_data_lma, .)
                0x00000004                . = ORIGIN (INTRAM)

.dalign         0x00000004        0x4
                0x00000008                . = ALIGN (0x8)
 *fill*         0x00000004        0x4 
                0x00000008                PROVIDE (_data, .)

.eh_frame
 *(.eh_frame)

.gcc_except_table
 *(.gcc_except_table)
 *(.gcc_except_table.*)

.tdata
 *(.tdata .tdata.* .gnu.linkonce.td.*)

.tbss
 *(.tbss .tbss.* .gnu.linkonce.tb.*)
 *(.tcommon)
                0x00000008                PROVIDE (__preinit_array_start, ALIGN (0x4))

.preinit_array
 *(.preinit_array)
                0x00000008                PROVIDE (__preinit_array_end, .)
                0x00000008                PROVIDE (__init_array_start, .)

.init_array
 *(.init_array)
                0x00000008                PROVIDE (__init_array_end, .)
                0x00000008                PROVIDE (__fini_array_start, .)

.fini_array
 *(.fini_array)
                0x00000008                PROVIDE (__fini_array_end, .)

.ctors
 *crtbegin*.o(.ctors)
 *(EXCLUDE_FILE(*crtend*.o) .ctors)
 *(SORT(.ctors.*))
 *(.ctors)

.dtors
 *crtbegin*.o(.dtors)
 *(EXCLUDE_FILE(*crtend*.o) .dtors)
 *(SORT(.dtors.*))
 *(.dtors)

.jcr
 *(.jcr)

.data.rel.ro
 *(.data.rel.ro.local)
 *(.data.rel.ro*)

.dynamic
 *(.dynamic)

.got
 *(.got.plt)
 *(.got)

.ramtext
 *(.ramtext .ramtext.*)

.ddalign        0x00000008        0x0 load address 0x800162b8
                0x00000008                . = ALIGN (0x8)

.data           0x00000008      0xa2c load address 0x800162b8
 *(.data .data.* .gnu.linkonce.d.*)
 .data.the_app_list
                0x00000008      0x4ec Srouce/Application/app/app.o
 .data.xnl_proc_list
                0x000004f4       0x34 Srouce/Application/radio/xnl.o
 .data.ulCriticalNesting
                0x00000528        0x4 Srouce/ASF/thirdparty/freertos/freertos-7.0.0/source/portable/gcc/avr32_uc3/port.o
                0x00000528                ulCriticalNesting
 .data.xNextTaskUnblockTime
                0x0000052c        0x4 Srouce/ASF/thirdparty/freertos/freertos-7.0.0/source/tasks.o
 .data.__malloc_av_
                0x00000530      0x408 d:/program files (x86)/atmel/studio/7.0/toolchain/avr32/avr32-gnu-toolchain/bin/../lib/gcc/avr32/4.4.7/../../../../avr32/lib/ucr2\libc.a(lib_a-mallocr.o)
                0x00000530                __malloc_av_
 .data.__malloc_trim_threshold
                0x00000938        0x4 d:/program files (x86)/atmel/studio/7.0/toolchain/avr32/avr32-gnu-toolchain/bin/../lib/gcc/avr32/4.4.7/../../../../avr32/lib/ucr2\libc.a(lib_a-mallocr.o)
                0x00000938                __malloc_trim_threshold
 .data.__malloc_sbrk_base
                0x0000093c        0x4 d:/program files (x86)/atmel/studio/7.0/toolchain/avr32/avr32-gnu-toolchain/bin/../lib/gcc/avr32/4.4.7/../../../../avr32/lib/ucr2\libc.a(lib_a-mallocr.o)
                0x0000093c                __malloc_sbrk_base
 .data.impure_data
                0x00000940       0xf0 d:/program files (x86)/atmel/studio/7.0/toolchain/avr32/avr32-gnu-toolchain/bin/../lib/gcc/avr32/4.4.7/../../../../avr32/lib/ucr2\libc.a(lib_a-impure.o)
 .data._impure_ptr
                0x00000a30        0x4 d:/program files (x86)/atmel/studio/7.0/toolchain/avr32/avr32-gnu-toolchain/bin/../lib/gcc/avr32/4.4.7/../../../../avr32/lib/ucr2\libc.a(lib_a-impure.o)
                0x00000a30                _impure_ptr
 *(.gnu.linkonce.d.*personality*)

.data1
 *(.data1)

.balign         0x00000a34        0x4 load address 0x80016ce4
                0x00000a38                . = ALIGN (0x8)
 *fill*         0x00000a34        0x4 
                0x00000a38                PROVIDE (_edata, .)
                0x00000a38                PROVIDE (edata, .)
                0x00000a38                __bss_start = .

.bss            0x00000a38     0x36f8
 *(.dynbss)
 *(.bss .bss.* .gnu.linkonce.b.*)
 .bss.AMBE_rx_flag
                0x00000a38        0x1 Srouce/Application/app/app.o
                0x00000a38                AMBE_rx_flag
 .bss.VF_SN     0x00000a39        0x1 Srouce/Application/app/app.o
                0x00000a39                VF_SN
 .bss.times_counter.11514
                0x00000a3a        0x1 Srouce/Application/app/app.o
 .bss.Mic_is_Enabled
                0x00000a3b        0x1 Srouce/Application/app/app.o
                0x00000a3b                Mic_is_Enabled
 .bss.Radio_Transmit_State
                0x00000a3c        0x1 Srouce/Application/app/app.o
                0x00000a3c                Radio_Transmit_State
 *fill*         0x00000a3d        0x3 
 .bss.isAudioRouting.11485
                0x00000a40        0x4 Srouce/Application/app/app.o
 .bss.is_unmute
                0x00000a44        0x1 Srouce/Application/app/app.o
                0x00000a44                is_unmute
 *fill*         0x00000a45        0x3 
 .bss.xLastWakeTime.11486
                0x00000a48        0x4 Srouce/Application/app/app.o
 .bss.AMBE_tx_flag
                0x00000a4c        0x1 Srouce/Application/app/app.o
                0x00000a4c                AMBE_tx_flag
 .bss.Terminator_Flag
                0x00000a4d        0x1 Srouce/Application/app/app.o
                0x00000a4d                Terminator_Flag
 .bss.Silent_flag
                0x00000a4e        0x1 Srouce/Application/app/app.o
                0x00000a4e                Silent_flag
 *fill*         0x00000a4f        0x1 
 .bss.res.11476
                0x00000a50        0x4 Srouce/Application/app/app.o
 .bss.ulIdleCycleCount
                0x00000a54        0x4 Srouce/Application/app/app.o
                0x00000a54                ulIdleCycleCount
 .bss.payload_rx_exec
                0x00000a58        0x4 Srouce/Application/radio/payload.o
                0x00000a58                payload_rx_exec
 .bss.payload_tx_exec
                0x00000a5c        0x4 Srouce/Application/radio/payload.o
                0x00000a5c                payload_tx_exec
 .bss.phy_rx_expexted_length.10708
                0x00000a60        0x2 Srouce/Application/radio/physical.o
 *fill*         0x00000a62        0x2 
 .bss.phy_rx_state.10711
                0x00000a64        0x4 Srouce/Application/radio/physical.o
 .bss.m_RxBurstType
                0x00000a68        0x4 Srouce/Application/radio/physical.o
 .bss.counter.10789
                0x00000a6c        0x4 Srouce/Application/radio/physical.o
 .bss.payload_store_idle
                0x00000a70        0x4 Srouce/Application/radio/physical.o
                0x00000a70                payload_store_idle
 .bss.i.10798   0x00000a74        0x4 Srouce/Application/radio/physical.o
 .bss.phy_ptr.10663
                0x00000a78        0x4 Srouce/Application/radio/physical.o
 .bss.is_first.11029
                0x00000a7c        0x1 Srouce/Application/radio/physical.o
 *fill*         0x00000a7d        0x3 
 .bss.send_num.10797
                0x00000a80        0x4 Srouce/Application/radio/physical.o
 .bss.AMBE_payload_ptr.11028
                0x00000a84        0x4 Srouce/Application/radio/physical.o
 .bss.RxMedia_IsFillingNext16.11022
                0x00000a88        0x4 Srouce/Application/radio/physical.o
 .bss.phy_tx_index.10666
                0x00000a8c        0x1 Srouce/Application/radio/physical.o
 .bss.last_frame.10794
                0x00000a8d        0x1 Srouce/Application/radio/physical.o
 *fill*         0x00000a8e        0x2 
 .bss.AMBE_HT   0x00000a90        0x8 Srouce/Application/radio/physical.o
 .bss.xnl_store_idle
                0x00000a98        0x4 Srouce/Application/radio/physical.o
                0x00000a98                xnl_store_idle
 .bss.Item_Length.11031
                0x00000a9c        0x4 Srouce/Application/radio/physical.o
 .bss.RxAMBE_IsFillingNext8.11023
                0x00000aa0        0x4 Srouce/Application/radio/physical.o
 .bss.index.10795
                0x00000aa4        0x4 Srouce/Application/radio/physical.o
 .bss.AMBEpayload_tx_state.10790
                0x00000aa8        0x4 Srouce/Application/radio/physical.o
 .bss.phy_tx_state.10664
                0x00000aac        0x4 Srouce/Application/radio/physical.o
 .bss.RxMediaState.11021
                0x00000ab0        0x4 Srouce/Application/radio/physical.o
 .bss.payload_ptr.11027
                0x00000ab4        0x4 Srouce/Application/radio/physical.o
 .bss.phy_payload_frame_tx
                0x00000ab8        0x4 Srouce/Application/radio/physical.o
                0x00000ab8                phy_payload_frame_tx
 .bss.phy_frame_ptr.10707
                0x00000abc        0x4 Srouce/Application/radio/physical.o
 .bss.RxData_IsFillingNext16.11024
                0x00000ac0        0x4 Srouce/Application/radio/physical.o
 .bss.phy_rx_count.10712
                0x00000ac4        0x4 Srouce/Application/radio/physical.o
 .bss.frame_number.10792
                0x00000ac8        0x1 Srouce/Application/radio/physical.o
 *fill*         0x00000ac9        0x3 
 .bss.A_index.10796
                0x00000acc        0x4 Srouce/Application/radio/physical.o
 .bss.Item_ID.11030
                0x00000ad0        0x1 Srouce/Application/radio/physical.o
 *fill*         0x00000ad1        0x3 
 .bss.phy_xnl_frame_rx
                0x00000ad4        0x4 Srouce/Application/radio/physical.o
                0x00000ad4                phy_xnl_frame_rx
 .bss.payload_tx_state.10791
                0x00000ad8        0x1 Srouce/Application/radio/physical.o
 *fill*         0x00000ad9        0x3 
 .bss.RxBytesWaiting.11025
                0x00000adc        0x4 Srouce/Application/radio/physical.o
 .bss.phy_tx_expexted_length.10665
                0x00000ae0        0x2 Srouce/Application/radio/physical.o
 *fill*         0x00000ae2        0x2 
 .bss.ArrayDiscLength.11026
                0x00000ae4        0x4 Srouce/Application/radio/physical.o
 .bss.expexted_length.10793
                0x00000ae8        0x2 Srouce/Application/radio/physical.o
 *fill*         0x00000aea        0x2 
 .bss.phy_xnl_frame_tx
                0x00000aec        0x4 Srouce/Application/radio/physical.o
                0x00000aec                phy_xnl_frame_tx
 .bss.phy_check_sum.10710
                0x00000af0        0x2 Srouce/Application/radio/physical.o
 *fill*         0x00000af2        0x2 
 .bss.phy_payload_frame_rx
                0x00000af4        0x4 Srouce/Application/radio/physical.o
                0x00000af4                phy_payload_frame_rx
 .bss.phy_rx_length.10709
                0x00000af8        0x2 Srouce/Application/radio/physical.o
 *fill*         0x00000afa        0x2 
 .bss.phy_rx_exec
                0x00000afc        0x4 Srouce/Application/radio/ssc.o
                0x00000afc                phy_rx_exec
 .bss.phy_tx_exec
                0x00000b00        0x4 Srouce/Application/radio/ssc.o
                0x00000b00                phy_tx_exec
 .bss.version_information
                0x00000b04        0xc Srouce/Application/radio/xcmp.o
                0x00000b04                version_information
 .bss.xcmp_frame_rx
                0x00000b10        0x4 Srouce/Application/radio/xcmp.o
 .bss.clone_write
                0x00000b14        0xc Srouce/Application/radio/xcmp.o
                0x00000b14                clone_write
 .bss.automatic_frequency_correction_control
                0x00000b20        0xc Srouce/Application/radio/xcmp.o
                0x00000b20                automatic_frequency_correction_control
 .bss.clone_read
                0x00000b2c        0xc Srouce/Application/radio/xcmp.o
                0x00000b2c                clone_read
 .bss.language_pack_information
                0x00000b38        0xc Srouce/Application/radio/xcmp.o
                0x00000b38                language_pack_information
 .bss.radio_status
                0x00000b44        0xc Srouce/Application/radio/xcmp.o
                0x00000b44                radio_status
 .bss.xnl_timeout_semphr
                0x00000b50        0x4 Srouce/Application/radio/xnl.o
 .bss.xnl_information
                0x00000b54        0xa Srouce/Application/radio/xnl.o
 *fill*         0x00000b5e        0x2 
 .bss.xnl_send_times.10714
                0x00000b60        0x4 Srouce/Application/radio/xnl.o
 .bss.xnl_frame_tx
                0x00000b64        0x4 Srouce/Application/radio/xnl.o
 .bss.ptr.10715
                0x00000b68        0x4 Srouce/Application/radio/xnl.o
 .bss.flags.10669
                0x00000b6c        0x1 Srouce/Application/radio/xnl.o
 *fill*         0x00000b6d        0x3 
 .bss.xnl_tx_state.10713
                0x00000b70        0x4 Srouce/Application/radio/xnl.o
 .bss.xcmp_exec
                0x00000b74        0x4 Srouce/Application/radio/xnl.o
                0x00000b74                xcmp_exec
 .bss.status.10356
                0x00000b78        0x4 Srouce/Application/rtc/rtc.o
 .bss.rtc_mutex
                0x00000b7c        0x4 Srouce/Application/rtc/rtc.o
 .bss.tc_tick   0x00000b80        0x4 Srouce/Application/timers/timer.o
                0x00000b80                tc_tick
 .bss._int_line_handler_table_6
                0x00000b84        0x4 Srouce/ASF/avr32/drivers/intc/intc.o
 .bss._int_line_handler_table_7
                0x00000b88        0x4 Srouce/ASF/avr32/drivers/intc/intc.o
 .bss._int_line_handler_table_8
                0x00000b8c        0x4 Srouce/ASF/avr32/drivers/intc/intc.o
 .bss._int_line_handler_table_9
                0x00000b90        0x4 Srouce/ASF/avr32/drivers/intc/intc.o
 .bss._int_line_handler_table_10
                0x00000b94        0x4 Srouce/ASF/avr32/drivers/intc/intc.o
 .bss._int_line_handler_table_11
                0x00000b98        0x4 Srouce/ASF/avr32/drivers/intc/intc.o
 .bss._int_line_handler_table_12
                0x00000b9c        0x4 Srouce/ASF/avr32/drivers/intc/intc.o
 .bss._int_line_handler_table_13
                0x00000ba0        0x4 Srouce/ASF/avr32/drivers/intc/intc.o
 .bss._int_line_handler_table_14
                0x00000ba4        0xc Srouce/ASF/avr32/drivers/intc/intc.o
 .bss._int_line_handler_table_15
                0x00000bb0        0x4 Srouce/ASF/avr32/drivers/intc/intc.o
 .bss._int_line_handler_table_16
                0x00000bb4        0x4 Srouce/ASF/avr32/drivers/intc/intc.o
 .bss._int_line_handler_table_17
                0x00000bb8        0x4 Srouce/ASF/avr32/drivers/intc/intc.o
 .bss._int_line_handler_table_18
                0x00000bbc        0x4 Srouce/ASF/avr32/drivers/intc/intc.o
 .bss._int_line_handler_table_0
                0x00000bc0        0x4 Srouce/ASF/avr32/drivers/intc/intc.o
 .bss._int_line_handler_table_1
                0x00000bc4       0x2c Srouce/ASF/avr32/drivers/intc/intc.o
 .bss._int_line_handler_table_2
                0x00000bf0       0x18 Srouce/ASF/avr32/drivers/intc/intc.o
 .bss._int_line_handler_table_3
                0x00000c08       0x1c Srouce/ASF/avr32/drivers/intc/intc.o
 .bss._int_line_handler_table_4
                0x00000c24        0x4 Srouce/ASF/avr32/drivers/intc/intc.o
 .bss._int_line_handler_table_5
                0x00000c28        0x4 Srouce/ASF/avr32/drivers/intc/intc.o
 .bss.twi_busy  0x00000c2c        0x1 Srouce/ASF/avr32/drivers/twi/twi.o
 .bss.twi_nack  0x00000c2d        0x1 Srouce/ASF/avr32/drivers/twi/twi.o
 *fill*         0x00000c2e        0x2 
 .bss.twi_tx_nb_bytes
                0x00000c30        0x4 Srouce/ASF/avr32/drivers/twi/twi.o
 .bss.twi_it_mask
                0x00000c34        0x4 Srouce/ASF/avr32/drivers/twi/twi.o
 .bss.twi_inst  0x00000c38        0x4 Srouce/ASF/avr32/drivers/twi/twi.o
 .bss.twi_tx_data
                0x00000c3c        0x4 Srouce/ASF/avr32/drivers/twi/twi.o
 .bss.twi_rx_nb_bytes
                0x00000c40        0x4 Srouce/ASF/avr32/drivers/twi/twi.o
 .bss.twi_rx_data
                0x00000c44        0x4 Srouce/ASF/avr32/drivers/twi/twi.o
 .bss.uxMissedTicks
                0x00000c48        0x4 Srouce/ASF/thirdparty/freertos/freertos-7.0.0/source/tasks.o
 .bss.uxTopUsedPriority
                0x00000c4c        0x4 Srouce/ASF/thirdparty/freertos/freertos-7.0.0/source/tasks.o
 .bss.pxDelayedTaskList
                0x00000c50        0x4 Srouce/ASF/thirdparty/freertos/freertos-7.0.0/source/tasks.o
 .bss.xSchedulerRunning
                0x00000c54        0x4 Srouce/ASF/thirdparty/freertos/freertos-7.0.0/source/tasks.o
 .bss.uxTasksDeleted
                0x00000c58        0x4 Srouce/ASF/thirdparty/freertos/freertos-7.0.0/source/tasks.o
 .bss.xNumOfOverflows
                0x00000c5c        0x4 Srouce/ASF/thirdparty/freertos/freertos-7.0.0/source/tasks.o
 .bss.pxOverflowDelayedTaskList
                0x00000c60        0x4 Srouce/ASF/thirdparty/freertos/freertos-7.0.0/source/tasks.o
 .bss.pxReadyTasksLists
                0x00000c64       0xa0 Srouce/ASF/thirdparty/freertos/freertos-7.0.0/source/tasks.o
 .bss.xTasksWaitingTermination
                0x00000d04       0x14 Srouce/ASF/thirdparty/freertos/freertos-7.0.0/source/tasks.o
 .bss.pxCurrentTCB
                0x00000d18        0x4 Srouce/ASF/thirdparty/freertos/freertos-7.0.0/source/tasks.o
                0x00000d18                pxCurrentTCB
 .bss.xPendingReadyList
                0x00000d1c       0x14 Srouce/ASF/thirdparty/freertos/freertos-7.0.0/source/tasks.o
 .bss.xDelayedTaskList1
                0x00000d30       0x14 Srouce/ASF/thirdparty/freertos/freertos-7.0.0/source/tasks.o
 .bss.xTickCount
                0x00000d44        0x4 Srouce/ASF/thirdparty/freertos/freertos-7.0.0/source/tasks.o
 .bss.uxSchedulerSuspended
                0x00000d48        0x4 Srouce/ASF/thirdparty/freertos/freertos-7.0.0/source/tasks.o
 .bss.xDelayedTaskList2
                0x00000d4c       0x14 Srouce/ASF/thirdparty/freertos/freertos-7.0.0/source/tasks.o
 .bss.uxTaskNumber
                0x00000d60        0x4 Srouce/ASF/thirdparty/freertos/freertos-7.0.0/source/tasks.o
 .bss.uxCurrentNumberOfTasks
                0x00000d64        0x4 Srouce/ASF/thirdparty/freertos/freertos-7.0.0/source/tasks.o
 .bss.xMissedYield
                0x00000d68        0x4 Srouce/ASF/thirdparty/freertos/freertos-7.0.0/source/tasks.o
 .bss.xSuspendedTaskList
                0x00000d6c       0x14 Srouce/ASF/thirdparty/freertos/freertos-7.0.0/source/tasks.o
 .bss.uxTopReadyPriority
                0x00000d80        0x4 Srouce/ASF/thirdparty/freertos/freertos-7.0.0/source/tasks.o
 .bss.lench.11293
                0x00000d84        0x1 Srouce/Log/log.o
 .bss.lench.11363
                0x00000d85        0x1 Srouce/Log/log.o
 *fill*         0x00000d86        0x2 
 .bss.__malloc_max_total_mem
                0x00000d88        0x4 d:/program files (x86)/atmel/studio/7.0/toolchain/avr32/avr32-gnu-toolchain/bin/../lib/gcc/avr32/4.4.7/../../../../avr32/lib/ucr2\libc.a(lib_a-mallocr.o)
                0x00000d88                __malloc_max_total_mem
 .bss.__malloc_max_sbrked_mem
                0x00000d8c        0x4 d:/program files (x86)/atmel/studio/7.0/toolchain/avr32/avr32-gnu-toolchain/bin/../lib/gcc/avr32/4.4.7/../../../../avr32/lib/ucr2\libc.a(lib_a-mallocr.o)
                0x00000d8c                __malloc_max_sbrked_mem
 .bss.__malloc_top_pad
                0x00000d90        0x4 d:/program files (x86)/atmel/studio/7.0/toolchain/avr32/avr32-gnu-toolchain/bin/../lib/gcc/avr32/4.4.7/../../../../avr32/lib/ucr2\libc.a(lib_a-mallocr.o)
                0x00000d90                __malloc_top_pad
 .bss.__malloc_current_mallinfo
                0x00000d94       0x28 d:/program files (x86)/atmel/studio/7.0/toolchain/avr32/avr32-gnu-toolchain/bin/../lib/gcc/avr32/4.4.7/../../../../avr32/lib/ucr2\libc.a(lib_a-mallocr.o)
                0x00000d94                __malloc_current_mallinfo
 .bss.cur_heap_pos.1869
                0x00000dbc        0x4 d:/program files (x86)/atmel/studio/7.0/toolchain/avr32/avr32-gnu-toolchain/bin/../lib/gcc/avr32/4.4.7/../../../../avr32/lib/ucr2\libc.a(lib_a-syscalls.o)
 *(COMMON)
 COMMON         0x00000dc0        0x4 Srouce/Application/app/app.o
                0x00000dc0                bunchofrandomstatusflags
 COMMON         0x00000dc4      0x110 Srouce/Application/radio/ambe.o
                0x00000dc4                Soft_Decision_Value
                0x00000dcc                AMBEBurst_rawdata
                0x00000dd4                Radio_Internal_Data
                0x00000dd8                AMBE_DecryptionKey
                0x00000de0                SendAMBEBurst_EncryptionPackage
                0x00000ed0                VBSP_data
 COMMON         0x00000ed4     0x3200 Srouce/Application/radio/physical.o
                0x00000ed4                payload_store
                0x000022d4                xnl_store
 COMMON         0x000040d4       0x4c Srouce/Application/radio/ssc.o
                0x000040d4                intDuration
                0x000040d8                BufferIndex
                0x000040dc                intStartCount
                0x000040e0                RxBuffer
                0x00004100                TxBuffer
 COMMON         0x00004120        0x4 Srouce/Application/radio/xcmp.o
                0x00004120                app_list
 COMMON         0x00004124        0x4 Srouce/ASF/thirdparty/freertos/freertos-7.0.0/source/portable/gcc/avr32_uc3/write.o
                0x00004124                stdio_usart_base
 COMMON         0x00004128        0x4 Srouce/Log/log.o
                0x00004128                logQueue
 COMMON         0x0000412c        0x4 d:/program files (x86)/atmel/studio/7.0/toolchain/avr32/avr32-gnu-toolchain/bin/../lib/gcc/avr32/4.4.7/../../../../avr32/lib/ucr2\libc.a(lib_a-reent.o)
                0x0000412c                errno
                0x00004130                . = ALIGN (0x8)
                0x00004130                . = ALIGN (0x8)
                0x00004130                _end = .
                0x00004130                PROVIDE (end, .)
                0x00004130                __heap_start__ = ALIGN (0x8)

.heap           0x00004130    0x12ed0
 *(.heap)
                0x00012ed0                . = (__heap_size__ == __max_heap_size__)?(((ORIGIN (INTRAM) + 0x17ffc) - __stack_size__) - ABSOLUTE (.)):__heap_size__
 *fill*         0x00004130    0x12ed0 
                0x00017000                __heap_end__ = .

.stab
 *(.stab)

.stabstr
 *(.stabstr)

.stab.excl
 *(.stab.excl)

.stab.exclstr
 *(.stab.exclstr)

.stab.index
 *(.stab.index)

.stab.indexstr
 *(.stab.indexstr)

.comment        0x00000000       0x30
 *(.comment)
 .comment       0x00000000       0x30 Srouce/Application/app/app.o
                                 0x31 (size before relaxing)
 .comment       0x00000000       0x31 Srouce/Application/radio/ambe.o
 .comment       0x00000000       0x31 Srouce/Application/radio/AMBE_audio_2.o
 .comment       0x00000000       0x31 Srouce/Application/radio/payload.o
 .comment       0x00000000       0x31 Srouce/Application/radio/audio.o
 .comment       0x00000000       0x31 Srouce/Application/radio/physical.o
 .comment       0x00000000       0x31 Srouce/Application/radio/ssc.o
 .comment       0x00000000       0x31 Srouce/Application/radio/xcmp.o
 .comment       0x00000000       0x31 Srouce/Application/radio/xnl.o
 .comment       0x00000000       0x31 Srouce/Application/rtc/rtc.o
 .comment       0x00000000       0x31 Srouce/Application/timers/timer.o
 .comment       0x00000000       0x31 Srouce/ASF/avr32/drivers/intc/intc.o
 .comment       0x00000000       0x31 Srouce/ASF/avr32/drivers/tc/tc.o
 .comment       0x00000000       0x31 Srouce/ASF/avr32/drivers/twi/twi.o
 .comment       0x00000000       0x31 Srouce/ASF/avr32/drivers/usart/usart.o
 .comment       0x00000000       0x31 Srouce/ASF/thirdparty/freertos/freertos-7.0.0/source/list.o
 .comment       0x00000000       0x31 Srouce/ASF/thirdparty/freertos/freertos-7.0.0/source/portable/gcc/avr32_uc3/port.o
 .comment       0x00000000       0x31 Srouce/ASF/thirdparty/freertos/freertos-7.0.0/source/portable/gcc/avr32_uc3/read.o
 .comment       0x00000000       0x31 Srouce/ASF/thirdparty/freertos/freertos-7.0.0/source/portable/gcc/avr32_uc3/write.o
 .comment       0x00000000       0x31 Srouce/ASF/thirdparty/freertos/freertos-7.0.0/source/portable/memmang/heap_3.o
 .comment       0x00000000       0x31 Srouce/ASF/thirdparty/freertos/freertos-7.0.0/source/queue.o
 .comment       0x00000000       0x31 Srouce/ASF/thirdparty/freertos/freertos-7.0.0/source/tasks.o
 .comment       0x00000000       0x31 Srouce/Log/log.o
 .comment       0x00000000       0x31 Srouce/main.o
 .comment       0x00000000       0x31 Srouce/ASF/avr32/drivers/gpio/gpio.o
 .comment       0x00000000       0x31 d:/program files (x86)/atmel/studio/7.0/toolchain/avr32/avr32-gnu-toolchain/bin/../lib/gcc/avr32/4.4.7/../../../../avr32/lib/ucr2\libc.a(lib_a-malloc.o)
 .comment       0x00000000       0x31 d:/program files (x86)/atmel/studio/7.0/toolchain/avr32/avr32-gnu-toolchain/bin/../lib/gcc/avr32/4.4.7/../../../../avr32/lib/ucr2\libc.a(lib_a-mallocr.o)
 .comment       0x00000000       0x31 d:/program files (x86)/atmel/studio/7.0/toolchain/avr32/avr32-gnu-toolchain/bin/../lib/gcc/avr32/4.4.7/../../../../avr32/lib/ucr2\libc.a(lib_a-memset.o)
 .comment       0x00000000       0x31 d:/program files (x86)/atmel/studio/7.0/toolchain/avr32/avr32-gnu-toolchain/bin/../lib/gcc/avr32/4.4.7/../../../../avr32/lib/ucr2\libc.a(lib_a-reallocr.o)
 .comment       0x00000000       0x31 d:/program files (x86)/atmel/studio/7.0/toolchain/avr32/avr32-gnu-toolchain/bin/../lib/gcc/avr32/4.4.7/../../../../avr32/lib/ucr2\libc.a(lib_a-sbrkr.o)
 .comment       0x00000000       0x31 d:/program files (x86)/atmel/studio/7.0/toolchain/avr32/avr32-gnu-toolchain/bin/../lib/gcc/avr32/4.4.7/../../../../avr32/lib/ucr2\libc.a(lib_a-sprintf.o)
 .comment       0x00000000       0x31 d:/program files (x86)/atmel/studio/7.0/toolchain/avr32/avr32-gnu-toolchain/bin/../lib/gcc/avr32/4.4.7/../../../../avr32/lib/ucr2\libc.a(lib_a-strlen.o)
 .comment       0x00000000       0x31 d:/program files (x86)/atmel/studio/7.0/toolchain/avr32/avr32-gnu-toolchain/bin/../lib/gcc/avr32/4.4.7/../../../../avr32/lib/ucr2\libc.a(lib_a-syscalls.o)
 .comment       0x00000000       0x31 d:/program files (x86)/atmel/studio/7.0/toolchain/avr32/avr32-gnu-toolchain/bin/../lib/gcc/avr32/4.4.7/../../../../avr32/lib/ucr2\libc.a(lib_a-vfprintf.o)
 .comment       0x00000000       0x31 d:/program files (x86)/atmel/studio/7.0/toolchain/avr32/avr32-gnu-toolchain/bin/../lib/gcc/avr32/4.4.7/../../../../avr32/lib/ucr2\libc.a(lib_a-wsetup.o)
 .comment       0x00000000       0x31 d:/program files (x86)/atmel/studio/7.0/toolchain/avr32/avr32-gnu-toolchain/bin/../lib/gcc/avr32/4.4.7/../../../../avr32/lib/ucr2\libc.a(lib_a-dtoa.o)
 .comment       0x00000000       0x31 d:/program files (x86)/atmel/studio/7.0/toolchain/avr32/avr32-gnu-toolchain/bin/../lib/gcc/avr32/4.4.7/../../../../avr32/lib/ucr2\libc.a(lib_a-errno.o)
 .comment       0x00000000       0x31 d:/program files (x86)/atmel/studio/7.0/toolchain/avr32/avr32-gnu-toolchain/bin/../lib/gcc/avr32/4.4.7/../../../../avr32/lib/ucr2\libc.a(lib_a-fflush.o)
 .comment       0x00000000       0x31 d:/program files (x86)/atmel/studio/7.0/toolchain/avr32/avr32-gnu-toolchain/bin/../lib/gcc/avr32/4.4.7/../../../../avr32/lib/ucr2\libc.a(lib_a-findfp.o)
 .comment       0x00000000       0x31 d:/program files (x86)/atmel/studio/7.0/toolchain/avr32/avr32-gnu-toolchain/bin/../lib/gcc/avr32/4.4.7/../../../../avr32/lib/ucr2\libc.a(lib_a-freer.o)
 .comment       0x00000000       0x31 d:/program files (x86)/atmel/studio/7.0/toolchain/avr32/avr32-gnu-toolchain/bin/../lib/gcc/avr32/4.4.7/../../../../avr32/lib/ucr2\libc.a(lib_a-fvwrite.o)
 .comment       0x00000000       0x31 d:/program files (x86)/atmel/studio/7.0/toolchain/avr32/avr32-gnu-toolchain/bin/../lib/gcc/avr32/4.4.7/../../../../avr32/lib/ucr2\libc.a(lib_a-fwalk.o)
 .comment       0x00000000       0x31 d:/program files (x86)/atmel/studio/7.0/toolchain/avr32/avr32-gnu-toolchain/bin/../lib/gcc/avr32/4.4.7/../../../../avr32/lib/ucr2\libc.a(lib_a-impure.o)
 .comment       0x00000000       0x31 d:/program files (x86)/atmel/studio/7.0/toolchain/avr32/avr32-gnu-toolchain/bin/../lib/gcc/avr32/4.4.7/../../../../avr32/lib/ucr2\libc.a(lib_a-locale.o)
 .comment       0x00000000       0x31 d:/program files (x86)/atmel/studio/7.0/toolchain/avr32/avr32-gnu-toolchain/bin/../lib/gcc/avr32/4.4.7/../../../../avr32/lib/ucr2\libc.a(lib_a-makebuf.o)
 .comment       0x00000000       0x31 d:/program files (x86)/atmel/studio/7.0/toolchain/avr32/avr32-gnu-toolchain/bin/../lib/gcc/avr32/4.4.7/../../../../avr32/lib/ucr2\libc.a(lib_a-memchr.o)
 .comment       0x00000000       0x31 d:/program files (x86)/atmel/studio/7.0/toolchain/avr32/avr32-gnu-toolchain/bin/../lib/gcc/avr32/4.4.7/../../../../avr32/lib/ucr2\libc.a(lib_a-memmove.o)
 .comment       0x00000000       0x31 d:/program files (x86)/atmel/studio/7.0/toolchain/avr32/avr32-gnu-toolchain/bin/../lib/gcc/avr32/4.4.7/../../../../avr32/lib/ucr2\libc.a(lib_a-mprec.o)
 .comment       0x00000000       0x31 d:/program files (x86)/atmel/studio/7.0/toolchain/avr32/avr32-gnu-toolchain/bin/../lib/gcc/avr32/4.4.7/../../../../avr32/lib/ucr2\libc.a(lib_a-reent.o)
 .comment       0x00000000       0x31 d:/program files (x86)/atmel/studio/7.0/toolchain/avr32/avr32-gnu-toolchain/bin/../lib/gcc/avr32/4.4.7/../../../../avr32/lib/ucr2\libc.a(lib_a-s_isinfd.o)
 .comment       0x00000000       0x31 d:/program files (x86)/atmel/studio/7.0/toolchain/avr32/avr32-gnu-toolchain/bin/../lib/gcc/avr32/4.4.7/../../../../avr32/lib/ucr2\libc.a(lib_a-s_isnand.o)
 .comment       0x00000000       0x31 d:/program files (x86)/atmel/studio/7.0/toolchain/avr32/avr32-gnu-toolchain/bin/../lib/gcc/avr32/4.4.7/../../../../avr32/lib/ucr2\libc.a(lib_a-stdio.o)
 .comment       0x00000000       0x31 d:/program files (x86)/atmel/studio/7.0/toolchain/avr32/avr32-gnu-toolchain/bin/../lib/gcc/avr32/4.4.7/../../../../avr32/lib/ucr2\libc.a(lib_a-writer.o)
 .comment       0x00000000       0x31 d:/program files (x86)/atmel/studio/7.0/toolchain/avr32/avr32-gnu-toolchain/bin/../lib/gcc/avr32/4.4.7/../../../../avr32/lib/ucr2\libc.a(lib_a-callocr.o)
 .comment       0x00000000       0x31 d:/program files (x86)/atmel/studio/7.0/toolchain/avr32/avr32-gnu-toolchain/bin/../lib/gcc/avr32/4.4.7/../../../../avr32/lib/ucr2\libc.a(lib_a-closer.o)
 .comment       0x00000000       0x31 d:/program files (x86)/atmel/studio/7.0/toolchain/avr32/avr32-gnu-toolchain/bin/../lib/gcc/avr32/4.4.7/../../../../avr32/lib/ucr2\libc.a(lib_a-fclose.o)
 .comment       0x00000000       0x31 d:/program files (x86)/atmel/studio/7.0/toolchain/avr32/avr32-gnu-toolchain/bin/../lib/gcc/avr32/4.4.7/../../../../avr32/lib/ucr2\libc.a(lib_a-fstatr.o)
 .comment       0x00000000       0x31 d:/program files (x86)/atmel/studio/7.0/toolchain/avr32/avr32-gnu-toolchain/bin/../lib/gcc/avr32/4.4.7/../../../../avr32/lib/ucr2\libc.a(lib_a-lseekr.o)
 .comment       0x00000000       0x31 d:/program files (x86)/atmel/studio/7.0/toolchain/avr32/avr32-gnu-toolchain/bin/../lib/gcc/avr32/4.4.7/../../../../avr32/lib/ucr2\libc.a(lib_a-readr.o)
 .comment       0x00000000       0x31 d:/program files (x86)/atmel/studio/7.0/toolchain/avr32/avr32-gnu-toolchain/bin/../lib/gcc/avr32/4.4.7/ucr2\libgcc.a(_udivdi3.o)
 .comment       0x00000000       0x31 d:/program files (x86)/atmel/studio/7.0/toolchain/avr32/avr32-gnu-toolchain/bin/../lib/gcc/avr32/4.4.7/ucr2\libgcc.a(_umoddi3.o)

.debug
 *(.debug)

.line
 *(.line)

.debug_srcinfo
 *(.debug_srcinfo)

.debug_sfnames
 *(.debug_sfnames)

.debug_aranges  0x00000000     0x1140
 *(.debug_aranges)
 .debug_aranges
                0x00000000      0x110 Srouce/Application/app/app.o
 .debug_aranges
                0x00000110       0x20 Srouce/Application/radio/ambe.o
 .debug_aranges
                0x00000130       0x28 Srouce/Application/radio/payload.o
 .debug_aranges
                0x00000158       0x68 Srouce/Application/radio/physical.o
 .debug_aranges
                0x000001c0       0x40 Srouce/Application/radio/ssc.o
 .debug_aranges
                0x00000200       0xe0 Srouce/Application/radio/xcmp.o
 .debug_aranges
                0x000002e0       0x68 Srouce/Application/radio/xnl.o
 .debug_aranges
                0x00000348       0x50 Srouce/Application/rtc/rtc.o
 .debug_aranges
                0x00000398       0x30 Srouce/Application/timers/timer.o
 .debug_aranges
                0x000003c8       0x38 Srouce/ASF/avr32/drivers/intc/intc.o
 .debug_aranges
                0x00000400       0xa8 Srouce/ASF/avr32/drivers/tc/tc.o
 .debug_aranges
                0x000004a8       0x70 Srouce/ASF/avr32/drivers/twi/twi.o
 .debug_aranges
                0x00000518       0xe0 Srouce/ASF/avr32/drivers/usart/usart.o
 .debug_aranges
                0x000005f8       0x40 Srouce/ASF/thirdparty/freertos/freertos-7.0.0/source/list.o
 .debug_aranges
                0x00000638       0x20 Srouce/ASF/thirdparty/freertos/freertos-7.0.0/source/portable/gcc/avr32_uc3/exception.o
 .debug_aranges
                0x00000658       0x78 Srouce/ASF/thirdparty/freertos/freertos-7.0.0/source/portable/gcc/avr32_uc3/port.o
 .debug_aranges
                0x000006d0       0x20 Srouce/ASF/thirdparty/freertos/freertos-7.0.0/source/portable/gcc/avr32_uc3/read.o
 .debug_aranges
                0x000006f0       0x20 Srouce/ASF/thirdparty/freertos/freertos-7.0.0/source/portable/gcc/avr32_uc3/write.o
 .debug_aranges
                0x00000710       0x28 Srouce/ASF/thirdparty/freertos/freertos-7.0.0/source/portable/memmang/heap_3.o
 .debug_aranges
                0x00000738       0x88 Srouce/ASF/thirdparty/freertos/freertos-7.0.0/source/queue.o
 .debug_aranges
                0x000007c0      0x108 Srouce/ASF/thirdparty/freertos/freertos-7.0.0/source/tasks.o
 .debug_aranges
                0x000008c8       0x50 Srouce/Log/log.o
 .debug_aranges
                0x00000918       0x20 Srouce/main.o
 .debug_aranges
                0x00000938      0x100 Srouce/ASF/avr32/drivers/gpio/gpio.o
 .debug_aranges
                0x00000a38       0x28 Srouce/ASF/avr32/utils/startup/startup_uc3.o
 .debug_aranges
                0x00000a60       0x20 Srouce/ASF/avr32/utils/startup/trampoline_uc3.o
 .debug_aranges
                0x00000a80       0x28 d:/program files (x86)/atmel/studio/7.0/toolchain/avr32/avr32-gnu-toolchain/bin/../lib/gcc/avr32/4.4.7/../../../../avr32/lib/ucr2\libc.a(lib_a-malloc.o)
 .debug_aranges
                0x00000aa8       0x20 d:/program files (x86)/atmel/studio/7.0/toolchain/avr32/avr32-gnu-toolchain/bin/../lib/gcc/avr32/4.4.7/../../../../avr32/lib/ucr2\libc.a(lib_a-mallocr.o)
 .debug_aranges
                0x00000ac8       0x20 d:/program files (x86)/atmel/studio/7.0/toolchain/avr32/avr32-gnu-toolchain/bin/../lib/gcc/avr32/4.4.7/../../../../avr32/lib/ucr2\libc.a(lib_a-memset.o)
 .debug_aranges
                0x00000ae8       0x20 d:/program files (x86)/atmel/studio/7.0/toolchain/avr32/avr32-gnu-toolchain/bin/../lib/gcc/avr32/4.4.7/../../../../avr32/lib/ucr2\libc.a(lib_a-reallocr.o)
 .debug_aranges
                0x00000b08       0x20 d:/program files (x86)/atmel/studio/7.0/toolchain/avr32/avr32-gnu-toolchain/bin/../lib/gcc/avr32/4.4.7/../../../../avr32/lib/ucr2\libc.a(lib_a-sbrkr.o)
 .debug_aranges
                0x00000b28       0x28 d:/program files (x86)/atmel/studio/7.0/toolchain/avr32/avr32-gnu-toolchain/bin/../lib/gcc/avr32/4.4.7/../../../../avr32/lib/ucr2\libc.a(lib_a-sprintf.o)
 .debug_aranges
                0x00000b50       0x20 d:/program files (x86)/atmel/studio/7.0/toolchain/avr32/avr32-gnu-toolchain/bin/../lib/gcc/avr32/4.4.7/../../../../avr32/lib/ucr2\libc.a(lib_a-strlen.o)
 .debug_aranges
                0x00000b70       0xf8 d:/program files (x86)/atmel/studio/7.0/toolchain/avr32/avr32-gnu-toolchain/bin/../lib/gcc/avr32/4.4.7/../../../../avr32/lib/ucr2\libc.a(lib_a-syscalls.o)
 .debug_aranges
                0x00000c68       0x38 d:/program files (x86)/atmel/studio/7.0/toolchain/avr32/avr32-gnu-toolchain/bin/../lib/gcc/avr32/4.4.7/../../../../avr32/lib/ucr2\libc.a(lib_a-vfprintf.o)
 .debug_aranges
                0x00000ca0       0x20 d:/program files (x86)/atmel/studio/7.0/toolchain/avr32/avr32-gnu-toolchain/bin/../lib/gcc/avr32/4.4.7/../../../../avr32/lib/ucr2\libc.a(lib_a-wsetup.o)
 .debug_aranges
                0x00000cc0       0x28 d:/program files (x86)/atmel/studio/7.0/toolchain/avr32/avr32-gnu-toolchain/bin/../lib/gcc/avr32/4.4.7/../../../../avr32/lib/ucr2\libc.a(lib_a-dtoa.o)
 .debug_aranges
                0x00000ce8       0x20 d:/program files (x86)/atmel/studio/7.0/toolchain/avr32/avr32-gnu-toolchain/bin/../lib/gcc/avr32/4.4.7/../../../../avr32/lib/ucr2\libc.a(lib_a-errno.o)
 .debug_aranges
                0x00000d08       0x28 d:/program files (x86)/atmel/studio/7.0/toolchain/avr32/avr32-gnu-toolchain/bin/../lib/gcc/avr32/4.4.7/../../../../avr32/lib/ucr2\libc.a(lib_a-fflush.o)
 .debug_aranges
                0x00000d30       0x80 d:/program files (x86)/atmel/studio/7.0/toolchain/avr32/avr32-gnu-toolchain/bin/../lib/gcc/avr32/4.4.7/../../../../avr32/lib/ucr2\libc.a(lib_a-findfp.o)
 .debug_aranges
                0x00000db0       0x28 d:/program files (x86)/atmel/studio/7.0/toolchain/avr32/avr32-gnu-toolchain/bin/../lib/gcc/avr32/4.4.7/../../../../avr32/lib/ucr2\libc.a(lib_a-freer.o)
 .debug_aranges
                0x00000dd8       0x20 d:/program files (x86)/atmel/studio/7.0/toolchain/avr32/avr32-gnu-toolchain/bin/../lib/gcc/avr32/4.4.7/../../../../avr32/lib/ucr2\libc.a(lib_a-fvwrite.o)
 .debug_aranges
                0x00000df8       0x28 d:/program files (x86)/atmel/studio/7.0/toolchain/avr32/avr32-gnu-toolchain/bin/../lib/gcc/avr32/4.4.7/../../../../avr32/lib/ucr2\libc.a(lib_a-fwalk.o)
 .debug_aranges
                0x00000e20       0x40 d:/program files (x86)/atmel/studio/7.0/toolchain/avr32/avr32-gnu-toolchain/bin/../lib/gcc/avr32/4.4.7/../../../../avr32/lib/ucr2\libc.a(lib_a-locale.o)
 .debug_aranges
                0x00000e60       0x20 d:/program files (x86)/atmel/studio/7.0/toolchain/avr32/avr32-gnu-toolchain/bin/../lib/gcc/avr32/4.4.7/../../../../avr32/lib/ucr2\libc.a(lib_a-makebuf.o)
 .debug_aranges
                0x00000e80       0x20 d:/program files (x86)/atmel/studio/7.0/toolchain/avr32/avr32-gnu-toolchain/bin/../lib/gcc/avr32/4.4.7/../../../../avr32/lib/ucr2\libc.a(lib_a-memchr.o)
 .debug_aranges
                0x00000ea0       0x20 d:/program files (x86)/atmel/studio/7.0/toolchain/avr32/avr32-gnu-toolchain/bin/../lib/gcc/avr32/4.4.7/../../../../avr32/lib/ucr2\libc.a(lib_a-memmove.o)
 .debug_aranges
                0x00000ec0       0xb0 d:/program files (x86)/atmel/studio/7.0/toolchain/avr32/avr32-gnu-toolchain/bin/../lib/gcc/avr32/4.4.7/../../../../avr32/lib/ucr2\libc.a(lib_a-mprec.o)
 .debug_aranges
                0x00000f70       0x30 d:/program files (x86)/atmel/studio/7.0/toolchain/avr32/avr32-gnu-toolchain/bin/../lib/gcc/avr32/4.4.7/../../../../avr32/lib/ucr2\libc.a(lib_a-reent.o)
 .debug_aranges
                0x00000fa0       0x20 d:/program files (x86)/atmel/studio/7.0/toolchain/avr32/avr32-gnu-toolchain/bin/../lib/gcc/avr32/4.4.7/../../../../avr32/lib/ucr2\libc.a(lib_a-s_isinfd.o)
 .debug_aranges
                0x00000fc0       0x20 d:/program files (x86)/atmel/studio/7.0/toolchain/avr32/avr32-gnu-toolchain/bin/../lib/gcc/avr32/4.4.7/../../../../avr32/lib/ucr2\libc.a(lib_a-s_isnand.o)
 .debug_aranges
                0x00000fe0       0x38 d:/program files (x86)/atmel/studio/7.0/toolchain/avr32/avr32-gnu-toolchain/bin/../lib/gcc/avr32/4.4.7/../../../../avr32/lib/ucr2\libc.a(lib_a-stdio.o)
 .debug_aranges
                0x00001018       0x20 d:/program files (x86)/atmel/studio/7.0/toolchain/avr32/avr32-gnu-toolchain/bin/../lib/gcc/avr32/4.4.7/../../../../avr32/lib/ucr2\libc.a(lib_a-writer.o)
 .debug_aranges
                0x00001038       0x20 d:/program files (x86)/atmel/studio/7.0/toolchain/avr32/avr32-gnu-toolchain/bin/../lib/gcc/avr32/4.4.7/../../../../avr32/lib/ucr2\libc.a(lib_a-callocr.o)
 .debug_aranges
                0x00001058       0x20 d:/program files (x86)/atmel/studio/7.0/toolchain/avr32/avr32-gnu-toolchain/bin/../lib/gcc/avr32/4.4.7/../../../../avr32/lib/ucr2\libc.a(lib_a-closer.o)
 .debug_aranges
                0x00001078       0x28 d:/program files (x86)/atmel/studio/7.0/toolchain/avr32/avr32-gnu-toolchain/bin/../lib/gcc/avr32/4.4.7/../../../../avr32/lib/ucr2\libc.a(lib_a-fclose.o)
 .debug_aranges
                0x000010a0       0x20 d:/program files (x86)/atmel/studio/7.0/toolchain/avr32/avr32-gnu-toolchain/bin/../lib/gcc/avr32/4.4.7/../../../../avr32/lib/ucr2\libc.a(lib_a-fstatr.o)
 .debug_aranges
                0x000010c0       0x20 d:/program files (x86)/atmel/studio/7.0/toolchain/avr32/avr32-gnu-toolchain/bin/../lib/gcc/avr32/4.4.7/../../../../avr32/lib/ucr2\libc.a(lib_a-lseekr.o)
 .debug_aranges
                0x000010e0       0x20 d:/program files (x86)/atmel/studio/7.0/toolchain/avr32/avr32-gnu-toolchain/bin/../lib/gcc/avr32/4.4.7/../../../../avr32/lib/ucr2\libc.a(lib_a-readr.o)
 .debug_aranges
                0x00001100       0x20 d:/program files (x86)/atmel/studio/7.0/toolchain/avr32/avr32-gnu-toolchain/bin/../lib/gcc/avr32/4.4.7/ucr2\libgcc.a(_udivdi3.o)
 .debug_aranges
                0x00001120       0x20 d:/program files (x86)/atmel/studio/7.0/toolchain/avr32/avr32-gnu-toolchain/bin/../lib/gcc/avr32/4.4.7/ucr2\libgcc.a(_umoddi3.o)

.debug_pubnames
                0x00000000     0x24bb
 *(.debug_pubnames)
 .debug_pubnames
                0x00000000      0x392 Srouce/Application/app/app.o
 .debug_pubnames
                0x00000392       0xc7 Srouce/Application/radio/ambe.o
 .debug_pubnames
                0x00000459       0x25 Srouce/Application/radio/AMBE_audio_2.o
 .debug_pubnames
                0x0000047e       0x4b Srouce/Application/radio/payload.o
 .debug_pubnames
                0x000004c9       0x20 Srouce/Application/radio/audio.o
 .debug_pubnames
                0x000004e9      0x1ca Srouce/Application/radio/physical.o
 .debug_pubnames
                0x000006b3      0x15a Srouce/Application/radio/ssc.o
 .debug_pubnames
                0x0000080d      0x2fb Srouce/Application/radio/xcmp.o
 .debug_pubnames
                0x00000b08       0xfc Srouce/Application/radio/xnl.o
 .debug_pubnames
                0x00000c04       0x84 Srouce/Application/rtc/rtc.o
 .debug_pubnames
                0x00000c88       0x40 Srouce/Application/timers/timer.o
 .debug_pubnames
                0x00000cc8       0x62 Srouce/ASF/avr32/drivers/intc/intc.o
 .debug_pubnames
                0x00000d2a      0x164 Srouce/ASF/avr32/drivers/tc/tc.o
 .debug_pubnames
                0x00000e8e       0xb2 Srouce/ASF/avr32/drivers/twi/twi.o
 .debug_pubnames
                0x00000f40      0x227 Srouce/ASF/avr32/drivers/usart/usart.o
 .debug_pubnames
                0x00001167       0x71 Srouce/ASF/thirdparty/freertos/freertos-7.0.0/source/list.o
 .debug_pubnames
                0x000011d8       0xf6 Srouce/ASF/thirdparty/freertos/freertos-7.0.0/source/portable/gcc/avr32_uc3/port.o
 .debug_pubnames
                0x000012ce       0x1c Srouce/ASF/thirdparty/freertos/freertos-7.0.0/source/portable/gcc/avr32_uc3/read.o
 .debug_pubnames
                0x000012ea       0x32 Srouce/ASF/thirdparty/freertos/freertos-7.0.0/source/portable/gcc/avr32_uc3/write.o
 .debug_pubnames
                0x0000131c       0x31 Srouce/ASF/thirdparty/freertos/freertos-7.0.0/source/portable/memmang/heap_3.o
 .debug_pubnames
                0x0000134d      0x127 Srouce/ASF/thirdparty/freertos/freertos-7.0.0/source/queue.o
 .debug_pubnames
                0x00001474      0x2a6 Srouce/ASF/thirdparty/freertos/freertos-7.0.0/source/tasks.o
 .debug_pubnames
                0x0000171a       0x6b Srouce/Log/log.o
 .debug_pubnames
                0x00001785       0x1b Srouce/main.o
 .debug_pubnames
                0x000017a0      0x330 Srouce/ASF/avr32/drivers/gpio/gpio.o
 .debug_pubnames
                0x00001ad0       0x26 d:/program files (x86)/atmel/studio/7.0/toolchain/avr32/avr32-gnu-toolchain/bin/../lib/gcc/avr32/4.4.7/../../../../avr32/lib/ucr2\libc.a(lib_a-malloc.o)
 .debug_pubnames
                0x00001af6       0xce d:/program files (x86)/atmel/studio/7.0/toolchain/avr32/avr32-gnu-toolchain/bin/../lib/gcc/avr32/4.4.7/../../../../avr32/lib/ucr2\libc.a(lib_a-mallocr.o)
 .debug_pubnames
                0x00001bc4       0x1d d:/program files (x86)/atmel/studio/7.0/toolchain/avr32/avr32-gnu-toolchain/bin/../lib/gcc/avr32/4.4.7/../../../../avr32/lib/ucr2\libc.a(lib_a-memset.o)
 .debug_pubnames
                0x00001be1       0x21 d:/program files (x86)/atmel/studio/7.0/toolchain/avr32/avr32-gnu-toolchain/bin/../lib/gcc/avr32/4.4.7/../../../../avr32/lib/ucr2\libc.a(lib_a-reallocr.o)
 .debug_pubnames
                0x00001c02       0x1e d:/program files (x86)/atmel/studio/7.0/toolchain/avr32/avr32-gnu-toolchain/bin/../lib/gcc/avr32/4.4.7/../../../../avr32/lib/ucr2\libc.a(lib_a-sbrkr.o)
 .debug_pubnames
                0x00001c20       0x2d d:/program files (x86)/atmel/studio/7.0/toolchain/avr32/avr32-gnu-toolchain/bin/../lib/gcc/avr32/4.4.7/../../../../avr32/lib/ucr2\libc.a(lib_a-sprintf.o)
 .debug_pubnames
                0x00001c4d       0x1d d:/program files (x86)/atmel/studio/7.0/toolchain/avr32/avr32-gnu-toolchain/bin/../lib/gcc/avr32/4.4.7/../../../../avr32/lib/ucr2\libc.a(lib_a-strlen.o)
 .debug_pubnames
                0x00001c6a      0x171 d:/program files (x86)/atmel/studio/7.0/toolchain/avr32/avr32-gnu-toolchain/bin/../lib/gcc/avr32/4.4.7/../../../../avr32/lib/ucr2\libc.a(lib_a-syscalls.o)
 .debug_pubnames
                0x00001ddb       0x2f d:/program files (x86)/atmel/studio/7.0/toolchain/avr32/avr32-gnu-toolchain/bin/../lib/gcc/avr32/4.4.7/../../../../avr32/lib/ucr2\libc.a(lib_a-vfprintf.o)
 .debug_pubnames
                0x00001e0a       0x22 d:/program files (x86)/atmel/studio/7.0/toolchain/avr32/avr32-gnu-toolchain/bin/../lib/gcc/avr32/4.4.7/../../../../avr32/lib/ucr2\libc.a(lib_a-wsetup.o)
 .debug_pubnames
                0x00001e2c       0x1e d:/program files (x86)/atmel/studio/7.0/toolchain/avr32/avr32-gnu-toolchain/bin/../lib/gcc/avr32/4.4.7/../../../../avr32/lib/ucr2\libc.a(lib_a-dtoa.o)
 .debug_pubnames
                0x00001e4a       0x1e d:/program files (x86)/atmel/studio/7.0/toolchain/avr32/avr32-gnu-toolchain/bin/../lib/gcc/avr32/4.4.7/../../../../avr32/lib/ucr2\libc.a(lib_a-errno.o)
 .debug_pubnames
                0x00001e68       0x2b d:/program files (x86)/atmel/studio/7.0/toolchain/avr32/avr32-gnu-toolchain/bin/../lib/gcc/avr32/4.4.7/../../../../avr32/lib/ucr2\libc.a(lib_a-fflush.o)
 .debug_pubnames
                0x00001e93      0x119 d:/program files (x86)/atmel/studio/7.0/toolchain/avr32/avr32-gnu-toolchain/bin/../lib/gcc/avr32/4.4.7/../../../../avr32/lib/ucr2\libc.a(lib_a-findfp.o)
 .debug_pubnames
                0x00001fac       0x31 d:/program files (x86)/atmel/studio/7.0/toolchain/avr32/avr32-gnu-toolchain/bin/../lib/gcc/avr32/4.4.7/../../../../avr32/lib/ucr2\libc.a(lib_a-freer.o)
 .debug_pubnames
                0x00001fdd       0x23 d:/program files (x86)/atmel/studio/7.0/toolchain/avr32/avr32-gnu-toolchain/bin/../lib/gcc/avr32/4.4.7/../../../../avr32/lib/ucr2\libc.a(lib_a-fvwrite.o)
 .debug_pubnames
                0x00002000       0x2e d:/program files (x86)/atmel/studio/7.0/toolchain/avr32/avr32-gnu-toolchain/bin/../lib/gcc/avr32/4.4.7/../../../../avr32/lib/ucr2\libc.a(lib_a-fwalk.o)
 .debug_pubnames
                0x0000202e       0x39 d:/program files (x86)/atmel/studio/7.0/toolchain/avr32/avr32-gnu-toolchain/bin/../lib/gcc/avr32/4.4.7/../../../../avr32/lib/ucr2\libc.a(lib_a-impure.o)
 .debug_pubnames
                0x00002067       0xc3 d:/program files (x86)/atmel/studio/7.0/toolchain/avr32/avr32-gnu-toolchain/bin/../lib/gcc/avr32/4.4.7/../../../../avr32/lib/ucr2\libc.a(lib_a-locale.o)
 .debug_pubnames
                0x0000212a       0x23 d:/program files (x86)/atmel/studio/7.0/toolchain/avr32/avr32-gnu-toolchain/bin/../lib/gcc/avr32/4.4.7/../../../../avr32/lib/ucr2\libc.a(lib_a-makebuf.o)
 .debug_pubnames
                0x0000214d       0x1d d:/program files (x86)/atmel/studio/7.0/toolchain/avr32/avr32-gnu-toolchain/bin/../lib/gcc/avr32/4.4.7/../../../../avr32/lib/ucr2\libc.a(lib_a-memchr.o)
 .debug_pubnames
                0x0000216a       0x1e d:/program files (x86)/atmel/studio/7.0/toolchain/avr32/avr32-gnu-toolchain/bin/../lib/gcc/avr32/4.4.7/../../../../avr32/lib/ucr2\libc.a(lib_a-memmove.o)
 .debug_pubnames
                0x00002188      0x13a d:/program files (x86)/atmel/studio/7.0/toolchain/avr32/avr32-gnu-toolchain/bin/../lib/gcc/avr32/4.4.7/../../../../avr32/lib/ucr2\libc.a(lib_a-mprec.o)
 .debug_pubnames
                0x000022c2       0x52 d:/program files (x86)/atmel/studio/7.0/toolchain/avr32/avr32-gnu-toolchain/bin/../lib/gcc/avr32/4.4.7/../../../../avr32/lib/ucr2\libc.a(lib_a-reent.o)
 .debug_pubnames
                0x00002314       0x1f d:/program files (x86)/atmel/studio/7.0/toolchain/avr32/avr32-gnu-toolchain/bin/../lib/gcc/avr32/4.4.7/../../../../avr32/lib/ucr2\libc.a(lib_a-s_isinfd.o)
 .debug_pubnames
                0x00002333       0x1f d:/program files (x86)/atmel/studio/7.0/toolchain/avr32/avr32-gnu-toolchain/bin/../lib/gcc/avr32/4.4.7/../../../../avr32/lib/ucr2\libc.a(lib_a-s_isnand.o)
 .debug_pubnames
                0x00002352       0x44 d:/program files (x86)/atmel/studio/7.0/toolchain/avr32/avr32-gnu-toolchain/bin/../lib/gcc/avr32/4.4.7/../../../../avr32/lib/ucr2\libc.a(lib_a-stdio.o)
 .debug_pubnames
                0x00002396       0x1f d:/program files (x86)/atmel/studio/7.0/toolchain/avr32/avr32-gnu-toolchain/bin/../lib/gcc/avr32/4.4.7/../../../../avr32/lib/ucr2\libc.a(lib_a-writer.o)
 .debug_pubnames
                0x000023b5       0x20 d:/program files (x86)/atmel/studio/7.0/toolchain/avr32/avr32-gnu-toolchain/bin/../lib/gcc/avr32/4.4.7/../../../../avr32/lib/ucr2\libc.a(lib_a-callocr.o)
 .debug_pubnames
                0x000023d5       0x1f d:/program files (x86)/atmel/studio/7.0/toolchain/avr32/avr32-gnu-toolchain/bin/../lib/gcc/avr32/4.4.7/../../../../avr32/lib/ucr2\libc.a(lib_a-closer.o)
 .debug_pubnames
                0x000023f4       0x2b d:/program files (x86)/atmel/studio/7.0/toolchain/avr32/avr32-gnu-toolchain/bin/../lib/gcc/avr32/4.4.7/../../../../avr32/lib/ucr2\libc.a(lib_a-fclose.o)
 .debug_pubnames
                0x0000241f       0x1f d:/program files (x86)/atmel/studio/7.0/toolchain/avr32/avr32-gnu-toolchain/bin/../lib/gcc/avr32/4.4.7/../../../../avr32/lib/ucr2\libc.a(lib_a-fstatr.o)
 .debug_pubnames
                0x0000243e       0x1f d:/program files (x86)/atmel/studio/7.0/toolchain/avr32/avr32-gnu-toolchain/bin/../lib/gcc/avr32/4.4.7/../../../../avr32/lib/ucr2\libc.a(lib_a-lseekr.o)
 .debug_pubnames
                0x0000245d       0x1e d:/program files (x86)/atmel/studio/7.0/toolchain/avr32/avr32-gnu-toolchain/bin/../lib/gcc/avr32/4.4.7/../../../../avr32/lib/ucr2\libc.a(lib_a-readr.o)
 .debug_pubnames
                0x0000247b       0x20 d:/program files (x86)/atmel/studio/7.0/toolchain/avr32/avr32-gnu-toolchain/bin/../lib/gcc/avr32/4.4.7/ucr2\libgcc.a(_udivdi3.o)
 .debug_pubnames
                0x0000249b       0x20 d:/program files (x86)/atmel/studio/7.0/toolchain/avr32/avr32-gnu-toolchain/bin/../lib/gcc/avr32/4.4.7/ucr2\libgcc.a(_umoddi3.o)

.debug_info     0x00000000    0x28304
 *(.debug_info .gnu.linkonce.wi.*)
 .debug_info    0x00000000      0xd28 Srouce/Application/app/app.o
 .debug_info    0x00000d28      0x21c Srouce/Application/radio/ambe.o
 .debug_info    0x00000f44       0x58 Srouce/Application/radio/AMBE_audio_2.o
 .debug_info    0x00000f9c      0x17b Srouce/Application/radio/payload.o
 .debug_info    0x00001117       0x58 Srouce/Application/radio/audio.o
 .debug_info    0x0000116f     0x10dc Srouce/Application/radio/physical.o
 .debug_info    0x0000224b     0x1624 Srouce/Application/radio/ssc.o
 .debug_info    0x0000386f     0x1154 Srouce/Application/radio/xcmp.o
 .debug_info    0x000049c3      0xc05 Srouce/Application/radio/xnl.o
 .debug_info    0x000055c8     0x2662 Srouce/Application/rtc/rtc.o
 .debug_info    0x00007c2a      0xf8f Srouce/Application/timers/timer.o
 .debug_info    0x00008bb9      0x599 Srouce/ASF/avr32/drivers/intc/intc.o
 .debug_info    0x00009152     0x117f Srouce/ASF/avr32/drivers/tc/tc.o
 .debug_info    0x0000a2d1      0xfb2 Srouce/ASF/avr32/drivers/twi/twi.o
 .debug_info    0x0000b283     0x1dcb Srouce/ASF/avr32/drivers/usart/usart.o
 .debug_info    0x0000d04e      0x2b5 Srouce/ASF/thirdparty/freertos/freertos-7.0.0/source/list.o
 .debug_info    0x0000d303       0xef Srouce/ASF/thirdparty/freertos/freertos-7.0.0/source/portable/gcc/avr32_uc3/exception.o
 .debug_info    0x0000d3f2      0xac1 Srouce/ASF/thirdparty/freertos/freertos-7.0.0/source/portable/gcc/avr32_uc3/port.o
 .debug_info    0x0000deb3     0x12e4 Srouce/ASF/thirdparty/freertos/freertos-7.0.0/source/portable/gcc/avr32_uc3/read.o
 .debug_info    0x0000f197     0x12d2 Srouce/ASF/thirdparty/freertos/freertos-7.0.0/source/portable/gcc/avr32_uc3/write.o
 .debug_info    0x00010469       0xf8 Srouce/ASF/thirdparty/freertos/freertos-7.0.0/source/portable/memmang/heap_3.o
 .debug_info    0x00010561      0x7b3 Srouce/ASF/thirdparty/freertos/freertos-7.0.0/source/queue.o
 .debug_info    0x00010d14      0xdfb Srouce/ASF/thirdparty/freertos/freertos-7.0.0/source/tasks.o
 .debug_info    0x00011b0f     0x172f Srouce/Log/log.o
 .debug_info    0x0001323e      0x3a0 Srouce/main.o
 .debug_info    0x000135de      0xb17 Srouce/ASF/avr32/drivers/gpio/gpio.o
 .debug_info    0x000140f5       0xc0 Srouce/ASF/avr32/utils/startup/startup_uc3.o
 .debug_info    0x000141b5       0xc7 Srouce/ASF/avr32/utils/startup/trampoline_uc3.o
 .debug_info    0x0001427c      0x8ea d:/program files (x86)/atmel/studio/7.0/toolchain/avr32/avr32-gnu-toolchain/bin/../lib/gcc/avr32/4.4.7/../../../../avr32/lib/ucr2\libc.a(lib_a-malloc.o)
 .debug_info    0x00014b66      0xc4e d:/program files (x86)/atmel/studio/7.0/toolchain/avr32/avr32-gnu-toolchain/bin/../lib/gcc/avr32/4.4.7/../../../../avr32/lib/ucr2\libc.a(lib_a-mallocr.o)
 .debug_info    0x000157b4       0xcd d:/program files (x86)/atmel/studio/7.0/toolchain/avr32/avr32-gnu-toolchain/bin/../lib/gcc/avr32/4.4.7/../../../../avr32/lib/ucr2\libc.a(lib_a-memset.o)
 .debug_info    0x00015881      0xb17 d:/program files (x86)/atmel/studio/7.0/toolchain/avr32/avr32-gnu-toolchain/bin/../lib/gcc/avr32/4.4.7/../../../../avr32/lib/ucr2\libc.a(lib_a-reallocr.o)
 .debug_info    0x00016398      0x8de d:/program files (x86)/atmel/studio/7.0/toolchain/avr32/avr32-gnu-toolchain/bin/../lib/gcc/avr32/4.4.7/../../../../avr32/lib/ucr2\libc.a(lib_a-sbrkr.o)
 .debug_info    0x00016c76      0x989 d:/program files (x86)/atmel/studio/7.0/toolchain/avr32/avr32-gnu-toolchain/bin/../lib/gcc/avr32/4.4.7/../../../../avr32/lib/ucr2\libc.a(lib_a-sprintf.o)
 .debug_info    0x000175ff       0xbe d:/program files (x86)/atmel/studio/7.0/toolchain/avr32/avr32-gnu-toolchain/bin/../lib/gcc/avr32/4.4.7/../../../../avr32/lib/ucr2\libc.a(lib_a-strlen.o)
 .debug_info    0x000176bd      0x93a d:/program files (x86)/atmel/studio/7.0/toolchain/avr32/avr32-gnu-toolchain/bin/../lib/gcc/avr32/4.4.7/../../../../avr32/lib/ucr2\libc.a(lib_a-syscalls.o)
 .debug_info    0x00017ff7     0x15e8 d:/program files (x86)/atmel/studio/7.0/toolchain/avr32/avr32-gnu-toolchain/bin/../lib/gcc/avr32/4.4.7/../../../../avr32/lib/ucr2\libc.a(lib_a-vfprintf.o)
 .debug_info    0x000195df      0x982 d:/program files (x86)/atmel/studio/7.0/toolchain/avr32/avr32-gnu-toolchain/bin/../lib/gcc/avr32/4.4.7/../../../../avr32/lib/ucr2\libc.a(lib_a-wsetup.o)
 .debug_info    0x00019f61      0xcf7 d:/program files (x86)/atmel/studio/7.0/toolchain/avr32/avr32-gnu-toolchain/bin/../lib/gcc/avr32/4.4.7/../../../../avr32/lib/ucr2\libc.a(lib_a-dtoa.o)
 .debug_info    0x0001ac58      0x8a6 d:/program files (x86)/atmel/studio/7.0/toolchain/avr32/avr32-gnu-toolchain/bin/../lib/gcc/avr32/4.4.7/../../../../avr32/lib/ucr2\libc.a(lib_a-errno.o)
 .debug_info    0x0001b4fe      0xa22 d:/program files (x86)/atmel/studio/7.0/toolchain/avr32/avr32-gnu-toolchain/bin/../lib/gcc/avr32/4.4.7/../../../../avr32/lib/ucr2\libc.a(lib_a-fflush.o)
 .debug_info    0x0001bf20      0xc2a d:/program files (x86)/atmel/studio/7.0/toolchain/avr32/avr32-gnu-toolchain/bin/../lib/gcc/avr32/4.4.7/../../../../avr32/lib/ucr2\libc.a(lib_a-findfp.o)
 .debug_info    0x0001cb4a      0xb3d d:/program files (x86)/atmel/studio/7.0/toolchain/avr32/avr32-gnu-toolchain/bin/../lib/gcc/avr32/4.4.7/../../../../avr32/lib/ucr2\libc.a(lib_a-freer.o)
 .debug_info    0x0001d687      0x9fc d:/program files (x86)/atmel/studio/7.0/toolchain/avr32/avr32-gnu-toolchain/bin/../lib/gcc/avr32/4.4.7/../../../../avr32/lib/ucr2\libc.a(lib_a-fvwrite.o)
 .debug_info    0x0001e083      0xa61 d:/program files (x86)/atmel/studio/7.0/toolchain/avr32/avr32-gnu-toolchain/bin/../lib/gcc/avr32/4.4.7/../../../../avr32/lib/ucr2\libc.a(lib_a-fwalk.o)
 .debug_info    0x0001eae4      0x960 d:/program files (x86)/atmel/studio/7.0/toolchain/avr32/avr32-gnu-toolchain/bin/../lib/gcc/avr32/4.4.7/../../../../avr32/lib/ucr2\libc.a(lib_a-impure.o)
 .debug_info    0x0001f444      0xb24 d:/program files (x86)/atmel/studio/7.0/toolchain/avr32/avr32-gnu-toolchain/bin/../lib/gcc/avr32/4.4.7/../../../../avr32/lib/ucr2\libc.a(lib_a-locale.o)
 .debug_info    0x0001ff68      0xa96 d:/program files (x86)/atmel/studio/7.0/toolchain/avr32/avr32-gnu-toolchain/bin/../lib/gcc/avr32/4.4.7/../../../../avr32/lib/ucr2\libc.a(lib_a-makebuf.o)
 .debug_info    0x000209fe       0xe7 d:/program files (x86)/atmel/studio/7.0/toolchain/avr32/avr32-gnu-toolchain/bin/../lib/gcc/avr32/4.4.7/../../../../avr32/lib/ucr2\libc.a(lib_a-memchr.o)
 .debug_info    0x00020ae5      0x102 d:/program files (x86)/atmel/studio/7.0/toolchain/avr32/avr32-gnu-toolchain/bin/../lib/gcc/avr32/4.4.7/../../../../avr32/lib/ucr2\libc.a(lib_a-memmove.o)
 .debug_info    0x00020be7     0x149a d:/program files (x86)/atmel/studio/7.0/toolchain/avr32/avr32-gnu-toolchain/bin/../lib/gcc/avr32/4.4.7/../../../../avr32/lib/ucr2\libc.a(lib_a-mprec.o)
 .debug_info    0x00022081      0x973 d:/program files (x86)/atmel/studio/7.0/toolchain/avr32/avr32-gnu-toolchain/bin/../lib/gcc/avr32/4.4.7/../../../../avr32/lib/ucr2\libc.a(lib_a-reent.o)
 .debug_info    0x000229f4      0x14d d:/program files (x86)/atmel/studio/7.0/toolchain/avr32/avr32-gnu-toolchain/bin/../lib/gcc/avr32/4.4.7/../../../../avr32/lib/ucr2\libc.a(lib_a-s_isinfd.o)
 .debug_info    0x00022b41      0x14c d:/program files (x86)/atmel/studio/7.0/toolchain/avr32/avr32-gnu-toolchain/bin/../lib/gcc/avr32/4.4.7/../../../../avr32/lib/ucr2\libc.a(lib_a-s_isnand.o)
 .debug_info    0x00022c8d      0xa28 d:/program files (x86)/atmel/studio/7.0/toolchain/avr32/avr32-gnu-toolchain/bin/../lib/gcc/avr32/4.4.7/../../../../avr32/lib/ucr2\libc.a(lib_a-stdio.o)
 .debug_info    0x000236b5      0x90d d:/program files (x86)/atmel/studio/7.0/toolchain/avr32/avr32-gnu-toolchain/bin/../lib/gcc/avr32/4.4.7/../../../../avr32/lib/ucr2\libc.a(lib_a-writer.o)
 .debug_info    0x00023fc2      0x997 d:/program files (x86)/atmel/studio/7.0/toolchain/avr32/avr32-gnu-toolchain/bin/../lib/gcc/avr32/4.4.7/../../../../avr32/lib/ucr2\libc.a(lib_a-callocr.o)
 .debug_info    0x00024959      0x8d2 d:/program files (x86)/atmel/studio/7.0/toolchain/avr32/avr32-gnu-toolchain/bin/../lib/gcc/avr32/4.4.7/../../../../avr32/lib/ucr2\libc.a(lib_a-closer.o)
 .debug_info    0x0002522b      0x9bc d:/program files (x86)/atmel/studio/7.0/toolchain/avr32/avr32-gnu-toolchain/bin/../lib/gcc/avr32/4.4.7/../../../../avr32/lib/ucr2\libc.a(lib_a-fclose.o)
 .debug_info    0x00025be7      0xa76 d:/program files (x86)/atmel/studio/7.0/toolchain/avr32/avr32-gnu-toolchain/bin/../lib/gcc/avr32/4.4.7/../../../../avr32/lib/ucr2\libc.a(lib_a-fstatr.o)
 .debug_info    0x0002665d      0x8fb d:/program files (x86)/atmel/studio/7.0/toolchain/avr32/avr32-gnu-toolchain/bin/../lib/gcc/avr32/4.4.7/../../../../avr32/lib/ucr2\libc.a(lib_a-lseekr.o)
 .debug_info    0x00026f58      0x906 d:/program files (x86)/atmel/studio/7.0/toolchain/avr32/avr32-gnu-toolchain/bin/../lib/gcc/avr32/4.4.7/../../../../avr32/lib/ucr2\libc.a(lib_a-readr.o)
 .debug_info    0x0002785e      0x57b d:/program files (x86)/atmel/studio/7.0/toolchain/avr32/avr32-gnu-toolchain/bin/../lib/gcc/avr32/4.4.7/ucr2\libgcc.a(_udivdi3.o)
 .debug_info    0x00027dd9      0x52b d:/program files (x86)/atmel/studio/7.0/toolchain/avr32/avr32-gnu-toolchain/bin/../lib/gcc/avr32/4.4.7/ucr2\libgcc.a(_umoddi3.o)

.debug_abbrev   0x00000000     0x6837
 *(.debug_abbrev)
 .debug_abbrev  0x00000000      0x248 Srouce/Application/app/app.o
 .debug_abbrev  0x00000248       0xcb Srouce/Application/radio/ambe.o
 .debug_abbrev  0x00000313       0x52 Srouce/Application/radio/AMBE_audio_2.o
 .debug_abbrev  0x00000365       0xe2 Srouce/Application/radio/payload.o
 .debug_abbrev  0x00000447       0x52 Srouce/Application/radio/audio.o
 .debug_abbrev  0x00000499      0x32b Srouce/Application/radio/physical.o
 .debug_abbrev  0x000007c4      0x233 Srouce/Application/radio/ssc.o
 .debug_abbrev  0x000009f7      0x23c Srouce/Application/radio/xcmp.o
 .debug_abbrev  0x00000c33      0x307 Srouce/Application/radio/xnl.o
 .debug_abbrev  0x00000f3a      0x282 Srouce/Application/rtc/rtc.o
 .debug_abbrev  0x000011bc      0x1f0 Srouce/Application/timers/timer.o
 .debug_abbrev  0x000013ac      0x1f0 Srouce/ASF/avr32/drivers/intc/intc.o
 .debug_abbrev  0x0000159c      0x25a Srouce/ASF/avr32/drivers/tc/tc.o
 .debug_abbrev  0x000017f6      0x2d0 Srouce/ASF/avr32/drivers/twi/twi.o
 .debug_abbrev  0x00001ac6      0x32b Srouce/ASF/avr32/drivers/usart/usart.o
 .debug_abbrev  0x00001df1       0xd9 Srouce/ASF/thirdparty/freertos/freertos-7.0.0/source/list.o
 .debug_abbrev  0x00001eca       0x14 Srouce/ASF/thirdparty/freertos/freertos-7.0.0/source/portable/gcc/avr32_uc3/exception.o
 .debug_abbrev  0x00001ede      0x293 Srouce/ASF/thirdparty/freertos/freertos-7.0.0/source/portable/gcc/avr32_uc3/port.o
 .debug_abbrev  0x00002171      0x14f Srouce/ASF/thirdparty/freertos/freertos-7.0.0/source/portable/gcc/avr32_uc3/read.o
 .debug_abbrev  0x000022c0      0x137 Srouce/ASF/thirdparty/freertos/freertos-7.0.0/source/portable/gcc/avr32_uc3/write.o
 .debug_abbrev  0x000023f7       0xa2 Srouce/ASF/thirdparty/freertos/freertos-7.0.0/source/portable/memmang/heap_3.o
 .debug_abbrev  0x00002499      0x190 Srouce/ASF/thirdparty/freertos/freertos-7.0.0/source/queue.o
 .debug_abbrev  0x00002629      0x267 Srouce/ASF/thirdparty/freertos/freertos-7.0.0/source/tasks.o
 .debug_abbrev  0x00002890      0x2ca Srouce/Log/log.o
 .debug_abbrev  0x00002b5a       0xcc Srouce/main.o
 .debug_abbrev  0x00002c26      0x289 Srouce/ASF/avr32/drivers/gpio/gpio.o
 .debug_abbrev  0x00002eaf       0x12 Srouce/ASF/avr32/utils/startup/startup_uc3.o
 .debug_abbrev  0x00002ec1       0x14 Srouce/ASF/avr32/utils/startup/trampoline_uc3.o
 .debug_abbrev  0x00002ed5      0x178 d:/program files (x86)/atmel/studio/7.0/toolchain/avr32/avr32-gnu-toolchain/bin/../lib/gcc/avr32/4.4.7/../../../../avr32/lib/ucr2\libc.a(lib_a-malloc.o)
 .debug_abbrev  0x0000304d      0x205 d:/program files (x86)/atmel/studio/7.0/toolchain/avr32/avr32-gnu-toolchain/bin/../lib/gcc/avr32/4.4.7/../../../../avr32/lib/ucr2\libc.a(lib_a-mallocr.o)
 .debug_abbrev  0x00003252       0x85 d:/program files (x86)/atmel/studio/7.0/toolchain/avr32/avr32-gnu-toolchain/bin/../lib/gcc/avr32/4.4.7/../../../../avr32/lib/ucr2\libc.a(lib_a-memset.o)
 .debug_abbrev  0x000032d7      0x1c1 d:/program files (x86)/atmel/studio/7.0/toolchain/avr32/avr32-gnu-toolchain/bin/../lib/gcc/avr32/4.4.7/../../../../avr32/lib/ucr2\libc.a(lib_a-reallocr.o)
 .debug_abbrev  0x00003498      0x17f d:/program files (x86)/atmel/studio/7.0/toolchain/avr32/avr32-gnu-toolchain/bin/../lib/gcc/avr32/4.4.7/../../../../avr32/lib/ucr2\libc.a(lib_a-sbrkr.o)
 .debug_abbrev  0x00003617      0x1a4 d:/program files (x86)/atmel/studio/7.0/toolchain/avr32/avr32-gnu-toolchain/bin/../lib/gcc/avr32/4.4.7/../../../../avr32/lib/ucr2\libc.a(lib_a-sprintf.o)
 .debug_abbrev  0x000037bb       0x83 d:/program files (x86)/atmel/studio/7.0/toolchain/avr32/avr32-gnu-toolchain/bin/../lib/gcc/avr32/4.4.7/../../../../avr32/lib/ucr2\libc.a(lib_a-strlen.o)
 .debug_abbrev  0x0000383e      0x19a d:/program files (x86)/atmel/studio/7.0/toolchain/avr32/avr32-gnu-toolchain/bin/../lib/gcc/avr32/4.4.7/../../../../avr32/lib/ucr2\libc.a(lib_a-syscalls.o)
 .debug_abbrev  0x000039d8      0x3dd d:/program files (x86)/atmel/studio/7.0/toolchain/avr32/avr32-gnu-toolchain/bin/../lib/gcc/avr32/4.4.7/../../../../avr32/lib/ucr2\libc.a(lib_a-vfprintf.o)
 .debug_abbrev  0x00003db5      0x16a d:/program files (x86)/atmel/studio/7.0/toolchain/avr32/avr32-gnu-toolchain/bin/../lib/gcc/avr32/4.4.7/../../../../avr32/lib/ucr2\libc.a(lib_a-wsetup.o)
 .debug_abbrev  0x00003f1f      0x251 d:/program files (x86)/atmel/studio/7.0/toolchain/avr32/avr32-gnu-toolchain/bin/../lib/gcc/avr32/4.4.7/../../../../avr32/lib/ucr2\libc.a(lib_a-dtoa.o)
 .debug_abbrev  0x00004170      0x150 d:/program files (x86)/atmel/studio/7.0/toolchain/avr32/avr32-gnu-toolchain/bin/../lib/gcc/avr32/4.4.7/../../../../avr32/lib/ucr2\libc.a(lib_a-errno.o)
 .debug_abbrev  0x000042c0      0x1c6 d:/program files (x86)/atmel/studio/7.0/toolchain/avr32/avr32-gnu-toolchain/bin/../lib/gcc/avr32/4.4.7/../../../../avr32/lib/ucr2\libc.a(lib_a-fflush.o)
 .debug_abbrev  0x00004486      0x28c d:/program files (x86)/atmel/studio/7.0/toolchain/avr32/avr32-gnu-toolchain/bin/../lib/gcc/avr32/4.4.7/../../../../avr32/lib/ucr2\libc.a(lib_a-findfp.o)
 .debug_abbrev  0x00004712      0x1d9 d:/program files (x86)/atmel/studio/7.0/toolchain/avr32/avr32-gnu-toolchain/bin/../lib/gcc/avr32/4.4.7/../../../../avr32/lib/ucr2\libc.a(lib_a-freer.o)
 .debug_abbrev  0x000048eb      0x1b4 d:/program files (x86)/atmel/studio/7.0/toolchain/avr32/avr32-gnu-toolchain/bin/../lib/gcc/avr32/4.4.7/../../../../avr32/lib/ucr2\libc.a(lib_a-fvwrite.o)
 .debug_abbrev  0x00004a9f      0x1df d:/program files (x86)/atmel/studio/7.0/toolchain/avr32/avr32-gnu-toolchain/bin/../lib/gcc/avr32/4.4.7/../../../../avr32/lib/ucr2\libc.a(lib_a-fwalk.o)
 .debug_abbrev  0x00004c7e      0x160 d:/program files (x86)/atmel/studio/7.0/toolchain/avr32/avr32-gnu-toolchain/bin/../lib/gcc/avr32/4.4.7/../../../../avr32/lib/ucr2\libc.a(lib_a-impure.o)
 .debug_abbrev  0x00004dde      0x210 d:/program files (x86)/atmel/studio/7.0/toolchain/avr32/avr32-gnu-toolchain/bin/../lib/gcc/avr32/4.4.7/../../../../avr32/lib/ucr2\libc.a(lib_a-locale.o)
 .debug_abbrev  0x00004fee      0x17b d:/program files (x86)/atmel/studio/7.0/toolchain/avr32/avr32-gnu-toolchain/bin/../lib/gcc/avr32/4.4.7/../../../../avr32/lib/ucr2\libc.a(lib_a-makebuf.o)
 .debug_abbrev  0x00005169       0xb1 d:/program files (x86)/atmel/studio/7.0/toolchain/avr32/avr32-gnu-toolchain/bin/../lib/gcc/avr32/4.4.7/../../../../avr32/lib/ucr2\libc.a(lib_a-memchr.o)
 .debug_abbrev  0x0000521a       0xa2 d:/program files (x86)/atmel/studio/7.0/toolchain/avr32/avr32-gnu-toolchain/bin/../lib/gcc/avr32/4.4.7/../../../../avr32/lib/ucr2\libc.a(lib_a-memmove.o)
 .debug_abbrev  0x000052bc      0x30e d:/program files (x86)/atmel/studio/7.0/toolchain/avr32/avr32-gnu-toolchain/bin/../lib/gcc/avr32/4.4.7/../../../../avr32/lib/ucr2\libc.a(lib_a-mprec.o)
 .debug_abbrev  0x000055ca      0x1e6 d:/program files (x86)/atmel/studio/7.0/toolchain/avr32/avr32-gnu-toolchain/bin/../lib/gcc/avr32/4.4.7/../../../../avr32/lib/ucr2\libc.a(lib_a-reent.o)
 .debug_abbrev  0x000057b0       0xdd d:/program files (x86)/atmel/studio/7.0/toolchain/avr32/avr32-gnu-toolchain/bin/../lib/gcc/avr32/4.4.7/../../../../avr32/lib/ucr2\libc.a(lib_a-s_isinfd.o)
 .debug_abbrev  0x0000588d       0xce d:/program files (x86)/atmel/studio/7.0/toolchain/avr32/avr32-gnu-toolchain/bin/../lib/gcc/avr32/4.4.7/../../../../avr32/lib/ucr2\libc.a(lib_a-s_isnand.o)
 .debug_abbrev  0x0000595b      0x192 d:/program files (x86)/atmel/studio/7.0/toolchain/avr32/avr32-gnu-toolchain/bin/../lib/gcc/avr32/4.4.7/../../../../avr32/lib/ucr2\libc.a(lib_a-stdio.o)
 .debug_abbrev  0x00005aed      0x175 d:/program files (x86)/atmel/studio/7.0/toolchain/avr32/avr32-gnu-toolchain/bin/../lib/gcc/avr32/4.4.7/../../../../avr32/lib/ucr2\libc.a(lib_a-writer.o)
 .debug_abbrev  0x00005c62      0x193 d:/program files (x86)/atmel/studio/7.0/toolchain/avr32/avr32-gnu-toolchain/bin/../lib/gcc/avr32/4.4.7/../../../../avr32/lib/ucr2\libc.a(lib_a-callocr.o)
 .debug_abbrev  0x00005df5      0x170 d:/program files (x86)/atmel/studio/7.0/toolchain/avr32/avr32-gnu-toolchain/bin/../lib/gcc/avr32/4.4.7/../../../../avr32/lib/ucr2\libc.a(lib_a-closer.o)
 .debug_abbrev  0x00005f65      0x1a1 d:/program files (x86)/atmel/studio/7.0/toolchain/avr32/avr32-gnu-toolchain/bin/../lib/gcc/avr32/4.4.7/../../../../avr32/lib/ucr2\libc.a(lib_a-fclose.o)
 .debug_abbrev  0x00006106      0x17f d:/program files (x86)/atmel/studio/7.0/toolchain/avr32/avr32-gnu-toolchain/bin/../lib/gcc/avr32/4.4.7/../../../../avr32/lib/ucr2\libc.a(lib_a-fstatr.o)
 .debug_abbrev  0x00006285      0x17f d:/program files (x86)/atmel/studio/7.0/toolchain/avr32/avr32-gnu-toolchain/bin/../lib/gcc/avr32/4.4.7/../../../../avr32/lib/ucr2\libc.a(lib_a-lseekr.o)
 .debug_abbrev  0x00006404      0x170 d:/program files (x86)/atmel/studio/7.0/toolchain/avr32/avr32-gnu-toolchain/bin/../lib/gcc/avr32/4.4.7/../../../../avr32/lib/ucr2\libc.a(lib_a-readr.o)
 .debug_abbrev  0x00006574      0x15a d:/program files (x86)/atmel/studio/7.0/toolchain/avr32/avr32-gnu-toolchain/bin/../lib/gcc/avr32/4.4.7/ucr2\libgcc.a(_udivdi3.o)
 .debug_abbrev  0x000066ce      0x169 d:/program files (x86)/atmel/studio/7.0/toolchain/avr32/avr32-gnu-toolchain/bin/../lib/gcc/avr32/4.4.7/ucr2\libgcc.a(_umoddi3.o)

.debug_line     0x00000000     0xc247
 *(.debug_line)
 .debug_line    0x00000000      0x4c3 Srouce/Application/app/app.o
 .debug_line    0x000004c3      0x116 Srouce/Application/radio/ambe.o
 .debug_line    0x000005d9       0x4b Srouce/Application/radio/AMBE_audio_2.o
 .debug_line    0x00000624      0x180 Srouce/Application/radio/payload.o
 .debug_line    0x000007a4       0x44 Srouce/Application/radio/audio.o
 .debug_line    0x000007e8      0x501 Srouce/Application/radio/physical.o
 .debug_line    0x00000ce9      0x22b Srouce/Application/radio/ssc.o
 .debug_line    0x00000f14      0x3f6 Srouce/Application/radio/xcmp.o
 .debug_line    0x0000130a      0x2f1 Srouce/Application/radio/xnl.o
 .debug_line    0x000015fb      0x318 Srouce/Application/rtc/rtc.o
 .debug_line    0x00001913      0x1e2 Srouce/Application/timers/timer.o
 .debug_line    0x00001af5      0x1ee Srouce/ASF/avr32/drivers/intc/intc.o
 .debug_line    0x00001ce3      0x2f4 Srouce/ASF/avr32/drivers/tc/tc.o
 .debug_line    0x00001fd7      0x362 Srouce/ASF/avr32/drivers/twi/twi.o
 .debug_line    0x00002339      0x456 Srouce/ASF/avr32/drivers/usart/usart.o
 .debug_line    0x0000278f      0x180 Srouce/ASF/thirdparty/freertos/freertos-7.0.0/source/list.o
 .debug_line    0x0000290f      0x110 Srouce/ASF/thirdparty/freertos/freertos-7.0.0/source/portable/gcc/avr32_uc3/exception.o
 .debug_line    0x00002a1f      0x317 Srouce/ASF/thirdparty/freertos/freertos-7.0.0/source/portable/gcc/avr32_uc3/port.o
 .debug_line    0x00002d36      0x100 Srouce/ASF/thirdparty/freertos/freertos-7.0.0/source/portable/gcc/avr32_uc3/read.o
 .debug_line    0x00002e36       0xff Srouce/ASF/thirdparty/freertos/freertos-7.0.0/source/portable/gcc/avr32_uc3/write.o
 .debug_line    0x00002f35      0x117 Srouce/ASF/thirdparty/freertos/freertos-7.0.0/source/portable/memmang/heap_3.o
 .debug_line    0x0000304c      0x357 Srouce/ASF/thirdparty/freertos/freertos-7.0.0/source/queue.o
 .debug_line    0x000033a3      0x48a Srouce/ASF/thirdparty/freertos/freertos-7.0.0/source/tasks.o
 .debug_line    0x0000382d      0x36d Srouce/Log/log.o
 .debug_line    0x00003b9a       0xbf Srouce/main.o
 .debug_line    0x00003c59      0x3c9 Srouce/ASF/avr32/drivers/gpio/gpio.o
 .debug_line    0x00004022       0xf5 Srouce/ASF/avr32/utils/startup/startup_uc3.o
 .debug_line    0x00004117       0x6a Srouce/ASF/avr32/utils/startup/trampoline_uc3.o
 .debug_line    0x00004181      0x255 d:/program files (x86)/atmel/studio/7.0/toolchain/avr32/avr32-gnu-toolchain/bin/../lib/gcc/avr32/4.4.7/../../../../avr32/lib/ucr2\libc.a(lib_a-malloc.o)
 .debug_line    0x000043d6      0x571 d:/program files (x86)/atmel/studio/7.0/toolchain/avr32/avr32-gnu-toolchain/bin/../lib/gcc/avr32/4.4.7/../../../../avr32/lib/ucr2\libc.a(lib_a-mallocr.o)
 .debug_line    0x00004947      0x1be d:/program files (x86)/atmel/studio/7.0/toolchain/avr32/avr32-gnu-toolchain/bin/../lib/gcc/avr32/4.4.7/../../../../avr32/lib/ucr2\libc.a(lib_a-memset.o)
 .debug_line    0x00004b05      0x389 d:/program files (x86)/atmel/studio/7.0/toolchain/avr32/avr32-gnu-toolchain/bin/../lib/gcc/avr32/4.4.7/../../../../avr32/lib/ucr2\libc.a(lib_a-reallocr.o)
 .debug_line    0x00004e8e      0x258 d:/program files (x86)/atmel/studio/7.0/toolchain/avr32/avr32-gnu-toolchain/bin/../lib/gcc/avr32/4.4.7/../../../../avr32/lib/ucr2\libc.a(lib_a-sbrkr.o)
 .debug_line    0x000050e6      0x2ba d:/program files (x86)/atmel/studio/7.0/toolchain/avr32/avr32-gnu-toolchain/bin/../lib/gcc/avr32/4.4.7/../../../../avr32/lib/ucr2\libc.a(lib_a-sprintf.o)
 .debug_line    0x000053a0      0x1c4 d:/program files (x86)/atmel/studio/7.0/toolchain/avr32/avr32-gnu-toolchain/bin/../lib/gcc/avr32/4.4.7/../../../../avr32/lib/ucr2\libc.a(lib_a-strlen.o)
 .debug_line    0x00005564      0x58e d:/program files (x86)/atmel/studio/7.0/toolchain/avr32/avr32-gnu-toolchain/bin/../lib/gcc/avr32/4.4.7/../../../../avr32/lib/ucr2\libc.a(lib_a-syscalls.o)
 .debug_line    0x00005af2      0xce5 d:/program files (x86)/atmel/studio/7.0/toolchain/avr32/avr32-gnu-toolchain/bin/../lib/gcc/avr32/4.4.7/../../../../avr32/lib/ucr2\libc.a(lib_a-vfprintf.o)
 .debug_line    0x000067d7      0x2a1 d:/program files (x86)/atmel/studio/7.0/toolchain/avr32/avr32-gnu-toolchain/bin/../lib/gcc/avr32/4.4.7/../../../../avr32/lib/ucr2\libc.a(lib_a-wsetup.o)
 .debug_line    0x00006a78      0xc1b d:/program files (x86)/atmel/studio/7.0/toolchain/avr32/avr32-gnu-toolchain/bin/../lib/gcc/avr32/4.4.7/../../../../avr32/lib/ucr2\libc.a(lib_a-dtoa.o)
 .debug_line    0x00007693      0x1ce d:/program files (x86)/atmel/studio/7.0/toolchain/avr32/avr32-gnu-toolchain/bin/../lib/gcc/avr32/4.4.7/../../../../avr32/lib/ucr2\libc.a(lib_a-errno.o)
 .debug_line    0x00007861      0x355 d:/program files (x86)/atmel/studio/7.0/toolchain/avr32/avr32-gnu-toolchain/bin/../lib/gcc/avr32/4.4.7/../../../../avr32/lib/ucr2\libc.a(lib_a-fflush.o)
 .debug_line    0x00007bb6      0x5ad d:/program files (x86)/atmel/studio/7.0/toolchain/avr32/avr32-gnu-toolchain/bin/../lib/gcc/avr32/4.4.7/../../../../avr32/lib/ucr2\libc.a(lib_a-findfp.o)
 .debug_line    0x00008163      0x34c d:/program files (x86)/atmel/studio/7.0/toolchain/avr32/avr32-gnu-toolchain/bin/../lib/gcc/avr32/4.4.7/../../../../avr32/lib/ucr2\libc.a(lib_a-freer.o)
 .debug_line    0x000084af      0x489 d:/program files (x86)/atmel/studio/7.0/toolchain/avr32/avr32-gnu-toolchain/bin/../lib/gcc/avr32/4.4.7/../../../../avr32/lib/ucr2\libc.a(lib_a-fvwrite.o)
 .debug_line    0x00008938      0x2fa d:/program files (x86)/atmel/studio/7.0/toolchain/avr32/avr32-gnu-toolchain/bin/../lib/gcc/avr32/4.4.7/../../../../avr32/lib/ucr2\libc.a(lib_a-fwalk.o)
 .debug_line    0x00008c32      0x1a8 d:/program files (x86)/atmel/studio/7.0/toolchain/avr32/avr32-gnu-toolchain/bin/../lib/gcc/avr32/4.4.7/../../../../avr32/lib/ucr2\libc.a(lib_a-impure.o)
 .debug_line    0x00008dda      0x2bf d:/program files (x86)/atmel/studio/7.0/toolchain/avr32/avr32-gnu-toolchain/bin/../lib/gcc/avr32/4.4.7/../../../../avr32/lib/ucr2\libc.a(lib_a-locale.o)
 .debug_line    0x00009099      0x30b d:/program files (x86)/atmel/studio/7.0/toolchain/avr32/avr32-gnu-toolchain/bin/../lib/gcc/avr32/4.4.7/../../../../avr32/lib/ucr2\libc.a(lib_a-makebuf.o)
 .debug_line    0x000093a4      0x1bf d:/program files (x86)/atmel/studio/7.0/toolchain/avr32/avr32-gnu-toolchain/bin/../lib/gcc/avr32/4.4.7/../../../../avr32/lib/ucr2\libc.a(lib_a-memchr.o)
 .debug_line    0x00009563      0x1d2 d:/program files (x86)/atmel/studio/7.0/toolchain/avr32/avr32-gnu-toolchain/bin/../lib/gcc/avr32/4.4.7/../../../../avr32/lib/ucr2\libc.a(lib_a-memmove.o)
 .debug_line    0x00009735      0xd69 d:/program files (x86)/atmel/studio/7.0/toolchain/avr32/avr32-gnu-toolchain/bin/../lib/gcc/avr32/4.4.7/../../../../avr32/lib/ucr2\libc.a(lib_a-mprec.o)
 .debug_line    0x0000a49e      0x2ec d:/program files (x86)/atmel/studio/7.0/toolchain/avr32/avr32-gnu-toolchain/bin/../lib/gcc/avr32/4.4.7/../../../../avr32/lib/ucr2\libc.a(lib_a-reent.o)
 .debug_line    0x0000a78a      0x1bc d:/program files (x86)/atmel/studio/7.0/toolchain/avr32/avr32-gnu-toolchain/bin/../lib/gcc/avr32/4.4.7/../../../../avr32/lib/ucr2\libc.a(lib_a-s_isinfd.o)
 .debug_line    0x0000a946      0x1b1 d:/program files (x86)/atmel/studio/7.0/toolchain/avr32/avr32-gnu-toolchain/bin/../lib/gcc/avr32/4.4.7/../../../../avr32/lib/ucr2\libc.a(lib_a-s_isnand.o)
 .debug_line    0x0000aaf7      0x303 d:/program files (x86)/atmel/studio/7.0/toolchain/avr32/avr32-gnu-toolchain/bin/../lib/gcc/avr32/4.4.7/../../../../avr32/lib/ucr2\libc.a(lib_a-stdio.o)
 .debug_line    0x0000adfa      0x265 d:/program files (x86)/atmel/studio/7.0/toolchain/avr32/avr32-gnu-toolchain/bin/../lib/gcc/avr32/4.4.7/../../../../avr32/lib/ucr2\libc.a(lib_a-writer.o)
 .debug_line    0x0000b05f      0x1d3 d:/program files (x86)/atmel/studio/7.0/toolchain/avr32/avr32-gnu-toolchain/bin/../lib/gcc/avr32/4.4.7/../../../../avr32/lib/ucr2\libc.a(lib_a-callocr.o)
 .debug_line    0x0000b232      0x259 d:/program files (x86)/atmel/studio/7.0/toolchain/avr32/avr32-gnu-toolchain/bin/../lib/gcc/avr32/4.4.7/../../../../avr32/lib/ucr2\libc.a(lib_a-closer.o)
 .debug_line    0x0000b48b      0x2bf d:/program files (x86)/atmel/studio/7.0/toolchain/avr32/avr32-gnu-toolchain/bin/../lib/gcc/avr32/4.4.7/../../../../avr32/lib/ucr2\libc.a(lib_a-fclose.o)
 .debug_line    0x0000b74a      0x26e d:/program files (x86)/atmel/studio/7.0/toolchain/avr32/avr32-gnu-toolchain/bin/../lib/gcc/avr32/4.4.7/../../../../avr32/lib/ucr2\libc.a(lib_a-fstatr.o)
 .debug_line    0x0000b9b8      0x265 d:/program files (x86)/atmel/studio/7.0/toolchain/avr32/avr32-gnu-toolchain/bin/../lib/gcc/avr32/4.4.7/../../../../avr32/lib/ucr2\libc.a(lib_a-lseekr.o)
 .debug_line    0x0000bc1d      0x264 d:/program files (x86)/atmel/studio/7.0/toolchain/avr32/avr32-gnu-toolchain/bin/../lib/gcc/avr32/4.4.7/../../../../avr32/lib/ucr2\libc.a(lib_a-readr.o)
 .debug_line    0x0000be81      0x1d5 d:/program files (x86)/atmel/studio/7.0/toolchain/avr32/avr32-gnu-toolchain/bin/../lib/gcc/avr32/4.4.7/ucr2\libgcc.a(_udivdi3.o)
 .debug_line    0x0000c056      0x1f1 d:/program files (x86)/atmel/studio/7.0/toolchain/avr32/avr32-gnu-toolchain/bin/../lib/gcc/avr32/4.4.7/ucr2\libgcc.a(_umoddi3.o)

.debug_frame    0x00000000     0x2cf0
 *(.debug_frame)
 .debug_frame   0x00000000      0x4b4 Srouce/Application/app/app.o
 .debug_frame   0x000004b4       0x20 Srouce/Application/radio/ambe.o
 .debug_frame   0x000004d4       0x60 Srouce/Application/radio/payload.o
 .debug_frame   0x00000534      0x144 Srouce/Application/radio/physical.o
 .debug_frame   0x00000678       0x78 Srouce/Application/radio/ssc.o
 .debug_frame   0x000006f0      0x2e8 Srouce/Application/radio/xcmp.o
 .debug_frame   0x000009d8      0x188 Srouce/Application/radio/xnl.o
 .debug_frame   0x00000b60       0xc4 Srouce/Application/rtc/rtc.o
 .debug_frame   0x00000c24       0x50 Srouce/Application/timers/timer.o
 .debug_frame   0x00000c74       0x64 Srouce/ASF/avr32/drivers/intc/intc.o
 .debug_frame   0x00000cd8      0x148 Srouce/ASF/avr32/drivers/tc/tc.o
 .debug_frame   0x00000e20      0x124 Srouce/ASF/avr32/drivers/twi/twi.o
 .debug_frame   0x00000f44      0x2ac Srouce/ASF/avr32/drivers/usart/usart.o
 .debug_frame   0x000011f0       0x60 Srouce/ASF/thirdparty/freertos/freertos-7.0.0/source/list.o
 .debug_frame   0x00001250       0xfc Srouce/ASF/thirdparty/freertos/freertos-7.0.0/source/portable/gcc/avr32_uc3/port.o
 .debug_frame   0x0000134c       0x34 Srouce/ASF/thirdparty/freertos/freertos-7.0.0/source/portable/gcc/avr32_uc3/read.o
 .debug_frame   0x00001380       0x34 Srouce/ASF/thirdparty/freertos/freertos-7.0.0/source/portable/gcc/avr32_uc3/write.o
 .debug_frame   0x000013b4       0x48 Srouce/ASF/thirdparty/freertos/freertos-7.0.0/source/portable/memmang/heap_3.o
 .debug_frame   0x000013fc      0x1a8 Srouce/ASF/thirdparty/freertos/freertos-7.0.0/source/queue.o
 .debug_frame   0x000015a4      0x348 Srouce/ASF/thirdparty/freertos/freertos-7.0.0/source/tasks.o
 .debug_frame   0x000018ec      0x170 Srouce/Log/log.o
 .debug_frame   0x00001a5c       0x28 Srouce/main.o
 .debug_frame   0x00001a84      0x204 Srouce/ASF/avr32/drivers/gpio/gpio.o
 .debug_frame   0x00001c88       0x40 d:/program files (x86)/atmel/studio/7.0/toolchain/avr32/avr32-gnu-toolchain/bin/../lib/gcc/avr32/4.4.7/../../../../avr32/lib/ucr2\libc.a(lib_a-malloc.o)
 .debug_frame   0x00001cc8       0x40 d:/program files (x86)/atmel/studio/7.0/toolchain/avr32/avr32-gnu-toolchain/bin/../lib/gcc/avr32/4.4.7/../../../../avr32/lib/ucr2\libc.a(lib_a-mallocr.o)
 .debug_frame   0x00001d08       0x20 d:/program files (x86)/atmel/studio/7.0/toolchain/avr32/avr32-gnu-toolchain/bin/../lib/gcc/avr32/4.4.7/../../../../avr32/lib/ucr2\libc.a(lib_a-memset.o)
 .debug_frame   0x00001d28       0x44 d:/program files (x86)/atmel/studio/7.0/toolchain/avr32/avr32-gnu-toolchain/bin/../lib/gcc/avr32/4.4.7/../../../../avr32/lib/ucr2\libc.a(lib_a-reallocr.o)
 .debug_frame   0x00001d6c       0x34 d:/program files (x86)/atmel/studio/7.0/toolchain/avr32/avr32-gnu-toolchain/bin/../lib/gcc/avr32/4.4.7/../../../../avr32/lib/ucr2\libc.a(lib_a-sbrkr.o)
 .debug_frame   0x00001da0       0x48 d:/program files (x86)/atmel/studio/7.0/toolchain/avr32/avr32-gnu-toolchain/bin/../lib/gcc/avr32/4.4.7/../../../../avr32/lib/ucr2\libc.a(lib_a-sprintf.o)
 .debug_frame   0x00001de8       0x20 d:/program files (x86)/atmel/studio/7.0/toolchain/avr32/avr32-gnu-toolchain/bin/../lib/gcc/avr32/4.4.7/../../../../avr32/lib/ucr2\libc.a(lib_a-strlen.o)
 .debug_frame   0x00001e08      0x220 d:/program files (x86)/atmel/studio/7.0/toolchain/avr32/avr32-gnu-toolchain/bin/../lib/gcc/avr32/4.4.7/../../../../avr32/lib/ucr2\libc.a(lib_a-syscalls.o)
 .debug_frame   0x00002028      0x258 d:/program files (x86)/atmel/studio/7.0/toolchain/avr32/avr32-gnu-toolchain/bin/../lib/gcc/avr32/4.4.7/../../../../avr32/lib/ucr2\libc.a(lib_a-vfprintf.o)
 .debug_frame   0x00002280       0x34 d:/program files (x86)/atmel/studio/7.0/toolchain/avr32/avr32-gnu-toolchain/bin/../lib/gcc/avr32/4.4.7/../../../../avr32/lib/ucr2\libc.a(lib_a-wsetup.o)
 .debug_frame   0x000022b4       0x78 d:/program files (x86)/atmel/studio/7.0/toolchain/avr32/avr32-gnu-toolchain/bin/../lib/gcc/avr32/4.4.7/../../../../avr32/lib/ucr2\libc.a(lib_a-dtoa.o)
 .debug_frame   0x0000232c       0x20 d:/program files (x86)/atmel/studio/7.0/toolchain/avr32/avr32-gnu-toolchain/bin/../lib/gcc/avr32/4.4.7/../../../../avr32/lib/ucr2\libc.a(lib_a-errno.o)
 .debug_frame   0x0000234c       0x4c d:/program files (x86)/atmel/studio/7.0/toolchain/avr32/avr32-gnu-toolchain/bin/../lib/gcc/avr32/4.4.7/../../../../avr32/lib/ucr2\libc.a(lib_a-fflush.o)
 .debug_frame   0x00002398      0x13c d:/program files (x86)/atmel/studio/7.0/toolchain/avr32/avr32-gnu-toolchain/bin/../lib/gcc/avr32/4.4.7/../../../../avr32/lib/ucr2\libc.a(lib_a-findfp.o)
 .debug_frame   0x000024d4       0x58 d:/program files (x86)/atmel/studio/7.0/toolchain/avr32/avr32-gnu-toolchain/bin/../lib/gcc/avr32/4.4.7/../../../../avr32/lib/ucr2\libc.a(lib_a-freer.o)
 .debug_frame   0x0000252c       0x44 d:/program files (x86)/atmel/studio/7.0/toolchain/avr32/avr32-gnu-toolchain/bin/../lib/gcc/avr32/4.4.7/../../../../avr32/lib/ucr2\libc.a(lib_a-fvwrite.o)
 .debug_frame   0x00002570       0x70 d:/program files (x86)/atmel/studio/7.0/toolchain/avr32/avr32-gnu-toolchain/bin/../lib/gcc/avr32/4.4.7/../../../../avr32/lib/ucr2\libc.a(lib_a-fwalk.o)
 .debug_frame   0x000025e0       0x7c d:/program files (x86)/atmel/studio/7.0/toolchain/avr32/avr32-gnu-toolchain/bin/../lib/gcc/avr32/4.4.7/../../../../avr32/lib/ucr2\libc.a(lib_a-locale.o)
 .debug_frame   0x0000265c       0x38 d:/program files (x86)/atmel/studio/7.0/toolchain/avr32/avr32-gnu-toolchain/bin/../lib/gcc/avr32/4.4.7/../../../../avr32/lib/ucr2\libc.a(lib_a-makebuf.o)
 .debug_frame   0x00002694       0x20 d:/program files (x86)/atmel/studio/7.0/toolchain/avr32/avr32-gnu-toolchain/bin/../lib/gcc/avr32/4.4.7/../../../../avr32/lib/ucr2\libc.a(lib_a-memchr.o)
 .debug_frame   0x000026b4       0x28 d:/program files (x86)/atmel/studio/7.0/toolchain/avr32/avr32-gnu-toolchain/bin/../lib/gcc/avr32/4.4.7/../../../../avr32/lib/ucr2\libc.a(lib_a-memmove.o)
 .debug_frame   0x000026dc      0x2b4 d:/program files (x86)/atmel/studio/7.0/toolchain/avr32/avr32-gnu-toolchain/bin/../lib/gcc/avr32/4.4.7/../../../../avr32/lib/ucr2\libc.a(lib_a-mprec.o)
 .debug_frame   0x00002990       0x80 d:/program files (x86)/atmel/studio/7.0/toolchain/avr32/avr32-gnu-toolchain/bin/../lib/gcc/avr32/4.4.7/../../../../avr32/lib/ucr2\libc.a(lib_a-reent.o)
 .debug_frame   0x00002a10       0x20 d:/program files (x86)/atmel/studio/7.0/toolchain/avr32/avr32-gnu-toolchain/bin/../lib/gcc/avr32/4.4.7/../../../../avr32/lib/ucr2\libc.a(lib_a-s_isinfd.o)
 .debug_frame   0x00002a30       0x20 d:/program files (x86)/atmel/studio/7.0/toolchain/avr32/avr32-gnu-toolchain/bin/../lib/gcc/avr32/4.4.7/../../../../avr32/lib/ucr2\libc.a(lib_a-s_isnand.o)
 .debug_frame   0x00002a50       0x94 d:/program files (x86)/atmel/studio/7.0/toolchain/avr32/avr32-gnu-toolchain/bin/../lib/gcc/avr32/4.4.7/../../../../avr32/lib/ucr2\libc.a(lib_a-stdio.o)
 .debug_frame   0x00002ae4       0x34 d:/program files (x86)/atmel/studio/7.0/toolchain/avr32/avr32-gnu-toolchain/bin/../lib/gcc/avr32/4.4.7/../../../../avr32/lib/ucr2\libc.a(lib_a-writer.o)
 .debug_frame   0x00002b18       0x34 d:/program files (x86)/atmel/studio/7.0/toolchain/avr32/avr32-gnu-toolchain/bin/../lib/gcc/avr32/4.4.7/../../../../avr32/lib/ucr2\libc.a(lib_a-callocr.o)
 .debug_frame   0x00002b4c       0x34 d:/program files (x86)/atmel/studio/7.0/toolchain/avr32/avr32-gnu-toolchain/bin/../lib/gcc/avr32/4.4.7/../../../../avr32/lib/ucr2\libc.a(lib_a-closer.o)
 .debug_frame   0x00002b80       0x4c d:/program files (x86)/atmel/studio/7.0/toolchain/avr32/avr32-gnu-toolchain/bin/../lib/gcc/avr32/4.4.7/../../../../avr32/lib/ucr2\libc.a(lib_a-fclose.o)
 .debug_frame   0x00002bcc       0x34 d:/program files (x86)/atmel/studio/7.0/toolchain/avr32/avr32-gnu-toolchain/bin/../lib/gcc/avr32/4.4.7/../../../../avr32/lib/ucr2\libc.a(lib_a-fstatr.o)
 .debug_frame   0x00002c00       0x34 d:/program files (x86)/atmel/studio/7.0/toolchain/avr32/avr32-gnu-toolchain/bin/../lib/gcc/avr32/4.4.7/../../../../avr32/lib/ucr2\libc.a(lib_a-lseekr.o)
 .debug_frame   0x00002c34       0x34 d:/program files (x86)/atmel/studio/7.0/toolchain/avr32/avr32-gnu-toolchain/bin/../lib/gcc/avr32/4.4.7/../../../../avr32/lib/ucr2\libc.a(lib_a-readr.o)
 .debug_frame   0x00002c68       0x44 d:/program files (x86)/atmel/studio/7.0/toolchain/avr32/avr32-gnu-toolchain/bin/../lib/gcc/avr32/4.4.7/ucr2\libgcc.a(_udivdi3.o)
 .debug_frame   0x00002cac       0x44 d:/program files (x86)/atmel/studio/7.0/toolchain/avr32/avr32-gnu-toolchain/bin/../lib/gcc/avr32/4.4.7/ucr2\libgcc.a(_umoddi3.o)

.debug_str      0x00000000     0x6c97
 *(.debug_str)
 .debug_str     0x00000000      0x7e3 Srouce/Application/app/app.o
                                0x840 (size before relaxing)
 .debug_str     0x000007e3      0x15e Srouce/Application/radio/ambe.o
                                0x28c (size before relaxing)
 .debug_str     0x00000941       0x3a Srouce/Application/radio/AMBE_audio_2.o
                                 0xb7 (size before relaxing)
 .debug_str     0x0000097b       0xb0 Srouce/Application/radio/payload.o
                                0x1f3 (size before relaxing)
 .debug_str     0x00000a2b       0x24 Srouce/Application/radio/audio.o
                                 0xab (size before relaxing)
 .debug_str     0x00000a4f      0x91e Srouce/Application/radio/physical.o
                                0xd1b (size before relaxing)
 .debug_str     0x0000136d      0x4ee Srouce/Application/radio/ssc.o
                                0x735 (size before relaxing)
 .debug_str     0x0000185b      0x575 Srouce/Application/radio/xcmp.o
                                0xcab (size before relaxing)
 .debug_str     0x00001dd0      0x271 Srouce/Application/radio/xnl.o
                                0x8c9 (size before relaxing)
 .debug_str     0x00002041      0x9d9 Srouce/Application/rtc/rtc.o
                                0xbac (size before relaxing)
 .debug_str     0x00002a1a      0x259 Srouce/Application/timers/timer.o
                                0x4e6 (size before relaxing)
 .debug_str     0x00002c73      0x365 Srouce/ASF/avr32/drivers/intc/intc.o
                                0x496 (size before relaxing)
 .debug_str     0x00002fd8      0x195 Srouce/ASF/avr32/drivers/tc/tc.o
                                0x4fe (size before relaxing)
 .debug_str     0x0000316d      0x1d8 Srouce/ASF/avr32/drivers/twi/twi.o
                                0x4f4 (size before relaxing)
 .debug_str     0x00003345      0x736 Srouce/ASF/avr32/drivers/usart/usart.o
                                0x930 (size before relaxing)
 .debug_str     0x00003a7b      0x15d Srouce/ASF/thirdparty/freertos/freertos-7.0.0/source/list.o
                                0x284 (size before relaxing)
 .debug_str     0x00003bd8      0x4b3 Srouce/ASF/thirdparty/freertos/freertos-7.0.0/source/portable/gcc/avr32_uc3/port.o
                                0x654 (size before relaxing)
 .debug_str     0x0000408b       0x6e Srouce/ASF/thirdparty/freertos/freertos-7.0.0/source/portable/gcc/avr32_uc3/read.o
                                0x562 (size before relaxing)
 .debug_str     0x000040f9       0x57 Srouce/ASF/thirdparty/freertos/freertos-7.0.0/source/portable/gcc/avr32_uc3/write.o
                                0x564 (size before relaxing)
 .debug_str     0x00004150       0x69 Srouce/ASF/thirdparty/freertos/freertos-7.0.0/source/portable/memmang/heap_3.o
                                0x199 (size before relaxing)
 .debug_str     0x000041b9      0x32a Srouce/ASF/thirdparty/freertos/freertos-7.0.0/source/queue.o
                                0x50e (size before relaxing)
 .debug_str     0x000044e3      0x692 Srouce/ASF/thirdparty/freertos/freertos-7.0.0/source/tasks.o
                                0x8e8 (size before relaxing)
 .debug_str     0x00004b75       0xbf Srouce/Log/log.o
                                0x645 (size before relaxing)
 .debug_str     0x00004c34       0x16 Srouce/main.o
                                0x244 (size before relaxing)
 .debug_str     0x00004c4a      0x301 Srouce/ASF/avr32/drivers/gpio/gpio.o
                                0x55d (size before relaxing)
 .debug_str     0x00004f4b       0x81 d:/program files (x86)/atmel/studio/7.0/toolchain/avr32/avr32-gnu-toolchain/bin/../lib/gcc/avr32/4.4.7/../../../../avr32/lib/ucr2\libc.a(lib_a-malloc.o)
                                0x4c4 (size before relaxing)
 .debug_str     0x00004fcc      0x23b d:/program files (x86)/atmel/studio/7.0/toolchain/avr32/avr32-gnu-toolchain/bin/../lib/gcc/avr32/4.4.7/../../../../avr32/lib/ucr2\libc.a(lib_a-mallocr.o)
                                0x699 (size before relaxing)
 .debug_str     0x00005207       0x75 d:/program files (x86)/atmel/studio/7.0/toolchain/avr32/avr32-gnu-toolchain/bin/../lib/gcc/avr32/4.4.7/../../../../avr32/lib/ucr2\libc.a(lib_a-memset.o)
                                0x111 (size before relaxing)
 .debug_str     0x0000527c       0x61 d:/program files (x86)/atmel/studio/7.0/toolchain/avr32/avr32-gnu-toolchain/bin/../lib/gcc/avr32/4.4.7/../../../../avr32/lib/ucr2\libc.a(lib_a-reallocr.o)
                                0x56b (size before relaxing)
 .debug_str     0x000052dd       0x83 d:/program files (x86)/atmel/studio/7.0/toolchain/avr32/avr32-gnu-toolchain/bin/../lib/gcc/avr32/4.4.7/../../../../avr32/lib/ucr2\libc.a(lib_a-sbrkr.o)
                                0x4b4 (size before relaxing)
 .debug_str     0x00005360       0x81 d:/program files (x86)/atmel/studio/7.0/toolchain/avr32/avr32-gnu-toolchain/bin/../lib/gcc/avr32/4.4.7/../../../../avr32/lib/ucr2\libc.a(lib_a-sprintf.o)
                                0x4e6 (size before relaxing)
 .debug_str     0x000053e1       0x75 d:/program files (x86)/atmel/studio/7.0/toolchain/avr32/avr32-gnu-toolchain/bin/../lib/gcc/avr32/4.4.7/../../../../avr32/lib/ucr2\libc.a(lib_a-strlen.o)
                                0x117 (size before relaxing)
 .debug_str     0x00005456      0x317 d:/program files (x86)/atmel/studio/7.0/toolchain/avr32/avr32-gnu-toolchain/bin/../lib/gcc/avr32/4.4.7/../../../../avr32/lib/ucr2\libc.a(lib_a-syscalls.o)
                                0x43d (size before relaxing)
 .debug_str     0x0000576d      0x449 d:/program files (x86)/atmel/studio/7.0/toolchain/avr32/avr32-gnu-toolchain/bin/../lib/gcc/avr32/4.4.7/../../../../avr32/lib/ucr2\libc.a(lib_a-vfprintf.o)
                                0x999 (size before relaxing)
 .debug_str     0x00005bb6       0x79 d:/program files (x86)/atmel/studio/7.0/toolchain/avr32/avr32-gnu-toolchain/bin/../lib/gcc/avr32/4.4.7/../../../../avr32/lib/ucr2\libc.a(lib_a-wsetup.o)
                                0x4f4 (size before relaxing)
 .debug_str     0x00005c2f      0x135 d:/program files (x86)/atmel/studio/7.0/toolchain/avr32/avr32-gnu-toolchain/bin/../lib/gcc/avr32/4.4.7/../../../../avr32/lib/ucr2\libc.a(lib_a-dtoa.o)
                                0x5a9 (size before relaxing)
 .debug_str     0x00005d64       0x74 d:/program files (x86)/atmel/studio/7.0/toolchain/avr32/avr32-gnu-toolchain/bin/../lib/gcc/avr32/4.4.7/../../../../avr32/lib/ucr2\libc.a(lib_a-errno.o)
                                0x4ab (size before relaxing)
 .debug_str     0x00005dd8       0x98 d:/program files (x86)/atmel/studio/7.0/toolchain/avr32/avr32-gnu-toolchain/bin/../lib/gcc/avr32/4.4.7/../../../../avr32/lib/ucr2\libc.a(lib_a-fflush.o)
                                0x51a (size before relaxing)
 .debug_str     0x00005e70      0x135 d:/program files (x86)/atmel/studio/7.0/toolchain/avr32/avr32-gnu-toolchain/bin/../lib/gcc/avr32/4.4.7/../../../../avr32/lib/ucr2\libc.a(lib_a-findfp.o)
                                0x5dc (size before relaxing)
 .debug_str     0x00005fa5       0x3c d:/program files (x86)/atmel/studio/7.0/toolchain/avr32/avr32-gnu-toolchain/bin/../lib/gcc/avr32/4.4.7/../../../../avr32/lib/ucr2\libc.a(lib_a-freer.o)
                                0x5eb (size before relaxing)
 .debug_str     0x00005fe1       0x91 d:/program files (x86)/atmel/studio/7.0/toolchain/avr32/avr32-gnu-toolchain/bin/../lib/gcc/avr32/4.4.7/../../../../avr32/lib/ucr2\libc.a(lib_a-fvwrite.o)
                                0x50c (size before relaxing)
 .debug_str     0x00006072       0x91 d:/program files (x86)/atmel/studio/7.0/toolchain/avr32/avr32-gnu-toolchain/bin/../lib/gcc/avr32/4.4.7/../../../../avr32/lib/ucr2\libc.a(lib_a-fwalk.o)
                                0x4de (size before relaxing)
 .debug_str     0x00006103       0x79 d:/program files (x86)/atmel/studio/7.0/toolchain/avr32/avr32-gnu-toolchain/bin/../lib/gcc/avr32/4.4.7/../../../../avr32/lib/ucr2\libc.a(lib_a-impure.o)
                                0x502 (size before relaxing)
 .debug_str     0x0000617c      0x1cc d:/program files (x86)/atmel/studio/7.0/toolchain/avr32/avr32-gnu-toolchain/bin/../lib/gcc/avr32/4.4.7/../../../../avr32/lib/ucr2\libc.a(lib_a-locale.o)
                                0x651 (size before relaxing)
 .debug_str     0x00006348       0x86 d:/program files (x86)/atmel/studio/7.0/toolchain/avr32/avr32-gnu-toolchain/bin/../lib/gcc/avr32/4.4.7/../../../../avr32/lib/ucr2\libc.a(lib_a-makebuf.o)
                                0x5af (size before relaxing)
 .debug_str     0x000063ce       0x7e d:/program files (x86)/atmel/studio/7.0/toolchain/avr32/avr32-gnu-toolchain/bin/../lib/gcc/avr32/4.4.7/../../../../avr32/lib/ucr2\libc.a(lib_a-memchr.o)
                                0x121 (size before relaxing)
 .debug_str     0x0000644c       0x80 d:/program files (x86)/atmel/studio/7.0/toolchain/avr32/avr32-gnu-toolchain/bin/../lib/gcc/avr32/4.4.7/../../../../avr32/lib/ucr2\libc.a(lib_a-memmove.o)
                                0x12c (size before relaxing)
 .debug_str     0x000064cc      0x12b d:/program files (x86)/atmel/studio/7.0/toolchain/avr32/avr32-gnu-toolchain/bin/../lib/gcc/avr32/4.4.7/../../../../avr32/lib/ucr2\libc.a(lib_a-mprec.o)
                                0x5b6 (size before relaxing)
 .debug_str     0x000065f7       0xa6 d:/program files (x86)/atmel/studio/7.0/toolchain/avr32/avr32-gnu-toolchain/bin/../lib/gcc/avr32/4.4.7/../../../../avr32/lib/ucr2\libc.a(lib_a-reent.o)
                                0x4e8 (size before relaxing)
 .debug_str     0x0000669d       0xa5 d:/program files (x86)/atmel/studio/7.0/toolchain/avr32/avr32-gnu-toolchain/bin/../lib/gcc/avr32/4.4.7/../../../../avr32/lib/ucr2\libc.a(lib_a-s_isinfd.o)
                                0x164 (size before relaxing)
 .debug_str     0x00006742       0x79 d:/program files (x86)/atmel/studio/7.0/toolchain/avr32/avr32-gnu-toolchain/bin/../lib/gcc/avr32/4.4.7/../../../../avr32/lib/ucr2\libc.a(lib_a-s_isnand.o)
                                0x164 (size before relaxing)
 .debug_str     0x000067bb       0x8e d:/program files (x86)/atmel/studio/7.0/toolchain/avr32/avr32-gnu-toolchain/bin/../lib/gcc/avr32/4.4.7/../../../../avr32/lib/ucr2\libc.a(lib_a-stdio.o)
                                0x4da (size before relaxing)
 .debug_str     0x00006849       0x7f d:/program files (x86)/atmel/studio/7.0/toolchain/avr32/avr32-gnu-toolchain/bin/../lib/gcc/avr32/4.4.7/../../../../avr32/lib/ucr2\libc.a(lib_a-writer.o)
                                0x4b7 (size before relaxing)
 .debug_str     0x000068c8       0x19 d:/program files (x86)/atmel/studio/7.0/toolchain/avr32/avr32-gnu-toolchain/bin/../lib/gcc/avr32/4.4.7/../../../../avr32/lib/ucr2\libc.a(lib_a-callocr.o)
                                0x4ea (size before relaxing)
 .debug_str     0x000068e1       0x76 d:/program files (x86)/atmel/studio/7.0/toolchain/avr32/avr32-gnu-toolchain/bin/../lib/gcc/avr32/4.4.7/../../../../avr32/lib/ucr2\libc.a(lib_a-closer.o)
                                0x4a7 (size before relaxing)
 .debug_str     0x00006957       0x7e d:/program files (x86)/atmel/studio/7.0/toolchain/avr32/avr32-gnu-toolchain/bin/../lib/gcc/avr32/4.4.7/../../../../avr32/lib/ucr2\libc.a(lib_a-fclose.o)
                                0x4fe (size before relaxing)
 .debug_str     0x000069d5       0x7c d:/program files (x86)/atmel/studio/7.0/toolchain/avr32/avr32-gnu-toolchain/bin/../lib/gcc/avr32/4.4.7/../../../../avr32/lib/ucr2\libc.a(lib_a-fstatr.o)
                                0x59a (size before relaxing)
 .debug_str     0x00006a51       0x76 d:/program files (x86)/atmel/studio/7.0/toolchain/avr32/avr32-gnu-toolchain/bin/../lib/gcc/avr32/4.4.7/../../../../avr32/lib/ucr2\libc.a(lib_a-lseekr.o)
                                0x4b5 (size before relaxing)
 .debug_str     0x00006ac7       0x74 d:/program files (x86)/atmel/studio/7.0/toolchain/avr32/avr32-gnu-toolchain/bin/../lib/gcc/avr32/4.4.7/../../../../avr32/lib/ucr2\libc.a(lib_a-readr.o)
                                0x4b5 (size before relaxing)
 .debug_str     0x00006b3b      0x152 d:/program files (x86)/atmel/studio/7.0/toolchain/avr32/avr32-gnu-toolchain/bin/../lib/gcc/avr32/4.4.7/ucr2\libgcc.a(_udivdi3.o)
                                0x207 (size before relaxing)
 .debug_str     0x00006c8d        0xa d:/program files (x86)/atmel/studio/7.0/toolchain/avr32/avr32-gnu-toolchain/bin/../lib/gcc/avr32/4.4.7/ucr2\libgcc.a(_umoddi3.o)
                                0x207 (size before relaxing)

.debug_loc      0x00000000     0xca4f
 *(.debug_loc)
 .debug_loc     0x00000000      0xa9c Srouce/Application/app/app.o
 .debug_loc     0x00000a9c       0x13 Srouce/Application/radio/ambe.o
 .debug_loc     0x00000aaf       0xbe Srouce/Application/radio/payload.o
 .debug_loc     0x00000b6d      0x7ec Srouce/Application/radio/physical.o
 .debug_loc     0x00001359       0x5d Srouce/Application/radio/ssc.o
 .debug_loc     0x000013b6      0x645 Srouce/Application/radio/xcmp.o
 .debug_loc     0x000019fb      0x385 Srouce/Application/radio/xnl.o
 .debug_loc     0x00001d80      0x109 Srouce/Application/rtc/rtc.o
 .debug_loc     0x00001e89       0x3e Srouce/Application/timers/timer.o
 .debug_loc     0x00001ec7       0xd3 Srouce/ASF/avr32/drivers/intc/intc.o
 .debug_loc     0x00001f9a      0x3ff Srouce/ASF/avr32/drivers/tc/tc.o
 .debug_loc     0x00002399      0x35e Srouce/ASF/avr32/drivers/twi/twi.o
 .debug_loc     0x000026f7      0x9c5 Srouce/ASF/avr32/drivers/usart/usart.o
 .debug_loc     0x000030bc       0x31 Srouce/ASF/thirdparty/freertos/freertos-7.0.0/source/list.o
 .debug_loc     0x000030ed      0x110 Srouce/ASF/thirdparty/freertos/freertos-7.0.0/source/portable/gcc/avr32_uc3/port.o
 .debug_loc     0x000031fd       0xd6 Srouce/ASF/thirdparty/freertos/freertos-7.0.0/source/portable/gcc/avr32_uc3/read.o
 .debug_loc     0x000032d3       0xa2 Srouce/ASF/thirdparty/freertos/freertos-7.0.0/source/portable/gcc/avr32_uc3/write.o
 .debug_loc     0x00003375       0x7a Srouce/ASF/thirdparty/freertos/freertos-7.0.0/source/portable/memmang/heap_3.o
 .debug_loc     0x000033ef      0x63a Srouce/ASF/thirdparty/freertos/freertos-7.0.0/source/queue.o
 .debug_loc     0x00003a29      0x9d1 Srouce/ASF/thirdparty/freertos/freertos-7.0.0/source/tasks.o
 .debug_loc     0x000043fa      0x64c Srouce/Log/log.o
 .debug_loc     0x00004a46       0x1f Srouce/main.o
 .debug_loc     0x00004a65      0x368 Srouce/ASF/avr32/drivers/gpio/gpio.o
 .debug_loc     0x00004dcd       0x64 d:/program files (x86)/atmel/studio/7.0/toolchain/avr32/avr32-gnu-toolchain/bin/../lib/gcc/avr32/4.4.7/../../../../avr32/lib/ucr2\libc.a(lib_a-malloc.o)
 .debug_loc     0x00004e31      0x59a d:/program files (x86)/atmel/studio/7.0/toolchain/avr32/avr32-gnu-toolchain/bin/../lib/gcc/avr32/4.4.7/../../../../avr32/lib/ucr2\libc.a(lib_a-mallocr.o)
 .debug_loc     0x000053cb      0x56e d:/program files (x86)/atmel/studio/7.0/toolchain/avr32/avr32-gnu-toolchain/bin/../lib/gcc/avr32/4.4.7/../../../../avr32/lib/ucr2\libc.a(lib_a-reallocr.o)
 .debug_loc     0x00005939       0x63 d:/program files (x86)/atmel/studio/7.0/toolchain/avr32/avr32-gnu-toolchain/bin/../lib/gcc/avr32/4.4.7/../../../../avr32/lib/ucr2\libc.a(lib_a-sbrkr.o)
 .debug_loc     0x0000599c       0xb7 d:/program files (x86)/atmel/studio/7.0/toolchain/avr32/avr32-gnu-toolchain/bin/../lib/gcc/avr32/4.4.7/../../../../avr32/lib/ucr2\libc.a(lib_a-sprintf.o)
 .debug_loc     0x00005a53       0x1e d:/program files (x86)/atmel/studio/7.0/toolchain/avr32/avr32-gnu-toolchain/bin/../lib/gcc/avr32/4.4.7/../../../../avr32/lib/ucr2\libc.a(lib_a-strlen.o)
 .debug_loc     0x00005a71      0x268 d:/program files (x86)/atmel/studio/7.0/toolchain/avr32/avr32-gnu-toolchain/bin/../lib/gcc/avr32/4.4.7/../../../../avr32/lib/ucr2\libc.a(lib_a-syscalls.o)
 .debug_loc     0x00005cd9     0x2f9f d:/program files (x86)/atmel/studio/7.0/toolchain/avr32/avr32-gnu-toolchain/bin/../lib/gcc/avr32/4.4.7/../../../../avr32/lib/ucr2\libc.a(lib_a-vfprintf.o)
 .debug_loc     0x00008c78       0x5b d:/program files (x86)/atmel/studio/7.0/toolchain/avr32/avr32-gnu-toolchain/bin/../lib/gcc/avr32/4.4.7/../../../../avr32/lib/ucr2\libc.a(lib_a-wsetup.o)
 .debug_loc     0x00008cd3      0xb8a d:/program files (x86)/atmel/studio/7.0/toolchain/avr32/avr32-gnu-toolchain/bin/../lib/gcc/avr32/4.4.7/../../../../avr32/lib/ucr2\libc.a(lib_a-dtoa.o)
 .debug_loc     0x0000985d      0x13f d:/program files (x86)/atmel/studio/7.0/toolchain/avr32/avr32-gnu-toolchain/bin/../lib/gcc/avr32/4.4.7/../../../../avr32/lib/ucr2\libc.a(lib_a-fflush.o)
 .debug_loc     0x0000999c      0x202 d:/program files (x86)/atmel/studio/7.0/toolchain/avr32/avr32-gnu-toolchain/bin/../lib/gcc/avr32/4.4.7/../../../../avr32/lib/ucr2\libc.a(lib_a-findfp.o)
 .debug_loc     0x00009b9e      0x32c d:/program files (x86)/atmel/studio/7.0/toolchain/avr32/avr32-gnu-toolchain/bin/../lib/gcc/avr32/4.4.7/../../../../avr32/lib/ucr2\libc.a(lib_a-freer.o)
 .debug_loc     0x00009eca      0x28e d:/program files (x86)/atmel/studio/7.0/toolchain/avr32/avr32-gnu-toolchain/bin/../lib/gcc/avr32/4.4.7/../../../../avr32/lib/ucr2\libc.a(lib_a-fvwrite.o)
 .debug_loc     0x0000a158       0xe7 d:/program files (x86)/atmel/studio/7.0/toolchain/avr32/avr32-gnu-toolchain/bin/../lib/gcc/avr32/4.4.7/../../../../avr32/lib/ucr2\libc.a(lib_a-fwalk.o)
 .debug_loc     0x0000a23f       0xd1 d:/program files (x86)/atmel/studio/7.0/toolchain/avr32/avr32-gnu-toolchain/bin/../lib/gcc/avr32/4.4.7/../../../../avr32/lib/ucr2\libc.a(lib_a-locale.o)
 .debug_loc     0x0000a310       0xc2 d:/program files (x86)/atmel/studio/7.0/toolchain/avr32/avr32-gnu-toolchain/bin/../lib/gcc/avr32/4.4.7/../../../../avr32/lib/ucr2\libc.a(lib_a-makebuf.o)
 .debug_loc     0x0000a3d2       0x31 d:/program files (x86)/atmel/studio/7.0/toolchain/avr32/avr32-gnu-toolchain/bin/../lib/gcc/avr32/4.4.7/../../../../avr32/lib/ucr2\libc.a(lib_a-memchr.o)
 .debug_loc     0x0000a403       0x81 d:/program files (x86)/atmel/studio/7.0/toolchain/avr32/avr32-gnu-toolchain/bin/../lib/gcc/avr32/4.4.7/../../../../avr32/lib/ucr2\libc.a(lib_a-memmove.o)
 .debug_loc     0x0000a484     0x122d d:/program files (x86)/atmel/studio/7.0/toolchain/avr32/avr32-gnu-toolchain/bin/../lib/gcc/avr32/4.4.7/../../../../avr32/lib/ucr2\libc.a(lib_a-mprec.o)
 .debug_loc     0x0000b6b1      0x10a d:/program files (x86)/atmel/studio/7.0/toolchain/avr32/avr32-gnu-toolchain/bin/../lib/gcc/avr32/4.4.7/../../../../avr32/lib/ucr2\libc.a(lib_a-reent.o)
 .debug_loc     0x0000b7bb       0x43 d:/program files (x86)/atmel/studio/7.0/toolchain/avr32/avr32-gnu-toolchain/bin/../lib/gcc/avr32/4.4.7/../../../../avr32/lib/ucr2\libc.a(lib_a-s_isinfd.o)
 .debug_loc     0x0000b7fe       0x18 d:/program files (x86)/atmel/studio/7.0/toolchain/avr32/avr32-gnu-toolchain/bin/../lib/gcc/avr32/4.4.7/../../../../avr32/lib/ucr2\libc.a(lib_a-s_isnand.o)
 .debug_loc     0x0000b816      0x1ee d:/program files (x86)/atmel/studio/7.0/toolchain/avr32/avr32-gnu-toolchain/bin/../lib/gcc/avr32/4.4.7/../../../../avr32/lib/ucr2\libc.a(lib_a-stdio.o)
 .debug_loc     0x0000ba04       0x94 d:/program files (x86)/atmel/studio/7.0/toolchain/avr32/avr32-gnu-toolchain/bin/../lib/gcc/avr32/4.4.7/../../../../avr32/lib/ucr2\libc.a(lib_a-writer.o)
 .debug_loc     0x0000ba98       0xbd d:/program files (x86)/atmel/studio/7.0/toolchain/avr32/avr32-gnu-toolchain/bin/../lib/gcc/avr32/4.4.7/../../../../avr32/lib/ucr2\libc.a(lib_a-callocr.o)
 .debug_loc     0x0000bb55       0x63 d:/program files (x86)/atmel/studio/7.0/toolchain/avr32/avr32-gnu-toolchain/bin/../lib/gcc/avr32/4.4.7/../../../../avr32/lib/ucr2\libc.a(lib_a-closer.o)
 .debug_loc     0x0000bbb8       0xb6 d:/program files (x86)/atmel/studio/7.0/toolchain/avr32/avr32-gnu-toolchain/bin/../lib/gcc/avr32/4.4.7/../../../../avr32/lib/ucr2\libc.a(lib_a-fclose.o)
 .debug_loc     0x0000bc6e       0x76 d:/program files (x86)/atmel/studio/7.0/toolchain/avr32/avr32-gnu-toolchain/bin/../lib/gcc/avr32/4.4.7/../../../../avr32/lib/ucr2\libc.a(lib_a-fstatr.o)
 .debug_loc     0x0000bce4       0x94 d:/program files (x86)/atmel/studio/7.0/toolchain/avr32/avr32-gnu-toolchain/bin/../lib/gcc/avr32/4.4.7/../../../../avr32/lib/ucr2\libc.a(lib_a-lseekr.o)
 .debug_loc     0x0000bd78       0x94 d:/program files (x86)/atmel/studio/7.0/toolchain/avr32/avr32-gnu-toolchain/bin/../lib/gcc/avr32/4.4.7/../../../../avr32/lib/ucr2\libc.a(lib_a-readr.o)
 .debug_loc     0x0000be0c      0x75d d:/program files (x86)/atmel/studio/7.0/toolchain/avr32/avr32-gnu-toolchain/bin/../lib/gcc/avr32/4.4.7/ucr2\libgcc.a(_udivdi3.o)
 .debug_loc     0x0000c569      0x4e6 d:/program files (x86)/atmel/studio/7.0/toolchain/avr32/avr32-gnu-toolchain/bin/../lib/gcc/avr32/4.4.7/ucr2\libgcc.a(_umoddi3.o)

.debug_macinfo
 *(.debug_macinfo)

.debug_weaknames
 *(.debug_weaknames)

.debug_funcnames
 *(.debug_funcnames)

.debug_typenames
 *(.debug_typenames)

.debug_varnames
 *(.debug_varnames)

.stack          0x00017000     0x1000
                0x00017000                _stack = .
 *(.stack)
                0x00001000                . = __stack_size__
 *fill*         0x00017000     0x1000 
                0x00018000                _estack = .

.userpage
 *(.userpage .userpage.*)

/DISCARD/
 *(.note.GNU-stack)
OUTPUT(moto_gob_prj.elf elf32-avr32)

.debug_ranges   0x00000000     0x1228
 .debug_ranges  0x00000000      0x108 Srouce/Application/app/app.o
 .debug_ranges  0x00000108       0x18 Srouce/Application/radio/ambe.o
 .debug_ranges  0x00000120       0x20 Srouce/Application/radio/payload.o
 .debug_ranges  0x00000140       0x60 Srouce/Application/radio/physical.o
 .debug_ranges  0x000001a0       0x38 Srouce/Application/radio/ssc.o
 .debug_ranges  0x000001d8       0xd8 Srouce/Application/radio/xcmp.o
 .debug_ranges  0x000002b0       0x80 Srouce/Application/radio/xnl.o
 .debug_ranges  0x00000330       0x48 Srouce/Application/rtc/rtc.o
 .debug_ranges  0x00000378       0x28 Srouce/Application/timers/timer.o
 .debug_ranges  0x000003a0       0x48 Srouce/ASF/avr32/drivers/intc/intc.o
 .debug_ranges  0x000003e8       0xa0 Srouce/ASF/avr32/drivers/tc/tc.o
 .debug_ranges  0x00000488       0x68 Srouce/ASF/avr32/drivers/twi/twi.o
 .debug_ranges  0x000004f0       0xd8 Srouce/ASF/avr32/drivers/usart/usart.o
 .debug_ranges  0x000005c8       0x38 Srouce/ASF/thirdparty/freertos/freertos-7.0.0/source/list.o
 .debug_ranges  0x00000600       0x70 Srouce/ASF/thirdparty/freertos/freertos-7.0.0/source/portable/gcc/avr32_uc3/port.o
 .debug_ranges  0x00000670       0x18 Srouce/ASF/thirdparty/freertos/freertos-7.0.0/source/portable/gcc/avr32_uc3/read.o
 .debug_ranges  0x00000688       0x18 Srouce/ASF/thirdparty/freertos/freertos-7.0.0/source/portable/gcc/avr32_uc3/write.o
 .debug_ranges  0x000006a0       0x20 Srouce/ASF/thirdparty/freertos/freertos-7.0.0/source/portable/memmang/heap_3.o
 .debug_ranges  0x000006c0       0x80 Srouce/ASF/thirdparty/freertos/freertos-7.0.0/source/queue.o
 .debug_ranges  0x00000740      0x178 Srouce/ASF/thirdparty/freertos/freertos-7.0.0/source/tasks.o
 .debug_ranges  0x000008b8       0x48 Srouce/Log/log.o
 .debug_ranges  0x00000900       0x18 Srouce/main.o
 .debug_ranges  0x00000918       0xf8 Srouce/ASF/avr32/drivers/gpio/gpio.o
 .debug_ranges  0x00000a10       0x20 Srouce/ASF/avr32/utils/startup/startup_uc3.o
 .debug_ranges  0x00000a30       0x20 d:/program files (x86)/atmel/studio/7.0/toolchain/avr32/avr32-gnu-toolchain/bin/../lib/gcc/avr32/4.4.7/../../../../avr32/lib/ucr2\libc.a(lib_a-malloc.o)
 .debug_ranges  0x00000a50       0x18 d:/program files (x86)/atmel/studio/7.0/toolchain/avr32/avr32-gnu-toolchain/bin/../lib/gcc/avr32/4.4.7/../../../../avr32/lib/ucr2\libc.a(lib_a-mallocr.o)
 .debug_ranges  0x00000a68       0x18 d:/program files (x86)/atmel/studio/7.0/toolchain/avr32/avr32-gnu-toolchain/bin/../lib/gcc/avr32/4.4.7/../../../../avr32/lib/ucr2\libc.a(lib_a-memset.o)
 .debug_ranges  0x00000a80       0x30 d:/program files (x86)/atmel/studio/7.0/toolchain/avr32/avr32-gnu-toolchain/bin/../lib/gcc/avr32/4.4.7/../../../../avr32/lib/ucr2\libc.a(lib_a-reallocr.o)
 .debug_ranges  0x00000ab0       0x18 d:/program files (x86)/atmel/studio/7.0/toolchain/avr32/avr32-gnu-toolchain/bin/../lib/gcc/avr32/4.4.7/../../../../avr32/lib/ucr2\libc.a(lib_a-sbrkr.o)
 .debug_ranges  0x00000ac8       0x20 d:/program files (x86)/atmel/studio/7.0/toolchain/avr32/avr32-gnu-toolchain/bin/../lib/gcc/avr32/4.4.7/../../../../avr32/lib/ucr2\libc.a(lib_a-sprintf.o)
 .debug_ranges  0x00000ae8       0x18 d:/program files (x86)/atmel/studio/7.0/toolchain/avr32/avr32-gnu-toolchain/bin/../lib/gcc/avr32/4.4.7/../../../../avr32/lib/ucr2\libc.a(lib_a-strlen.o)
 .debug_ranges  0x00000b00       0xf0 d:/program files (x86)/atmel/studio/7.0/toolchain/avr32/avr32-gnu-toolchain/bin/../lib/gcc/avr32/4.4.7/../../../../avr32/lib/ucr2\libc.a(lib_a-syscalls.o)
 .debug_ranges  0x00000bf0       0xa0 d:/program files (x86)/atmel/studio/7.0/toolchain/avr32/avr32-gnu-toolchain/bin/../lib/gcc/avr32/4.4.7/../../../../avr32/lib/ucr2\libc.a(lib_a-vfprintf.o)
 .debug_ranges  0x00000c90       0x18 d:/program files (x86)/atmel/studio/7.0/toolchain/avr32/avr32-gnu-toolchain/bin/../lib/gcc/avr32/4.4.7/../../../../avr32/lib/ucr2\libc.a(lib_a-wsetup.o)
 .debug_ranges  0x00000ca8       0x38 d:/program files (x86)/atmel/studio/7.0/toolchain/avr32/avr32-gnu-toolchain/bin/../lib/gcc/avr32/4.4.7/../../../../avr32/lib/ucr2\libc.a(lib_a-dtoa.o)
 .debug_ranges  0x00000ce0       0x18 d:/program files (x86)/atmel/studio/7.0/toolchain/avr32/avr32-gnu-toolchain/bin/../lib/gcc/avr32/4.4.7/../../../../avr32/lib/ucr2\libc.a(lib_a-errno.o)
 .debug_ranges  0x00000cf8       0x20 d:/program files (x86)/atmel/studio/7.0/toolchain/avr32/avr32-gnu-toolchain/bin/../lib/gcc/avr32/4.4.7/../../../../avr32/lib/ucr2\libc.a(lib_a-fflush.o)
 .debug_ranges  0x00000d18       0xb0 d:/program files (x86)/atmel/studio/7.0/toolchain/avr32/avr32-gnu-toolchain/bin/../lib/gcc/avr32/4.4.7/../../../../avr32/lib/ucr2\libc.a(lib_a-findfp.o)
 .debug_ranges  0x00000dc8       0x20 d:/program files (x86)/atmel/studio/7.0/toolchain/avr32/avr32-gnu-toolchain/bin/../lib/gcc/avr32/4.4.7/../../../../avr32/lib/ucr2\libc.a(lib_a-freer.o)
 .debug_ranges  0x00000de8       0x18 d:/program files (x86)/atmel/studio/7.0/toolchain/avr32/avr32-gnu-toolchain/bin/../lib/gcc/avr32/4.4.7/../../../../avr32/lib/ucr2\libc.a(lib_a-fvwrite.o)
 .debug_ranges  0x00000e00       0xa0 d:/program files (x86)/atmel/studio/7.0/toolchain/avr32/avr32-gnu-toolchain/bin/../lib/gcc/avr32/4.4.7/../../../../avr32/lib/ucr2\libc.a(lib_a-fwalk.o)
 .debug_ranges  0x00000ea0       0x38 d:/program files (x86)/atmel/studio/7.0/toolchain/avr32/avr32-gnu-toolchain/bin/../lib/gcc/avr32/4.4.7/../../../../avr32/lib/ucr2\libc.a(lib_a-locale.o)
 .debug_ranges  0x00000ed8       0x18 d:/program files (x86)/atmel/studio/7.0/toolchain/avr32/avr32-gnu-toolchain/bin/../lib/gcc/avr32/4.4.7/../../../../avr32/lib/ucr2\libc.a(lib_a-makebuf.o)
 .debug_ranges  0x00000ef0       0x18 d:/program files (x86)/atmel/studio/7.0/toolchain/avr32/avr32-gnu-toolchain/bin/../lib/gcc/avr32/4.4.7/../../../../avr32/lib/ucr2\libc.a(lib_a-memchr.o)
 .debug_ranges  0x00000f08       0x18 d:/program files (x86)/atmel/studio/7.0/toolchain/avr32/avr32-gnu-toolchain/bin/../lib/gcc/avr32/4.4.7/../../../../avr32/lib/ucr2\libc.a(lib_a-memmove.o)
 .debug_ranges  0x00000f20      0x120 d:/program files (x86)/atmel/studio/7.0/toolchain/avr32/avr32-gnu-toolchain/bin/../lib/gcc/avr32/4.4.7/../../../../avr32/lib/ucr2\libc.a(lib_a-mprec.o)
 .debug_ranges  0x00001040       0x28 d:/program files (x86)/atmel/studio/7.0/toolchain/avr32/avr32-gnu-toolchain/bin/../lib/gcc/avr32/4.4.7/../../../../avr32/lib/ucr2\libc.a(lib_a-reent.o)
 .debug_ranges  0x00001068       0x18 d:/program files (x86)/atmel/studio/7.0/toolchain/avr32/avr32-gnu-toolchain/bin/../lib/gcc/avr32/4.4.7/../../../../avr32/lib/ucr2\libc.a(lib_a-s_isinfd.o)
 .debug_ranges  0x00001080       0x18 d:/program files (x86)/atmel/studio/7.0/toolchain/avr32/avr32-gnu-toolchain/bin/../lib/gcc/avr32/4.4.7/../../../../avr32/lib/ucr2\libc.a(lib_a-s_isnand.o)
 .debug_ranges  0x00001098       0x30 d:/program files (x86)/atmel/studio/7.0/toolchain/avr32/avr32-gnu-toolchain/bin/../lib/gcc/avr32/4.4.7/../../../../avr32/lib/ucr2\libc.a(lib_a-stdio.o)
 .debug_ranges  0x000010c8       0x18 d:/program files (x86)/atmel/studio/7.0/toolchain/avr32/avr32-gnu-toolchain/bin/../lib/gcc/avr32/4.4.7/../../../../avr32/lib/ucr2\libc.a(lib_a-writer.o)
 .debug_ranges  0x000010e0       0x18 d:/program files (x86)/atmel/studio/7.0/toolchain/avr32/avr32-gnu-toolchain/bin/../lib/gcc/avr32/4.4.7/../../../../avr32/lib/ucr2\libc.a(lib_a-callocr.o)
 .debug_ranges  0x000010f8       0x18 d:/program files (x86)/atmel/studio/7.0/toolchain/avr32/avr32-gnu-toolchain/bin/../lib/gcc/avr32/4.4.7/../../../../avr32/lib/ucr2\libc.a(lib_a-closer.o)
 .debug_ranges  0x00001110       0x20 d:/program files (x86)/atmel/studio/7.0/toolchain/avr32/avr32-gnu-toolchain/bin/../lib/gcc/avr32/4.4.7/../../../../avr32/lib/ucr2\libc.a(lib_a-fclose.o)
 .debug_ranges  0x00001130       0x18 d:/program files (x86)/atmel/studio/7.0/toolchain/avr32/avr32-gnu-toolchain/bin/../lib/gcc/avr32/4.4.7/../../../../avr32/lib/ucr2\libc.a(lib_a-fstatr.o)
 .debug_ranges  0x00001148       0x18 d:/program files (x86)/atmel/studio/7.0/toolchain/avr32/avr32-gnu-toolchain/bin/../lib/gcc/avr32/4.4.7/../../../../avr32/lib/ucr2\libc.a(lib_a-lseekr.o)
 .debug_ranges  0x00001160       0x18 d:/program files (x86)/atmel/studio/7.0/toolchain/avr32/avr32-gnu-toolchain/bin/../lib/gcc/avr32/4.4.7/../../../../avr32/lib/ucr2\libc.a(lib_a-readr.o)
 .debug_ranges  0x00001178       0x78 d:/program files (x86)/atmel/studio/7.0/toolchain/avr32/avr32-gnu-toolchain/bin/../lib/gcc/avr32/4.4.7/ucr2\libgcc.a(_udivdi3.o)
 .debug_ranges  0x000011f0       0x38 d:/program files (x86)/atmel/studio/7.0/toolchain/avr32/avr32-gnu-toolchain/bin/../lib/gcc/avr32/4.4.7/ucr2\libgcc.a(_umoddi3.o)
